
Projekt.elf:     file format elf32-littlearm

Sections:
Idx Name          Size      VMA       LMA       File off  Algn
  0 .isr_vector   0000018c  08000000  08000000  00001000  2**0
                  CONTENTS, ALLOC, LOAD, READONLY, DATA
  1 .text         00006fe8  08000190  08000190  00001190  2**4
                  CONTENTS, ALLOC, LOAD, READONLY, CODE
  2 .rodata       00000498  08007178  08007178  00008178  2**2
                  CONTENTS, ALLOC, LOAD, READONLY, DATA
  3 .ARM.extab    00000000  08007610  08007610  00009068  2**0
                  CONTENTS, READONLY
  4 .ARM          00000008  08007610  08007610  00008610  2**2
                  CONTENTS, ALLOC, LOAD, READONLY, DATA
  5 .preinit_array 00000000  08007618  08007618  00009068  2**0
                  CONTENTS, ALLOC, LOAD, DATA
  6 .init_array   00000004  08007618  08007618  00008618  2**2
                  CONTENTS, ALLOC, LOAD, READONLY, DATA
  7 .fini_array   00000004  0800761c  0800761c  0000861c  2**2
                  CONTENTS, ALLOC, LOAD, READONLY, DATA
  8 .data         00000068  20000000  08007620  00009000  2**2
                  CONTENTS, ALLOC, LOAD, DATA
  9 .bss          000001f8  20000068  08007688  00009068  2**2
                  ALLOC
 10 ._user_heap_stack 00000600  20000260  08007688  00009260  2**0
                  ALLOC
 11 .ARM.attributes 00000030  00000000  00000000  00009068  2**0
                  CONTENTS, READONLY
 12 .debug_info   0000c592  00000000  00000000  00009098  2**0
                  CONTENTS, READONLY, DEBUGGING, OCTETS
 13 .debug_abbrev 00002272  00000000  00000000  0001562a  2**0
                  CONTENTS, READONLY, DEBUGGING, OCTETS
 14 .debug_aranges 00000b50  00000000  00000000  000178a0  2**3
                  CONTENTS, READONLY, DEBUGGING, OCTETS
 15 .debug_rnglists 0000088a  00000000  00000000  000183f0  2**0
                  CONTENTS, READONLY, DEBUGGING, OCTETS
 16 .debug_macro  00003820  00000000  00000000  00018c7a  2**0
                  CONTENTS, READONLY, DEBUGGING, OCTETS
 17 .debug_line   0000ec2d  00000000  00000000  0001c49a  2**0
                  CONTENTS, READONLY, DEBUGGING, OCTETS
 18 .debug_str    000c2f7a  00000000  00000000  0002b0c7  2**0
                  CONTENTS, READONLY, DEBUGGING, OCTETS
 19 .comment      00000043  00000000  00000000  000ee041  2**0
                  CONTENTS, READONLY
 20 .debug_frame  000032a0  00000000  00000000  000ee084  2**2
                  CONTENTS, READONLY, DEBUGGING, OCTETS
 21 .debug_line_str 0000005f  00000000  00000000  000f1324  2**0
                  CONTENTS, READONLY, DEBUGGING, OCTETS

Disassembly of section .text:

08000190 <__do_global_dtors_aux>:
 8000190:	b510      	push	{r4, lr}
 8000192:	4c05      	ldr	r4, [pc, #20]	@ (80001a8 <__do_global_dtors_aux+0x18>)
 8000194:	7823      	ldrb	r3, [r4, #0]
 8000196:	b933      	cbnz	r3, 80001a6 <__do_global_dtors_aux+0x16>
 8000198:	4b04      	ldr	r3, [pc, #16]	@ (80001ac <__do_global_dtors_aux+0x1c>)
 800019a:	b113      	cbz	r3, 80001a2 <__do_global_dtors_aux+0x12>
 800019c:	4804      	ldr	r0, [pc, #16]	@ (80001b0 <__do_global_dtors_aux+0x20>)
 800019e:	f3af 8000 	nop.w
 80001a2:	2301      	movs	r3, #1
 80001a4:	7023      	strb	r3, [r4, #0]
 80001a6:	bd10      	pop	{r4, pc}
 80001a8:	20000068 	.word	0x20000068
 80001ac:	00000000 	.word	0x00000000
 80001b0:	08007160 	.word	0x08007160

080001b4 <frame_dummy>:
 80001b4:	b508      	push	{r3, lr}
 80001b6:	4b03      	ldr	r3, [pc, #12]	@ (80001c4 <frame_dummy+0x10>)
 80001b8:	b11b      	cbz	r3, 80001c2 <frame_dummy+0xe>
 80001ba:	4903      	ldr	r1, [pc, #12]	@ (80001c8 <frame_dummy+0x14>)
 80001bc:	4803      	ldr	r0, [pc, #12]	@ (80001cc <frame_dummy+0x18>)
 80001be:	f3af 8000 	nop.w
 80001c2:	bd08      	pop	{r3, pc}
 80001c4:	00000000 	.word	0x00000000
 80001c8:	2000006c 	.word	0x2000006c
 80001cc:	08007160 	.word	0x08007160

080001d0 <memchr>:
 80001d0:	f001 01ff 	and.w	r1, r1, #255	@ 0xff
 80001d4:	2a10      	cmp	r2, #16
 80001d6:	db2b      	blt.n	8000230 <memchr+0x60>
 80001d8:	f010 0f07 	tst.w	r0, #7
 80001dc:	d008      	beq.n	80001f0 <memchr+0x20>
 80001de:	f810 3b01 	ldrb.w	r3, [r0], #1
 80001e2:	3a01      	subs	r2, #1
 80001e4:	428b      	cmp	r3, r1
 80001e6:	d02d      	beq.n	8000244 <memchr+0x74>
 80001e8:	f010 0f07 	tst.w	r0, #7
 80001ec:	b342      	cbz	r2, 8000240 <memchr+0x70>
 80001ee:	d1f6      	bne.n	80001de <memchr+0xe>
 80001f0:	b4f0      	push	{r4, r5, r6, r7}
 80001f2:	ea41 2101 	orr.w	r1, r1, r1, lsl #8
 80001f6:	ea41 4101 	orr.w	r1, r1, r1, lsl #16
 80001fa:	f022 0407 	bic.w	r4, r2, #7
 80001fe:	f07f 0700 	mvns.w	r7, #0
 8000202:	2300      	movs	r3, #0
 8000204:	e8f0 5602 	ldrd	r5, r6, [r0], #8
 8000208:	3c08      	subs	r4, #8
 800020a:	ea85 0501 	eor.w	r5, r5, r1
 800020e:	ea86 0601 	eor.w	r6, r6, r1
 8000212:	fa85 f547 	uadd8	r5, r5, r7
 8000216:	faa3 f587 	sel	r5, r3, r7
 800021a:	fa86 f647 	uadd8	r6, r6, r7
 800021e:	faa5 f687 	sel	r6, r5, r7
 8000222:	b98e      	cbnz	r6, 8000248 <memchr+0x78>
 8000224:	d1ee      	bne.n	8000204 <memchr+0x34>
 8000226:	bcf0      	pop	{r4, r5, r6, r7}
 8000228:	f001 01ff 	and.w	r1, r1, #255	@ 0xff
 800022c:	f002 0207 	and.w	r2, r2, #7
 8000230:	b132      	cbz	r2, 8000240 <memchr+0x70>
 8000232:	f810 3b01 	ldrb.w	r3, [r0], #1
 8000236:	3a01      	subs	r2, #1
 8000238:	ea83 0301 	eor.w	r3, r3, r1
 800023c:	b113      	cbz	r3, 8000244 <memchr+0x74>
 800023e:	d1f8      	bne.n	8000232 <memchr+0x62>
 8000240:	2000      	movs	r0, #0
 8000242:	4770      	bx	lr
 8000244:	3801      	subs	r0, #1
 8000246:	4770      	bx	lr
 8000248:	2d00      	cmp	r5, #0
 800024a:	bf06      	itte	eq
 800024c:	4635      	moveq	r5, r6
 800024e:	3803      	subeq	r0, #3
 8000250:	3807      	subne	r0, #7
 8000252:	f015 0f01 	tst.w	r5, #1
 8000256:	d107      	bne.n	8000268 <memchr+0x98>
 8000258:	3001      	adds	r0, #1
 800025a:	f415 7f80 	tst.w	r5, #256	@ 0x100
 800025e:	bf02      	ittt	eq
 8000260:	3001      	addeq	r0, #1
 8000262:	f415 3fc0 	tsteq.w	r5, #98304	@ 0x18000
 8000266:	3001      	addeq	r0, #1
 8000268:	bcf0      	pop	{r4, r5, r6, r7}
 800026a:	3801      	subs	r0, #1
 800026c:	4770      	bx	lr
 800026e:	bf00      	nop

08000270 <__aeabi_uldivmod>:
 8000270:	b953      	cbnz	r3, 8000288 <__aeabi_uldivmod+0x18>
 8000272:	b94a      	cbnz	r2, 8000288 <__aeabi_uldivmod+0x18>
 8000274:	2900      	cmp	r1, #0
 8000276:	bf08      	it	eq
 8000278:	2800      	cmpeq	r0, #0
 800027a:	bf1c      	itt	ne
 800027c:	f04f 31ff 	movne.w	r1, #4294967295
 8000280:	f04f 30ff 	movne.w	r0, #4294967295
 8000284:	f000 b988 	b.w	8000598 <__aeabi_idiv0>
 8000288:	f1ad 0c08 	sub.w	ip, sp, #8
 800028c:	e96d ce04 	strd	ip, lr, [sp, #-16]!
 8000290:	f000 f806 	bl	80002a0 <__udivmoddi4>
 8000294:	f8dd e004 	ldr.w	lr, [sp, #4]
 8000298:	e9dd 2302 	ldrd	r2, r3, [sp, #8]
 800029c:	b004      	add	sp, #16
 800029e:	4770      	bx	lr

080002a0 <__udivmoddi4>:
 80002a0:	e92d 47f0 	stmdb	sp!, {r4, r5, r6, r7, r8, r9, sl, lr}
 80002a4:	9d08      	ldr	r5, [sp, #32]
 80002a6:	460f      	mov	r7, r1
 80002a8:	4604      	mov	r4, r0
 80002aa:	468c      	mov	ip, r1
 80002ac:	2b00      	cmp	r3, #0
 80002ae:	d148      	bne.n	8000342 <__udivmoddi4+0xa2>
 80002b0:	428a      	cmp	r2, r1
 80002b2:	4616      	mov	r6, r2
 80002b4:	d961      	bls.n	800037a <__udivmoddi4+0xda>
 80002b6:	fab2 f382 	clz	r3, r2
 80002ba:	b14b      	cbz	r3, 80002d0 <__udivmoddi4+0x30>
 80002bc:	f1c3 0220 	rsb	r2, r3, #32
 80002c0:	fa01 fc03 	lsl.w	ip, r1, r3
 80002c4:	fa20 f202 	lsr.w	r2, r0, r2
 80002c8:	409e      	lsls	r6, r3
 80002ca:	ea42 0c0c 	orr.w	ip, r2, ip
 80002ce:	409c      	lsls	r4, r3
 80002d0:	ea4f 4e16 	mov.w	lr, r6, lsr #16
 80002d4:	b2b7      	uxth	r7, r6
 80002d6:	fbbc f1fe 	udiv	r1, ip, lr
 80002da:	0c22      	lsrs	r2, r4, #16
 80002dc:	fb0e cc11 	mls	ip, lr, r1, ip
 80002e0:	ea42 420c 	orr.w	r2, r2, ip, lsl #16
 80002e4:	fb01 f007 	mul.w	r0, r1, r7
 80002e8:	4290      	cmp	r0, r2
 80002ea:	d909      	bls.n	8000300 <__udivmoddi4+0x60>
 80002ec:	18b2      	adds	r2, r6, r2
 80002ee:	f101 3cff 	add.w	ip, r1, #4294967295
 80002f2:	f080 80ee 	bcs.w	80004d2 <__udivmoddi4+0x232>
 80002f6:	4290      	cmp	r0, r2
 80002f8:	f240 80eb 	bls.w	80004d2 <__udivmoddi4+0x232>
 80002fc:	3902      	subs	r1, #2
 80002fe:	4432      	add	r2, r6
 8000300:	1a12      	subs	r2, r2, r0
 8000302:	b2a4      	uxth	r4, r4
 8000304:	fbb2 f0fe 	udiv	r0, r2, lr
 8000308:	fb0e 2210 	mls	r2, lr, r0, r2
 800030c:	ea44 4402 	orr.w	r4, r4, r2, lsl #16
 8000310:	fb00 f707 	mul.w	r7, r0, r7
 8000314:	42a7      	cmp	r7, r4
 8000316:	d909      	bls.n	800032c <__udivmoddi4+0x8c>
 8000318:	1934      	adds	r4, r6, r4
 800031a:	f100 32ff 	add.w	r2, r0, #4294967295
 800031e:	f080 80da 	bcs.w	80004d6 <__udivmoddi4+0x236>
 8000322:	42a7      	cmp	r7, r4
 8000324:	f240 80d7 	bls.w	80004d6 <__udivmoddi4+0x236>
 8000328:	4434      	add	r4, r6
 800032a:	3802      	subs	r0, #2
 800032c:	ea40 4001 	orr.w	r0, r0, r1, lsl #16
 8000330:	1be4      	subs	r4, r4, r7
 8000332:	2100      	movs	r1, #0
 8000334:	b11d      	cbz	r5, 800033e <__udivmoddi4+0x9e>
 8000336:	40dc      	lsrs	r4, r3
 8000338:	2300      	movs	r3, #0
 800033a:	e9c5 4300 	strd	r4, r3, [r5]
 800033e:	e8bd 87f0 	ldmia.w	sp!, {r4, r5, r6, r7, r8, r9, sl, pc}
 8000342:	428b      	cmp	r3, r1
 8000344:	d906      	bls.n	8000354 <__udivmoddi4+0xb4>
 8000346:	b10d      	cbz	r5, 800034c <__udivmoddi4+0xac>
 8000348:	e9c5 0100 	strd	r0, r1, [r5]
 800034c:	2100      	movs	r1, #0
 800034e:	4608      	mov	r0, r1
 8000350:	e8bd 87f0 	ldmia.w	sp!, {r4, r5, r6, r7, r8, r9, sl, pc}
 8000354:	fab3 f183 	clz	r1, r3
 8000358:	2900      	cmp	r1, #0
 800035a:	d148      	bne.n	80003ee <__udivmoddi4+0x14e>
 800035c:	42bb      	cmp	r3, r7
 800035e:	d302      	bcc.n	8000366 <__udivmoddi4+0xc6>
 8000360:	4282      	cmp	r2, r0
 8000362:	f200 8107 	bhi.w	8000574 <__udivmoddi4+0x2d4>
 8000366:	1a84      	subs	r4, r0, r2
 8000368:	eb67 0203 	sbc.w	r2, r7, r3
 800036c:	2001      	movs	r0, #1
 800036e:	4694      	mov	ip, r2
 8000370:	2d00      	cmp	r5, #0
 8000372:	d0e4      	beq.n	800033e <__udivmoddi4+0x9e>
 8000374:	e9c5 4c00 	strd	r4, ip, [r5]
 8000378:	e7e1      	b.n	800033e <__udivmoddi4+0x9e>
 800037a:	2a00      	cmp	r2, #0
 800037c:	f000 8092 	beq.w	80004a4 <__udivmoddi4+0x204>
 8000380:	fab2 f382 	clz	r3, r2
 8000384:	2b00      	cmp	r3, #0
 8000386:	f040 80a8 	bne.w	80004da <__udivmoddi4+0x23a>
 800038a:	1a8a      	subs	r2, r1, r2
 800038c:	ea4f 4e16 	mov.w	lr, r6, lsr #16
 8000390:	fa1f fc86 	uxth.w	ip, r6
 8000394:	2101      	movs	r1, #1
 8000396:	0c20      	lsrs	r0, r4, #16
 8000398:	fbb2 f7fe 	udiv	r7, r2, lr
 800039c:	fb0e 2217 	mls	r2, lr, r7, r2
 80003a0:	ea40 4202 	orr.w	r2, r0, r2, lsl #16
 80003a4:	fb0c f007 	mul.w	r0, ip, r7
 80003a8:	4290      	cmp	r0, r2
 80003aa:	d907      	bls.n	80003bc <__udivmoddi4+0x11c>
 80003ac:	18b2      	adds	r2, r6, r2
 80003ae:	f107 38ff 	add.w	r8, r7, #4294967295
 80003b2:	d202      	bcs.n	80003ba <__udivmoddi4+0x11a>
 80003b4:	4290      	cmp	r0, r2
 80003b6:	f200 80e2 	bhi.w	800057e <__udivmoddi4+0x2de>
 80003ba:	4647      	mov	r7, r8
 80003bc:	1a12      	subs	r2, r2, r0
 80003be:	b2a4      	uxth	r4, r4
 80003c0:	fbb2 f0fe 	udiv	r0, r2, lr
 80003c4:	fb0e 2210 	mls	r2, lr, r0, r2
 80003c8:	ea44 4402 	orr.w	r4, r4, r2, lsl #16
 80003cc:	fb0c fc00 	mul.w	ip, ip, r0
 80003d0:	45a4      	cmp	ip, r4
 80003d2:	d907      	bls.n	80003e4 <__udivmoddi4+0x144>
 80003d4:	1934      	adds	r4, r6, r4
 80003d6:	f100 32ff 	add.w	r2, r0, #4294967295
 80003da:	d202      	bcs.n	80003e2 <__udivmoddi4+0x142>
 80003dc:	45a4      	cmp	ip, r4
 80003de:	f200 80cb 	bhi.w	8000578 <__udivmoddi4+0x2d8>
 80003e2:	4610      	mov	r0, r2
 80003e4:	eba4 040c 	sub.w	r4, r4, ip
 80003e8:	ea40 4007 	orr.w	r0, r0, r7, lsl #16
 80003ec:	e7a2      	b.n	8000334 <__udivmoddi4+0x94>
 80003ee:	f1c1 0620 	rsb	r6, r1, #32
 80003f2:	408b      	lsls	r3, r1
 80003f4:	fa22 fc06 	lsr.w	ip, r2, r6
 80003f8:	ea4c 0c03 	orr.w	ip, ip, r3
 80003fc:	fa07 f401 	lsl.w	r4, r7, r1
 8000400:	fa20 f306 	lsr.w	r3, r0, r6
 8000404:	40f7      	lsrs	r7, r6
 8000406:	ea4f 491c 	mov.w	r9, ip, lsr #16
 800040a:	4323      	orrs	r3, r4
 800040c:	fa00 f801 	lsl.w	r8, r0, r1
 8000410:	fa1f fe8c 	uxth.w	lr, ip
 8000414:	fbb7 f0f9 	udiv	r0, r7, r9
 8000418:	0c1c      	lsrs	r4, r3, #16
 800041a:	fb09 7710 	mls	r7, r9, r0, r7
 800041e:	ea44 4407 	orr.w	r4, r4, r7, lsl #16
 8000422:	fb00 f70e 	mul.w	r7, r0, lr
 8000426:	42a7      	cmp	r7, r4
 8000428:	fa02 f201 	lsl.w	r2, r2, r1
 800042c:	d90a      	bls.n	8000444 <__udivmoddi4+0x1a4>
 800042e:	eb1c 0404 	adds.w	r4, ip, r4
 8000432:	f100 3aff 	add.w	sl, r0, #4294967295
 8000436:	f080 809b 	bcs.w	8000570 <__udivmoddi4+0x2d0>
 800043a:	42a7      	cmp	r7, r4
 800043c:	f240 8098 	bls.w	8000570 <__udivmoddi4+0x2d0>
 8000440:	3802      	subs	r0, #2
 8000442:	4464      	add	r4, ip
 8000444:	1be4      	subs	r4, r4, r7
 8000446:	b29f      	uxth	r7, r3
 8000448:	fbb4 f3f9 	udiv	r3, r4, r9
 800044c:	fb09 4413 	mls	r4, r9, r3, r4
 8000450:	ea47 4404 	orr.w	r4, r7, r4, lsl #16
 8000454:	fb03 fe0e 	mul.w	lr, r3, lr
 8000458:	45a6      	cmp	lr, r4
 800045a:	d909      	bls.n	8000470 <__udivmoddi4+0x1d0>
 800045c:	eb1c 0404 	adds.w	r4, ip, r4
 8000460:	f103 37ff 	add.w	r7, r3, #4294967295
 8000464:	f080 8082 	bcs.w	800056c <__udivmoddi4+0x2cc>
 8000468:	45a6      	cmp	lr, r4
 800046a:	d97f      	bls.n	800056c <__udivmoddi4+0x2cc>
 800046c:	3b02      	subs	r3, #2
 800046e:	4464      	add	r4, ip
 8000470:	ea43 4000 	orr.w	r0, r3, r0, lsl #16
 8000474:	eba4 040e 	sub.w	r4, r4, lr
 8000478:	fba0 e702 	umull	lr, r7, r0, r2
 800047c:	42bc      	cmp	r4, r7
 800047e:	4673      	mov	r3, lr
 8000480:	46b9      	mov	r9, r7
 8000482:	d363      	bcc.n	800054c <__udivmoddi4+0x2ac>
 8000484:	d060      	beq.n	8000548 <__udivmoddi4+0x2a8>
 8000486:	b15d      	cbz	r5, 80004a0 <__udivmoddi4+0x200>
 8000488:	ebb8 0203 	subs.w	r2, r8, r3
 800048c:	eb64 0409 	sbc.w	r4, r4, r9
 8000490:	fa04 f606 	lsl.w	r6, r4, r6
 8000494:	fa22 f301 	lsr.w	r3, r2, r1
 8000498:	431e      	orrs	r6, r3
 800049a:	40cc      	lsrs	r4, r1
 800049c:	e9c5 6400 	strd	r6, r4, [r5]
 80004a0:	2100      	movs	r1, #0
 80004a2:	e74c      	b.n	800033e <__udivmoddi4+0x9e>
 80004a4:	0862      	lsrs	r2, r4, #1
 80004a6:	0848      	lsrs	r0, r1, #1
 80004a8:	ea42 71c1 	orr.w	r1, r2, r1, lsl #31
 80004ac:	0c0b      	lsrs	r3, r1, #16
 80004ae:	ea43 4300 	orr.w	r3, r3, r0, lsl #16
 80004b2:	b28a      	uxth	r2, r1
 80004b4:	ea42 4203 	orr.w	r2, r2, r3, lsl #16
 80004b8:	fbb3 f1f6 	udiv	r1, r3, r6
 80004bc:	07e4      	lsls	r4, r4, #31
 80004be:	46b4      	mov	ip, r6
 80004c0:	4637      	mov	r7, r6
 80004c2:	46b6      	mov	lr, r6
 80004c4:	231f      	movs	r3, #31
 80004c6:	fbb0 f0f6 	udiv	r0, r0, r6
 80004ca:	1bd2      	subs	r2, r2, r7
 80004cc:	ea41 4100 	orr.w	r1, r1, r0, lsl #16
 80004d0:	e761      	b.n	8000396 <__udivmoddi4+0xf6>
 80004d2:	4661      	mov	r1, ip
 80004d4:	e714      	b.n	8000300 <__udivmoddi4+0x60>
 80004d6:	4610      	mov	r0, r2
 80004d8:	e728      	b.n	800032c <__udivmoddi4+0x8c>
 80004da:	f1c3 0120 	rsb	r1, r3, #32
 80004de:	fa20 f201 	lsr.w	r2, r0, r1
 80004e2:	409e      	lsls	r6, r3
 80004e4:	fa27 f101 	lsr.w	r1, r7, r1
 80004e8:	409f      	lsls	r7, r3
 80004ea:	433a      	orrs	r2, r7
 80004ec:	ea4f 4e16 	mov.w	lr, r6, lsr #16
 80004f0:	fa1f fc86 	uxth.w	ip, r6
 80004f4:	fbb1 f7fe 	udiv	r7, r1, lr
 80004f8:	fb0e 1017 	mls	r0, lr, r7, r1
 80004fc:	0c11      	lsrs	r1, r2, #16
 80004fe:	ea41 4100 	orr.w	r1, r1, r0, lsl #16
 8000502:	fb07 f80c 	mul.w	r8, r7, ip
 8000506:	4588      	cmp	r8, r1
 8000508:	fa04 f403 	lsl.w	r4, r4, r3
 800050c:	d93a      	bls.n	8000584 <__udivmoddi4+0x2e4>
 800050e:	1871      	adds	r1, r6, r1
 8000510:	f107 30ff 	add.w	r0, r7, #4294967295
 8000514:	d201      	bcs.n	800051a <__udivmoddi4+0x27a>
 8000516:	4588      	cmp	r8, r1
 8000518:	d81f      	bhi.n	800055a <__udivmoddi4+0x2ba>
 800051a:	eba1 0108 	sub.w	r1, r1, r8
 800051e:	fbb1 f8fe 	udiv	r8, r1, lr
 8000522:	fb08 f70c 	mul.w	r7, r8, ip
 8000526:	fb0e 1118 	mls	r1, lr, r8, r1
 800052a:	b292      	uxth	r2, r2
 800052c:	ea42 4201 	orr.w	r2, r2, r1, lsl #16
 8000530:	42ba      	cmp	r2, r7
 8000532:	d22f      	bcs.n	8000594 <__udivmoddi4+0x2f4>
 8000534:	18b2      	adds	r2, r6, r2
 8000536:	f108 31ff 	add.w	r1, r8, #4294967295
 800053a:	d2c6      	bcs.n	80004ca <__udivmoddi4+0x22a>
 800053c:	42ba      	cmp	r2, r7
 800053e:	d2c4      	bcs.n	80004ca <__udivmoddi4+0x22a>
 8000540:	f1a8 0102 	sub.w	r1, r8, #2
 8000544:	4432      	add	r2, r6
 8000546:	e7c0      	b.n	80004ca <__udivmoddi4+0x22a>
 8000548:	45f0      	cmp	r8, lr
 800054a:	d29c      	bcs.n	8000486 <__udivmoddi4+0x1e6>
 800054c:	ebbe 0302 	subs.w	r3, lr, r2
 8000550:	eb67 070c 	sbc.w	r7, r7, ip
 8000554:	3801      	subs	r0, #1
 8000556:	46b9      	mov	r9, r7
 8000558:	e795      	b.n	8000486 <__udivmoddi4+0x1e6>
 800055a:	eba6 0808 	sub.w	r8, r6, r8
 800055e:	4441      	add	r1, r8
 8000560:	1eb8      	subs	r0, r7, #2
 8000562:	fbb1 f8fe 	udiv	r8, r1, lr
 8000566:	fb08 f70c 	mul.w	r7, r8, ip
 800056a:	e7dc      	b.n	8000526 <__udivmoddi4+0x286>
 800056c:	463b      	mov	r3, r7
 800056e:	e77f      	b.n	8000470 <__udivmoddi4+0x1d0>
 8000570:	4650      	mov	r0, sl
 8000572:	e767      	b.n	8000444 <__udivmoddi4+0x1a4>
 8000574:	4608      	mov	r0, r1
 8000576:	e6fb      	b.n	8000370 <__udivmoddi4+0xd0>
 8000578:	4434      	add	r4, r6
 800057a:	3802      	subs	r0, #2
 800057c:	e732      	b.n	80003e4 <__udivmoddi4+0x144>
 800057e:	3f02      	subs	r7, #2
 8000580:	4432      	add	r2, r6
 8000582:	e71b      	b.n	80003bc <__udivmoddi4+0x11c>
 8000584:	eba1 0108 	sub.w	r1, r1, r8
 8000588:	4638      	mov	r0, r7
 800058a:	fbb1 f8fe 	udiv	r8, r1, lr
 800058e:	fb08 f70c 	mul.w	r7, r8, ip
 8000592:	e7c8      	b.n	8000526 <__udivmoddi4+0x286>
 8000594:	4641      	mov	r1, r8
 8000596:	e798      	b.n	80004ca <__udivmoddi4+0x22a>

08000598 <__aeabi_idiv0>:
 8000598:	4770      	bx	lr
 800059a:	bf00      	nop

0800059c <HAL_Init>:
  *         each 1ms in the SysTick_Handler() interrupt handler.
  *
  * @retval HAL status
  */
HAL_StatusTypeDef HAL_Init(void)
{
 800059c:	b580      	push	{r7, lr}
 800059e:	b082      	sub	sp, #8
 80005a0:	af00      	add	r7, sp, #0
  HAL_StatusTypeDef  status = HAL_OK;
 80005a2:	2300      	movs	r3, #0
 80005a4:	71fb      	strb	r3, [r7, #7]
#if (PREFETCH_ENABLE != 0)
  __HAL_FLASH_PREFETCH_BUFFER_ENABLE();
#endif /* PREFETCH_ENABLE */

  /* Set Interrupt Group Priority */
  HAL_NVIC_SetPriorityGrouping(NVIC_PRIORITYGROUP_4);
 80005a6:	2003      	movs	r0, #3
 80005a8:	f000 f942 	bl	8000830 <HAL_NVIC_SetPriorityGrouping>

  /* Use SysTick as time base source and configure 1ms tick (default clock after Reset is MSI) */
  if (HAL_InitTick(TICK_INT_PRIORITY) != HAL_OK)
 80005ac:	2000      	movs	r0, #0
 80005ae:	f000 f80d 	bl	80005cc <HAL_InitTick>
 80005b2:	4603      	mov	r3, r0
 80005b4:	2b00      	cmp	r3, #0
 80005b6:	d002      	beq.n	80005be <HAL_Init+0x22>
  {
    status = HAL_ERROR;
 80005b8:	2301      	movs	r3, #1
 80005ba:	71fb      	strb	r3, [r7, #7]
 80005bc:	e001      	b.n	80005c2 <HAL_Init+0x26>
  }
  else
  {
    /* Init the low level hardware */
    HAL_MspInit();
 80005be:	f005 fc87 	bl	8005ed0 <HAL_MspInit>
  }

  /* Return function status */
  return status;
 80005c2:	79fb      	ldrb	r3, [r7, #7]
}
 80005c4:	4618      	mov	r0, r3
 80005c6:	3708      	adds	r7, #8
 80005c8:	46bd      	mov	sp, r7
 80005ca:	bd80      	pop	{r7, pc}

080005cc <HAL_InitTick>:
  *       implementation  in user file.
  * @param TickPriority  Tick interrupt priority.
  * @retval HAL status
  */
__weak HAL_StatusTypeDef HAL_InitTick(uint32_t TickPriority)
{
 80005cc:	b580      	push	{r7, lr}
 80005ce:	b084      	sub	sp, #16
 80005d0:	af00      	add	r7, sp, #0
 80005d2:	6078      	str	r0, [r7, #4]
  HAL_StatusTypeDef  status = HAL_OK;
 80005d4:	2300      	movs	r3, #0
 80005d6:	73fb      	strb	r3, [r7, #15]

  /* Check uwTickFreq for MisraC 2012 (even if uwTickFreq is a enum type that doesn't take the value zero)*/
  if ((uint32_t)uwTickFreq != 0U)
 80005d8:	4b17      	ldr	r3, [pc, #92]	@ (8000638 <HAL_InitTick+0x6c>)
 80005da:	781b      	ldrb	r3, [r3, #0]
 80005dc:	2b00      	cmp	r3, #0
 80005de:	d023      	beq.n	8000628 <HAL_InitTick+0x5c>
  {
    /*Configure the SysTick to have interrupt in 1ms time basis*/
    if (HAL_SYSTICK_Config(SystemCoreClock / (1000U / (uint32_t)uwTickFreq)) == 0U)
 80005e0:	4b16      	ldr	r3, [pc, #88]	@ (800063c <HAL_InitTick+0x70>)
 80005e2:	681a      	ldr	r2, [r3, #0]
 80005e4:	4b14      	ldr	r3, [pc, #80]	@ (8000638 <HAL_InitTick+0x6c>)
 80005e6:	781b      	ldrb	r3, [r3, #0]
 80005e8:	4619      	mov	r1, r3
 80005ea:	f44f 737a 	mov.w	r3, #1000	@ 0x3e8
 80005ee:	fbb3 f3f1 	udiv	r3, r3, r1
 80005f2:	fbb2 f3f3 	udiv	r3, r2, r3
 80005f6:	4618      	mov	r0, r3
 80005f8:	f000 f941 	bl	800087e <HAL_SYSTICK_Config>
 80005fc:	4603      	mov	r3, r0
 80005fe:	2b00      	cmp	r3, #0
 8000600:	d10f      	bne.n	8000622 <HAL_InitTick+0x56>
    {
      /* Configure the SysTick IRQ priority */
      if (TickPriority < (1UL << __NVIC_PRIO_BITS))
 8000602:	687b      	ldr	r3, [r7, #4]
 8000604:	2b0f      	cmp	r3, #15
 8000606:	d809      	bhi.n	800061c <HAL_InitTick+0x50>
      {
        HAL_NVIC_SetPriority(SysTick_IRQn, TickPriority, 0U);
 8000608:	2200      	movs	r2, #0
 800060a:	6879      	ldr	r1, [r7, #4]
 800060c:	f04f 30ff 	mov.w	r0, #4294967295
 8000610:	f000 f919 	bl	8000846 <HAL_NVIC_SetPriority>
        uwTickPrio = TickPriority;
 8000614:	4a0a      	ldr	r2, [pc, #40]	@ (8000640 <HAL_InitTick+0x74>)
 8000616:	687b      	ldr	r3, [r7, #4]
 8000618:	6013      	str	r3, [r2, #0]
 800061a:	e007      	b.n	800062c <HAL_InitTick+0x60>
      }
      else
      {
        status = HAL_ERROR;
 800061c:	2301      	movs	r3, #1
 800061e:	73fb      	strb	r3, [r7, #15]
 8000620:	e004      	b.n	800062c <HAL_InitTick+0x60>
      }
    }
    else
    {
      status = HAL_ERROR;
 8000622:	2301      	movs	r3, #1
 8000624:	73fb      	strb	r3, [r7, #15]
 8000626:	e001      	b.n	800062c <HAL_InitTick+0x60>
    }
  }
  else
  {
    status = HAL_ERROR;
 8000628:	2301      	movs	r3, #1
 800062a:	73fb      	strb	r3, [r7, #15]
  }

  /* Return function status */
  return status;
 800062c:	7bfb      	ldrb	r3, [r7, #15]
}
 800062e:	4618      	mov	r0, r3
 8000630:	3710      	adds	r7, #16
 8000632:	46bd      	mov	sp, r7
 8000634:	bd80      	pop	{r7, pc}
 8000636:	bf00      	nop
 8000638:	20000004 	.word	0x20000004
 800063c:	20000008 	.word	0x20000008
 8000640:	20000000 	.word	0x20000000

08000644 <HAL_IncTick>:
 * @note This function is declared as __weak to be overwritten in case of other
  *      implementations in user file.
  * @retval None
  */
__weak void HAL_IncTick(void)
{
 8000644:	b480      	push	{r7}
 8000646:	af00      	add	r7, sp, #0
  uwTick += (uint32_t)uwTickFreq;
 8000648:	4b06      	ldr	r3, [pc, #24]	@ (8000664 <HAL_IncTick+0x20>)
 800064a:	781b      	ldrb	r3, [r3, #0]
 800064c:	461a      	mov	r2, r3
 800064e:	4b06      	ldr	r3, [pc, #24]	@ (8000668 <HAL_IncTick+0x24>)
 8000650:	681b      	ldr	r3, [r3, #0]
 8000652:	4413      	add	r3, r2
 8000654:	4a04      	ldr	r2, [pc, #16]	@ (8000668 <HAL_IncTick+0x24>)
 8000656:	6013      	str	r3, [r2, #0]
}
 8000658:	bf00      	nop
 800065a:	46bd      	mov	sp, r7
 800065c:	f85d 7b04 	ldr.w	r7, [sp], #4
 8000660:	4770      	bx	lr
 8000662:	bf00      	nop
 8000664:	20000004 	.word	0x20000004
 8000668:	20000084 	.word	0x20000084

0800066c <HAL_GetTick>:
  * @note This function is declared as __weak to be overwritten in case of other
  *       implementations in user file.
  * @retval tick value
  */
__weak uint32_t HAL_GetTick(void)
{
 800066c:	b480      	push	{r7}
 800066e:	af00      	add	r7, sp, #0
  return uwTick;
 8000670:	4b03      	ldr	r3, [pc, #12]	@ (8000680 <HAL_GetTick+0x14>)
 8000672:	681b      	ldr	r3, [r3, #0]
}
 8000674:	4618      	mov	r0, r3
 8000676:	46bd      	mov	sp, r7
 8000678:	f85d 7b04 	ldr.w	r7, [sp], #4
 800067c:	4770      	bx	lr
 800067e:	bf00      	nop
 8000680:	20000084 	.word	0x20000084

08000684 <HAL_Delay>:
  *       implementations in user file.
  * @param Delay  specifies the delay time length, in milliseconds.
  * @retval None
  */
__weak void HAL_Delay(uint32_t Delay)
{
 8000684:	b580      	push	{r7, lr}
 8000686:	b084      	sub	sp, #16
 8000688:	af00      	add	r7, sp, #0
 800068a:	6078      	str	r0, [r7, #4]
  uint32_t tickstart = HAL_GetTick();
 800068c:	f7ff ffee 	bl	800066c <HAL_GetTick>
 8000690:	60b8      	str	r0, [r7, #8]
  uint32_t wait = Delay;
 8000692:	687b      	ldr	r3, [r7, #4]
 8000694:	60fb      	str	r3, [r7, #12]

  /* Add a period to guaranty minimum wait */
  if (wait < HAL_MAX_DELAY)
 8000696:	68fb      	ldr	r3, [r7, #12]
 8000698:	f1b3 3fff 	cmp.w	r3, #4294967295
 800069c:	d005      	beq.n	80006aa <HAL_Delay+0x26>
  {
    wait += (uint32_t)uwTickFreq;
 800069e:	4b0a      	ldr	r3, [pc, #40]	@ (80006c8 <HAL_Delay+0x44>)
 80006a0:	781b      	ldrb	r3, [r3, #0]
 80006a2:	461a      	mov	r2, r3
 80006a4:	68fb      	ldr	r3, [r7, #12]
 80006a6:	4413      	add	r3, r2
 80006a8:	60fb      	str	r3, [r7, #12]
  }

  while ((HAL_GetTick() - tickstart) < wait)
 80006aa:	bf00      	nop
 80006ac:	f7ff ffde 	bl	800066c <HAL_GetTick>
 80006b0:	4602      	mov	r2, r0
 80006b2:	68bb      	ldr	r3, [r7, #8]
 80006b4:	1ad3      	subs	r3, r2, r3
 80006b6:	68fa      	ldr	r2, [r7, #12]
 80006b8:	429a      	cmp	r2, r3
 80006ba:	d8f7      	bhi.n	80006ac <HAL_Delay+0x28>
  {
  }
}
 80006bc:	bf00      	nop
 80006be:	bf00      	nop
 80006c0:	3710      	adds	r7, #16
 80006c2:	46bd      	mov	sp, r7
 80006c4:	bd80      	pop	{r7, pc}
 80006c6:	bf00      	nop
 80006c8:	20000004 	.word	0x20000004

080006cc <__NVIC_SetPriorityGrouping>:
           In case of a conflict between priority grouping and available
           priority bits (__NVIC_PRIO_BITS), the smallest possible priority group is set.
  \param [in]      PriorityGroup  Priority grouping field.
 */
__STATIC_INLINE void __NVIC_SetPriorityGrouping(uint32_t PriorityGroup)
{
 80006cc:	b480      	push	{r7}
 80006ce:	b085      	sub	sp, #20
 80006d0:	af00      	add	r7, sp, #0
 80006d2:	6078      	str	r0, [r7, #4]
  uint32_t reg_value;
  uint32_t PriorityGroupTmp = (PriorityGroup & (uint32_t)0x07UL);             /* only values 0..7 are used          */
 80006d4:	687b      	ldr	r3, [r7, #4]
 80006d6:	f003 0307 	and.w	r3, r3, #7
 80006da:	60fb      	str	r3, [r7, #12]

  reg_value  =  SCB->AIRCR;                                                   /* read old register configuration    */
 80006dc:	4b0c      	ldr	r3, [pc, #48]	@ (8000710 <__NVIC_SetPriorityGrouping+0x44>)
 80006de:	68db      	ldr	r3, [r3, #12]
 80006e0:	60bb      	str	r3, [r7, #8]
  reg_value &= ~((uint32_t)(SCB_AIRCR_VECTKEY_Msk | SCB_AIRCR_PRIGROUP_Msk)); /* clear bits to change               */
 80006e2:	68ba      	ldr	r2, [r7, #8]
 80006e4:	f64f 03ff 	movw	r3, #63743	@ 0xf8ff
 80006e8:	4013      	ands	r3, r2
 80006ea:	60bb      	str	r3, [r7, #8]
  reg_value  =  (reg_value                                   |
                ((uint32_t)0x5FAUL << SCB_AIRCR_VECTKEY_Pos) |
                (PriorityGroupTmp << SCB_AIRCR_PRIGROUP_Pos)  );              /* Insert write key and priority group */
 80006ec:	68fb      	ldr	r3, [r7, #12]
 80006ee:	021a      	lsls	r2, r3, #8
                ((uint32_t)0x5FAUL << SCB_AIRCR_VECTKEY_Pos) |
 80006f0:	68bb      	ldr	r3, [r7, #8]
 80006f2:	4313      	orrs	r3, r2
  reg_value  =  (reg_value                                   |
 80006f4:	f043 63bf 	orr.w	r3, r3, #100139008	@ 0x5f80000
 80006f8:	f443 3300 	orr.w	r3, r3, #131072	@ 0x20000
 80006fc:	60bb      	str	r3, [r7, #8]
  SCB->AIRCR =  reg_value;
 80006fe:	4a04      	ldr	r2, [pc, #16]	@ (8000710 <__NVIC_SetPriorityGrouping+0x44>)
 8000700:	68bb      	ldr	r3, [r7, #8]
 8000702:	60d3      	str	r3, [r2, #12]
}
 8000704:	bf00      	nop
 8000706:	3714      	adds	r7, #20
 8000708:	46bd      	mov	sp, r7
 800070a:	f85d 7b04 	ldr.w	r7, [sp], #4
 800070e:	4770      	bx	lr
 8000710:	e000ed00 	.word	0xe000ed00

08000714 <__NVIC_GetPriorityGrouping>:
  \brief   Get Priority Grouping
  \details Reads the priority grouping field from the NVIC Interrupt Controller.
  \return                Priority grouping field (SCB->AIRCR [10:8] PRIGROUP field).
 */
__STATIC_INLINE uint32_t __NVIC_GetPriorityGrouping(void)
{
 8000714:	b480      	push	{r7}
 8000716:	af00      	add	r7, sp, #0
  return ((uint32_t)((SCB->AIRCR & SCB_AIRCR_PRIGROUP_Msk) >> SCB_AIRCR_PRIGROUP_Pos));
 8000718:	4b04      	ldr	r3, [pc, #16]	@ (800072c <__NVIC_GetPriorityGrouping+0x18>)
 800071a:	68db      	ldr	r3, [r3, #12]
 800071c:	0a1b      	lsrs	r3, r3, #8
 800071e:	f003 0307 	and.w	r3, r3, #7
}
 8000722:	4618      	mov	r0, r3
 8000724:	46bd      	mov	sp, r7
 8000726:	f85d 7b04 	ldr.w	r7, [sp], #4
 800072a:	4770      	bx	lr
 800072c:	e000ed00 	.word	0xe000ed00

08000730 <__NVIC_SetPriority>:
  \param [in]      IRQn  Interrupt number.
  \param [in]  priority  Priority to set.
  \note    The priority cannot be set for every processor exception.
 */
__STATIC_INLINE void __NVIC_SetPriority(IRQn_Type IRQn, uint32_t priority)
{
 8000730:	b480      	push	{r7}
 8000732:	b083      	sub	sp, #12
 8000734:	af00      	add	r7, sp, #0
 8000736:	4603      	mov	r3, r0
 8000738:	6039      	str	r1, [r7, #0]
 800073a:	71fb      	strb	r3, [r7, #7]
  if ((int32_t)(IRQn) >= 0)
 800073c:	f997 3007 	ldrsb.w	r3, [r7, #7]
 8000740:	2b00      	cmp	r3, #0
 8000742:	db0a      	blt.n	800075a <__NVIC_SetPriority+0x2a>
  {
    NVIC->IP[((uint32_t)IRQn)]               = (uint8_t)((priority << (8U - __NVIC_PRIO_BITS)) & (uint32_t)0xFFUL);
 8000744:	683b      	ldr	r3, [r7, #0]
 8000746:	b2da      	uxtb	r2, r3
 8000748:	490c      	ldr	r1, [pc, #48]	@ (800077c <__NVIC_SetPriority+0x4c>)
 800074a:	f997 3007 	ldrsb.w	r3, [r7, #7]
 800074e:	0112      	lsls	r2, r2, #4
 8000750:	b2d2      	uxtb	r2, r2
 8000752:	440b      	add	r3, r1
 8000754:	f883 2300 	strb.w	r2, [r3, #768]	@ 0x300
  }
  else
  {
    SCB->SHP[(((uint32_t)IRQn) & 0xFUL)-4UL] = (uint8_t)((priority << (8U - __NVIC_PRIO_BITS)) & (uint32_t)0xFFUL);
  }
}
 8000758:	e00a      	b.n	8000770 <__NVIC_SetPriority+0x40>
    SCB->SHP[(((uint32_t)IRQn) & 0xFUL)-4UL] = (uint8_t)((priority << (8U - __NVIC_PRIO_BITS)) & (uint32_t)0xFFUL);
 800075a:	683b      	ldr	r3, [r7, #0]
 800075c:	b2da      	uxtb	r2, r3
 800075e:	4908      	ldr	r1, [pc, #32]	@ (8000780 <__NVIC_SetPriority+0x50>)
 8000760:	79fb      	ldrb	r3, [r7, #7]
 8000762:	f003 030f 	and.w	r3, r3, #15
 8000766:	3b04      	subs	r3, #4
 8000768:	0112      	lsls	r2, r2, #4
 800076a:	b2d2      	uxtb	r2, r2
 800076c:	440b      	add	r3, r1
 800076e:	761a      	strb	r2, [r3, #24]
}
 8000770:	bf00      	nop
 8000772:	370c      	adds	r7, #12
 8000774:	46bd      	mov	sp, r7
 8000776:	f85d 7b04 	ldr.w	r7, [sp], #4
 800077a:	4770      	bx	lr
 800077c:	e000e100 	.word	0xe000e100
 8000780:	e000ed00 	.word	0xe000ed00

08000784 <NVIC_EncodePriority>:
  \param [in]   PreemptPriority  Preemptive priority value (starting from 0).
  \param [in]       SubPriority  Subpriority value (starting from 0).
  \return                        Encoded priority. Value can be used in the function \ref NVIC_SetPriority().
 */
__STATIC_INLINE uint32_t NVIC_EncodePriority (uint32_t PriorityGroup, uint32_t PreemptPriority, uint32_t SubPriority)
{
 8000784:	b480      	push	{r7}
 8000786:	b089      	sub	sp, #36	@ 0x24
 8000788:	af00      	add	r7, sp, #0
 800078a:	60f8      	str	r0, [r7, #12]
 800078c:	60b9      	str	r1, [r7, #8]
 800078e:	607a      	str	r2, [r7, #4]
  uint32_t PriorityGroupTmp = (PriorityGroup & (uint32_t)0x07UL);   /* only values 0..7 are used          */
 8000790:	68fb      	ldr	r3, [r7, #12]
 8000792:	f003 0307 	and.w	r3, r3, #7
 8000796:	61fb      	str	r3, [r7, #28]
  uint32_t PreemptPriorityBits;
  uint32_t SubPriorityBits;

  PreemptPriorityBits = ((7UL - PriorityGroupTmp) > (uint32_t)(__NVIC_PRIO_BITS)) ? (uint32_t)(__NVIC_PRIO_BITS) : (uint32_t)(7UL - PriorityGroupTmp);
 8000798:	69fb      	ldr	r3, [r7, #28]
 800079a:	f1c3 0307 	rsb	r3, r3, #7
 800079e:	2b04      	cmp	r3, #4
 80007a0:	bf28      	it	cs
 80007a2:	2304      	movcs	r3, #4
 80007a4:	61bb      	str	r3, [r7, #24]
  SubPriorityBits     = ((PriorityGroupTmp + (uint32_t)(__NVIC_PRIO_BITS)) < (uint32_t)7UL) ? (uint32_t)0UL : (uint32_t)((PriorityGroupTmp - 7UL) + (uint32_t)(__NVIC_PRIO_BITS));
 80007a6:	69fb      	ldr	r3, [r7, #28]
 80007a8:	3304      	adds	r3, #4
 80007aa:	2b06      	cmp	r3, #6
 80007ac:	d902      	bls.n	80007b4 <NVIC_EncodePriority+0x30>
 80007ae:	69fb      	ldr	r3, [r7, #28]
 80007b0:	3b03      	subs	r3, #3
 80007b2:	e000      	b.n	80007b6 <NVIC_EncodePriority+0x32>
 80007b4:	2300      	movs	r3, #0
 80007b6:	617b      	str	r3, [r7, #20]

  return (
           ((PreemptPriority & (uint32_t)((1UL << (PreemptPriorityBits)) - 1UL)) << SubPriorityBits) |
 80007b8:	f04f 32ff 	mov.w	r2, #4294967295
 80007bc:	69bb      	ldr	r3, [r7, #24]
 80007be:	fa02 f303 	lsl.w	r3, r2, r3
 80007c2:	43da      	mvns	r2, r3
 80007c4:	68bb      	ldr	r3, [r7, #8]
 80007c6:	401a      	ands	r2, r3
 80007c8:	697b      	ldr	r3, [r7, #20]
 80007ca:	409a      	lsls	r2, r3
           ((SubPriority     & (uint32_t)((1UL << (SubPriorityBits    )) - 1UL)))
 80007cc:	f04f 31ff 	mov.w	r1, #4294967295
 80007d0:	697b      	ldr	r3, [r7, #20]
 80007d2:	fa01 f303 	lsl.w	r3, r1, r3
 80007d6:	43d9      	mvns	r1, r3
 80007d8:	687b      	ldr	r3, [r7, #4]
 80007da:	400b      	ands	r3, r1
           ((PreemptPriority & (uint32_t)((1UL << (PreemptPriorityBits)) - 1UL)) << SubPriorityBits) |
 80007dc:	4313      	orrs	r3, r2
         );
}
 80007de:	4618      	mov	r0, r3
 80007e0:	3724      	adds	r7, #36	@ 0x24
 80007e2:	46bd      	mov	sp, r7
 80007e4:	f85d 7b04 	ldr.w	r7, [sp], #4
 80007e8:	4770      	bx	lr
	...

080007ec <SysTick_Config>:
  \note    When the variable <b>__Vendor_SysTickConfig</b> is set to 1, then the
           function <b>SysTick_Config</b> is not included. In this case, the file <b><i>device</i>.h</b>
           must contain a vendor-specific implementation of this function.
 */
__STATIC_INLINE uint32_t SysTick_Config(uint32_t ticks)
{
 80007ec:	b580      	push	{r7, lr}
 80007ee:	b082      	sub	sp, #8
 80007f0:	af00      	add	r7, sp, #0
 80007f2:	6078      	str	r0, [r7, #4]
  if ((ticks - 1UL) > SysTick_LOAD_RELOAD_Msk)
 80007f4:	687b      	ldr	r3, [r7, #4]
 80007f6:	3b01      	subs	r3, #1
 80007f8:	f1b3 7f80 	cmp.w	r3, #16777216	@ 0x1000000
 80007fc:	d301      	bcc.n	8000802 <SysTick_Config+0x16>
  {
    return (1UL);                                                   /* Reload value impossible */
 80007fe:	2301      	movs	r3, #1
 8000800:	e00f      	b.n	8000822 <SysTick_Config+0x36>
  }

  SysTick->LOAD  = (uint32_t)(ticks - 1UL);                         /* set reload register */
 8000802:	4a0a      	ldr	r2, [pc, #40]	@ (800082c <SysTick_Config+0x40>)
 8000804:	687b      	ldr	r3, [r7, #4]
 8000806:	3b01      	subs	r3, #1
 8000808:	6053      	str	r3, [r2, #4]
  NVIC_SetPriority (SysTick_IRQn, (1UL << __NVIC_PRIO_BITS) - 1UL); /* set Priority for Systick Interrupt */
 800080a:	210f      	movs	r1, #15
 800080c:	f04f 30ff 	mov.w	r0, #4294967295
 8000810:	f7ff ff8e 	bl	8000730 <__NVIC_SetPriority>
  SysTick->VAL   = 0UL;                                             /* Load the SysTick Counter Value */
 8000814:	4b05      	ldr	r3, [pc, #20]	@ (800082c <SysTick_Config+0x40>)
 8000816:	2200      	movs	r2, #0
 8000818:	609a      	str	r2, [r3, #8]
  SysTick->CTRL  = SysTick_CTRL_CLKSOURCE_Msk |
 800081a:	4b04      	ldr	r3, [pc, #16]	@ (800082c <SysTick_Config+0x40>)
 800081c:	2207      	movs	r2, #7
 800081e:	601a      	str	r2, [r3, #0]
                   SysTick_CTRL_TICKINT_Msk   |
                   SysTick_CTRL_ENABLE_Msk;                         /* Enable SysTick IRQ and SysTick Timer */
  return (0UL);                                                     /* Function successful */
 8000820:	2300      	movs	r3, #0
}
 8000822:	4618      	mov	r0, r3
 8000824:	3708      	adds	r7, #8
 8000826:	46bd      	mov	sp, r7
 8000828:	bd80      	pop	{r7, pc}
 800082a:	bf00      	nop
 800082c:	e000e010 	.word	0xe000e010

08000830 <HAL_NVIC_SetPriorityGrouping>:
  * @note   When the NVIC_PriorityGroup_0 is selected, IRQ pre-emption is no more possible.
  *         The pending IRQ priority will be managed only by the subpriority.
  * @retval None
  */
void HAL_NVIC_SetPriorityGrouping(uint32_t PriorityGroup)
{
 8000830:	b580      	push	{r7, lr}
 8000832:	b082      	sub	sp, #8
 8000834:	af00      	add	r7, sp, #0
 8000836:	6078      	str	r0, [r7, #4]
  /* Check the parameters */
  assert_param(IS_NVIC_PRIORITY_GROUP(PriorityGroup));

  /* Set the PRIGROUP[10:8] bits according to the PriorityGroup parameter value */
  NVIC_SetPriorityGrouping(PriorityGroup);
 8000838:	6878      	ldr	r0, [r7, #4]
 800083a:	f7ff ff47 	bl	80006cc <__NVIC_SetPriorityGrouping>
}
 800083e:	bf00      	nop
 8000840:	3708      	adds	r7, #8
 8000842:	46bd      	mov	sp, r7
 8000844:	bd80      	pop	{r7, pc}

08000846 <HAL_NVIC_SetPriority>:
  *         This parameter can be a value between 0 and 15
  *         A lower priority value indicates a higher priority.
  * @retval None
  */
void HAL_NVIC_SetPriority(IRQn_Type IRQn, uint32_t PreemptPriority, uint32_t SubPriority)
{
 8000846:	b580      	push	{r7, lr}
 8000848:	b086      	sub	sp, #24
 800084a:	af00      	add	r7, sp, #0
 800084c:	4603      	mov	r3, r0
 800084e:	60b9      	str	r1, [r7, #8]
 8000850:	607a      	str	r2, [r7, #4]
 8000852:	73fb      	strb	r3, [r7, #15]
  uint32_t prioritygroup = 0x00;
 8000854:	2300      	movs	r3, #0
 8000856:	617b      	str	r3, [r7, #20]

  /* Check the parameters */
  assert_param(IS_NVIC_SUB_PRIORITY(SubPriority));
  assert_param(IS_NVIC_PREEMPTION_PRIORITY(PreemptPriority));

  prioritygroup = NVIC_GetPriorityGrouping();
 8000858:	f7ff ff5c 	bl	8000714 <__NVIC_GetPriorityGrouping>
 800085c:	6178      	str	r0, [r7, #20]

  NVIC_SetPriority(IRQn, NVIC_EncodePriority(prioritygroup, PreemptPriority, SubPriority));
 800085e:	687a      	ldr	r2, [r7, #4]
 8000860:	68b9      	ldr	r1, [r7, #8]
 8000862:	6978      	ldr	r0, [r7, #20]
 8000864:	f7ff ff8e 	bl	8000784 <NVIC_EncodePriority>
 8000868:	4602      	mov	r2, r0
 800086a:	f997 300f 	ldrsb.w	r3, [r7, #15]
 800086e:	4611      	mov	r1, r2
 8000870:	4618      	mov	r0, r3
 8000872:	f7ff ff5d 	bl	8000730 <__NVIC_SetPriority>
}
 8000876:	bf00      	nop
 8000878:	3718      	adds	r7, #24
 800087a:	46bd      	mov	sp, r7
 800087c:	bd80      	pop	{r7, pc}

0800087e <HAL_SYSTICK_Config>:
  * @param  TicksNumb: Specifies the ticks Number of ticks between two interrupts.
  * @retval status:  - 0  Function succeeded.
  *                  - 1  Function failed.
  */
uint32_t HAL_SYSTICK_Config(uint32_t TicksNumb)
{
 800087e:	b580      	push	{r7, lr}
 8000880:	b082      	sub	sp, #8
 8000882:	af00      	add	r7, sp, #0
 8000884:	6078      	str	r0, [r7, #4]
   return SysTick_Config(TicksNumb);
 8000886:	6878      	ldr	r0, [r7, #4]
 8000888:	f7ff ffb0 	bl	80007ec <SysTick_Config>
 800088c:	4603      	mov	r3, r0
}
 800088e:	4618      	mov	r0, r3
 8000890:	3708      	adds	r7, #8
 8000892:	46bd      	mov	sp, r7
 8000894:	bd80      	pop	{r7, pc}
	...

08000898 <HAL_GPIO_Init>:
  * @param  GPIO_Init pointer to a GPIO_InitTypeDef structure that contains
  *         the configuration information for the specified GPIO peripheral.
  * @retval None
  */
void HAL_GPIO_Init(GPIO_TypeDef  *GPIOx, GPIO_InitTypeDef *GPIO_Init)
{
 8000898:	b480      	push	{r7}
 800089a:	b087      	sub	sp, #28
 800089c:	af00      	add	r7, sp, #0
 800089e:	6078      	str	r0, [r7, #4]
 80008a0:	6039      	str	r1, [r7, #0]
  uint32_t position = 0x00u;
 80008a2:	2300      	movs	r3, #0
 80008a4:	617b      	str	r3, [r7, #20]
  assert_param(IS_GPIO_ALL_INSTANCE(GPIOx));
  assert_param(IS_GPIO_PIN(GPIO_Init->Pin));
  assert_param(IS_GPIO_MODE(GPIO_Init->Mode));

  /* Configure the port pins */
  while (((GPIO_Init->Pin) >> position) != 0x00u)
 80008a6:	e148      	b.n	8000b3a <HAL_GPIO_Init+0x2a2>
  {
    /* Get current io position */
    iocurrent = (GPIO_Init->Pin) & (1uL << position);
 80008a8:	683b      	ldr	r3, [r7, #0]
 80008aa:	681a      	ldr	r2, [r3, #0]
 80008ac:	2101      	movs	r1, #1
 80008ae:	697b      	ldr	r3, [r7, #20]
 80008b0:	fa01 f303 	lsl.w	r3, r1, r3
 80008b4:	4013      	ands	r3, r2
 80008b6:	60fb      	str	r3, [r7, #12]

    if (iocurrent != 0x00u)
 80008b8:	68fb      	ldr	r3, [r7, #12]
 80008ba:	2b00      	cmp	r3, #0
 80008bc:	f000 813a 	beq.w	8000b34 <HAL_GPIO_Init+0x29c>
    {
      /*--------------------- GPIO Mode Configuration ------------------------*/
      /* In case of Output or Alternate function mode selection */
      if (((GPIO_Init->Mode & GPIO_MODE) == MODE_OUTPUT) || ((GPIO_Init->Mode & GPIO_MODE) == MODE_AF))
 80008c0:	683b      	ldr	r3, [r7, #0]
 80008c2:	685b      	ldr	r3, [r3, #4]
 80008c4:	f003 0303 	and.w	r3, r3, #3
 80008c8:	2b01      	cmp	r3, #1
 80008ca:	d005      	beq.n	80008d8 <HAL_GPIO_Init+0x40>
 80008cc:	683b      	ldr	r3, [r7, #0]
 80008ce:	685b      	ldr	r3, [r3, #4]
 80008d0:	f003 0303 	and.w	r3, r3, #3
 80008d4:	2b02      	cmp	r3, #2
 80008d6:	d130      	bne.n	800093a <HAL_GPIO_Init+0xa2>
      {
        /* Check the Speed parameter */
        assert_param(IS_GPIO_SPEED(GPIO_Init->Speed));

        /* Configure the IO Speed */
        temp = GPIOx->OSPEEDR;
 80008d8:	687b      	ldr	r3, [r7, #4]
 80008da:	689b      	ldr	r3, [r3, #8]
 80008dc:	613b      	str	r3, [r7, #16]
        temp &= ~(GPIO_OSPEEDR_OSPEED0 << (position * 2u));
 80008de:	697b      	ldr	r3, [r7, #20]
 80008e0:	005b      	lsls	r3, r3, #1
 80008e2:	2203      	movs	r2, #3
 80008e4:	fa02 f303 	lsl.w	r3, r2, r3
 80008e8:	43db      	mvns	r3, r3
 80008ea:	693a      	ldr	r2, [r7, #16]
 80008ec:	4013      	ands	r3, r2
 80008ee:	613b      	str	r3, [r7, #16]
        temp |= (GPIO_Init->Speed << (position * 2u));
 80008f0:	683b      	ldr	r3, [r7, #0]
 80008f2:	68da      	ldr	r2, [r3, #12]
 80008f4:	697b      	ldr	r3, [r7, #20]
 80008f6:	005b      	lsls	r3, r3, #1
 80008f8:	fa02 f303 	lsl.w	r3, r2, r3
 80008fc:	693a      	ldr	r2, [r7, #16]
 80008fe:	4313      	orrs	r3, r2
 8000900:	613b      	str	r3, [r7, #16]
        GPIOx->OSPEEDR = temp;
 8000902:	687b      	ldr	r3, [r7, #4]
 8000904:	693a      	ldr	r2, [r7, #16]
 8000906:	609a      	str	r2, [r3, #8]

        /* Configure the IO Output Type */
        temp = GPIOx->OTYPER;
 8000908:	687b      	ldr	r3, [r7, #4]
 800090a:	685b      	ldr	r3, [r3, #4]
 800090c:	613b      	str	r3, [r7, #16]
        temp &= ~(GPIO_OTYPER_OT0 << position) ;
 800090e:	2201      	movs	r2, #1
 8000910:	697b      	ldr	r3, [r7, #20]
 8000912:	fa02 f303 	lsl.w	r3, r2, r3
 8000916:	43db      	mvns	r3, r3
 8000918:	693a      	ldr	r2, [r7, #16]
 800091a:	4013      	ands	r3, r2
 800091c:	613b      	str	r3, [r7, #16]
        temp |= (((GPIO_Init->Mode & OUTPUT_TYPE) >> OUTPUT_TYPE_Pos) << position);
 800091e:	683b      	ldr	r3, [r7, #0]
 8000920:	685b      	ldr	r3, [r3, #4]
 8000922:	091b      	lsrs	r3, r3, #4
 8000924:	f003 0201 	and.w	r2, r3, #1
 8000928:	697b      	ldr	r3, [r7, #20]
 800092a:	fa02 f303 	lsl.w	r3, r2, r3
 800092e:	693a      	ldr	r2, [r7, #16]
 8000930:	4313      	orrs	r3, r2
 8000932:	613b      	str	r3, [r7, #16]
        GPIOx->OTYPER = temp;
 8000934:	687b      	ldr	r3, [r7, #4]
 8000936:	693a      	ldr	r2, [r7, #16]
 8000938:	605a      	str	r2, [r3, #4]
      }

#endif /* STM32L471xx || STM32L475xx || STM32L476xx || STM32L485xx || STM32L486xx */

      /* Activate the Pull-up or Pull down resistor for the current IO */
      if ((GPIO_Init->Mode & GPIO_MODE) != MODE_ANALOG)
 800093a:	683b      	ldr	r3, [r7, #0]
 800093c:	685b      	ldr	r3, [r3, #4]
 800093e:	f003 0303 	and.w	r3, r3, #3
 8000942:	2b03      	cmp	r3, #3
 8000944:	d017      	beq.n	8000976 <HAL_GPIO_Init+0xde>
      {
        /* Check the Pull parameter */
        assert_param(IS_GPIO_PULL(GPIO_Init->Pull));

        temp = GPIOx->PUPDR;
 8000946:	687b      	ldr	r3, [r7, #4]
 8000948:	68db      	ldr	r3, [r3, #12]
 800094a:	613b      	str	r3, [r7, #16]
        temp &= ~(GPIO_PUPDR_PUPD0 << (position * 2U));
 800094c:	697b      	ldr	r3, [r7, #20]
 800094e:	005b      	lsls	r3, r3, #1
 8000950:	2203      	movs	r2, #3
 8000952:	fa02 f303 	lsl.w	r3, r2, r3
 8000956:	43db      	mvns	r3, r3
 8000958:	693a      	ldr	r2, [r7, #16]
 800095a:	4013      	ands	r3, r2
 800095c:	613b      	str	r3, [r7, #16]
        temp |= ((GPIO_Init->Pull) << (position * 2U));
 800095e:	683b      	ldr	r3, [r7, #0]
 8000960:	689a      	ldr	r2, [r3, #8]
 8000962:	697b      	ldr	r3, [r7, #20]
 8000964:	005b      	lsls	r3, r3, #1
 8000966:	fa02 f303 	lsl.w	r3, r2, r3
 800096a:	693a      	ldr	r2, [r7, #16]
 800096c:	4313      	orrs	r3, r2
 800096e:	613b      	str	r3, [r7, #16]
        GPIOx->PUPDR = temp;
 8000970:	687b      	ldr	r3, [r7, #4]
 8000972:	693a      	ldr	r2, [r7, #16]
 8000974:	60da      	str	r2, [r3, #12]
      }

      /* In case of Alternate function mode selection */
      if ((GPIO_Init->Mode & GPIO_MODE) == MODE_AF)
 8000976:	683b      	ldr	r3, [r7, #0]
 8000978:	685b      	ldr	r3, [r3, #4]
 800097a:	f003 0303 	and.w	r3, r3, #3
 800097e:	2b02      	cmp	r3, #2
 8000980:	d123      	bne.n	80009ca <HAL_GPIO_Init+0x132>
        /* Check the Alternate function parameters */
        assert_param(IS_GPIO_AF_INSTANCE(GPIOx));
        assert_param(IS_GPIO_AF(GPIO_Init->Alternate));

        /* Configure Alternate function mapped with the current IO */
        temp = GPIOx->AFR[position >> 3u];
 8000982:	697b      	ldr	r3, [r7, #20]
 8000984:	08da      	lsrs	r2, r3, #3
 8000986:	687b      	ldr	r3, [r7, #4]
 8000988:	3208      	adds	r2, #8
 800098a:	f853 3022 	ldr.w	r3, [r3, r2, lsl #2]
 800098e:	613b      	str	r3, [r7, #16]
        temp &= ~(0xFul << ((position & 0x07u) * 4u));
 8000990:	697b      	ldr	r3, [r7, #20]
 8000992:	f003 0307 	and.w	r3, r3, #7
 8000996:	009b      	lsls	r3, r3, #2
 8000998:	220f      	movs	r2, #15
 800099a:	fa02 f303 	lsl.w	r3, r2, r3
 800099e:	43db      	mvns	r3, r3
 80009a0:	693a      	ldr	r2, [r7, #16]
 80009a2:	4013      	ands	r3, r2
 80009a4:	613b      	str	r3, [r7, #16]
        temp |= ((GPIO_Init->Alternate) << ((position & 0x07u) * 4u));
 80009a6:	683b      	ldr	r3, [r7, #0]
 80009a8:	691a      	ldr	r2, [r3, #16]
 80009aa:	697b      	ldr	r3, [r7, #20]
 80009ac:	f003 0307 	and.w	r3, r3, #7
 80009b0:	009b      	lsls	r3, r3, #2
 80009b2:	fa02 f303 	lsl.w	r3, r2, r3
 80009b6:	693a      	ldr	r2, [r7, #16]
 80009b8:	4313      	orrs	r3, r2
 80009ba:	613b      	str	r3, [r7, #16]
        GPIOx->AFR[position >> 3u] = temp;
 80009bc:	697b      	ldr	r3, [r7, #20]
 80009be:	08da      	lsrs	r2, r3, #3
 80009c0:	687b      	ldr	r3, [r7, #4]
 80009c2:	3208      	adds	r2, #8
 80009c4:	6939      	ldr	r1, [r7, #16]
 80009c6:	f843 1022 	str.w	r1, [r3, r2, lsl #2]
      }

      /* Configure IO Direction mode (Input, Output, Alternate or Analog) */
      temp = GPIOx->MODER;
 80009ca:	687b      	ldr	r3, [r7, #4]
 80009cc:	681b      	ldr	r3, [r3, #0]
 80009ce:	613b      	str	r3, [r7, #16]
      temp &= ~(GPIO_MODER_MODE0 << (position * 2u));
 80009d0:	697b      	ldr	r3, [r7, #20]
 80009d2:	005b      	lsls	r3, r3, #1
 80009d4:	2203      	movs	r2, #3
 80009d6:	fa02 f303 	lsl.w	r3, r2, r3
 80009da:	43db      	mvns	r3, r3
 80009dc:	693a      	ldr	r2, [r7, #16]
 80009de:	4013      	ands	r3, r2
 80009e0:	613b      	str	r3, [r7, #16]
      temp |= ((GPIO_Init->Mode & GPIO_MODE) << (position * 2u));
 80009e2:	683b      	ldr	r3, [r7, #0]
 80009e4:	685b      	ldr	r3, [r3, #4]
 80009e6:	f003 0203 	and.w	r2, r3, #3
 80009ea:	697b      	ldr	r3, [r7, #20]
 80009ec:	005b      	lsls	r3, r3, #1
 80009ee:	fa02 f303 	lsl.w	r3, r2, r3
 80009f2:	693a      	ldr	r2, [r7, #16]
 80009f4:	4313      	orrs	r3, r2
 80009f6:	613b      	str	r3, [r7, #16]
      GPIOx->MODER = temp;
 80009f8:	687b      	ldr	r3, [r7, #4]
 80009fa:	693a      	ldr	r2, [r7, #16]
 80009fc:	601a      	str	r2, [r3, #0]

      /*--------------------- EXTI Mode Configuration ------------------------*/
      /* Configure the External Interrupt or event for the current IO */
      if ((GPIO_Init->Mode & EXTI_MODE) != 0x00u)
 80009fe:	683b      	ldr	r3, [r7, #0]
 8000a00:	685b      	ldr	r3, [r3, #4]
 8000a02:	f403 3340 	and.w	r3, r3, #196608	@ 0x30000
 8000a06:	2b00      	cmp	r3, #0
 8000a08:	f000 8094 	beq.w	8000b34 <HAL_GPIO_Init+0x29c>
      {
        /* Enable SYSCFG Clock */
        __HAL_RCC_SYSCFG_CLK_ENABLE();
 8000a0c:	4b52      	ldr	r3, [pc, #328]	@ (8000b58 <HAL_GPIO_Init+0x2c0>)
 8000a0e:	6e1b      	ldr	r3, [r3, #96]	@ 0x60
 8000a10:	4a51      	ldr	r2, [pc, #324]	@ (8000b58 <HAL_GPIO_Init+0x2c0>)
 8000a12:	f043 0301 	orr.w	r3, r3, #1
 8000a16:	6613      	str	r3, [r2, #96]	@ 0x60
 8000a18:	4b4f      	ldr	r3, [pc, #316]	@ (8000b58 <HAL_GPIO_Init+0x2c0>)
 8000a1a:	6e1b      	ldr	r3, [r3, #96]	@ 0x60
 8000a1c:	f003 0301 	and.w	r3, r3, #1
 8000a20:	60bb      	str	r3, [r7, #8]
 8000a22:	68bb      	ldr	r3, [r7, #8]

        temp = SYSCFG->EXTICR[position >> 2u];
 8000a24:	4a4d      	ldr	r2, [pc, #308]	@ (8000b5c <HAL_GPIO_Init+0x2c4>)
 8000a26:	697b      	ldr	r3, [r7, #20]
 8000a28:	089b      	lsrs	r3, r3, #2
 8000a2a:	3302      	adds	r3, #2
 8000a2c:	f852 3023 	ldr.w	r3, [r2, r3, lsl #2]
 8000a30:	613b      	str	r3, [r7, #16]
        temp &= ~(0x0FuL << (4u * (position & 0x03u)));
 8000a32:	697b      	ldr	r3, [r7, #20]
 8000a34:	f003 0303 	and.w	r3, r3, #3
 8000a38:	009b      	lsls	r3, r3, #2
 8000a3a:	220f      	movs	r2, #15
 8000a3c:	fa02 f303 	lsl.w	r3, r2, r3
 8000a40:	43db      	mvns	r3, r3
 8000a42:	693a      	ldr	r2, [r7, #16]
 8000a44:	4013      	ands	r3, r2
 8000a46:	613b      	str	r3, [r7, #16]
        temp |= (GPIO_GET_INDEX(GPIOx) << (4u * (position & 0x03u)));
 8000a48:	687b      	ldr	r3, [r7, #4]
 8000a4a:	f1b3 4f90 	cmp.w	r3, #1207959552	@ 0x48000000
 8000a4e:	d00d      	beq.n	8000a6c <HAL_GPIO_Init+0x1d4>
 8000a50:	687b      	ldr	r3, [r7, #4]
 8000a52:	4a43      	ldr	r2, [pc, #268]	@ (8000b60 <HAL_GPIO_Init+0x2c8>)
 8000a54:	4293      	cmp	r3, r2
 8000a56:	d007      	beq.n	8000a68 <HAL_GPIO_Init+0x1d0>
 8000a58:	687b      	ldr	r3, [r7, #4]
 8000a5a:	4a42      	ldr	r2, [pc, #264]	@ (8000b64 <HAL_GPIO_Init+0x2cc>)
 8000a5c:	4293      	cmp	r3, r2
 8000a5e:	d101      	bne.n	8000a64 <HAL_GPIO_Init+0x1cc>
 8000a60:	2302      	movs	r3, #2
 8000a62:	e004      	b.n	8000a6e <HAL_GPIO_Init+0x1d6>
 8000a64:	2307      	movs	r3, #7
 8000a66:	e002      	b.n	8000a6e <HAL_GPIO_Init+0x1d6>
 8000a68:	2301      	movs	r3, #1
 8000a6a:	e000      	b.n	8000a6e <HAL_GPIO_Init+0x1d6>
 8000a6c:	2300      	movs	r3, #0
 8000a6e:	697a      	ldr	r2, [r7, #20]
 8000a70:	f002 0203 	and.w	r2, r2, #3
 8000a74:	0092      	lsls	r2, r2, #2
 8000a76:	4093      	lsls	r3, r2
 8000a78:	693a      	ldr	r2, [r7, #16]
 8000a7a:	4313      	orrs	r3, r2
 8000a7c:	613b      	str	r3, [r7, #16]
        SYSCFG->EXTICR[position >> 2u] = temp;
 8000a7e:	4937      	ldr	r1, [pc, #220]	@ (8000b5c <HAL_GPIO_Init+0x2c4>)
 8000a80:	697b      	ldr	r3, [r7, #20]
 8000a82:	089b      	lsrs	r3, r3, #2
 8000a84:	3302      	adds	r3, #2
 8000a86:	693a      	ldr	r2, [r7, #16]
 8000a88:	f841 2023 	str.w	r2, [r1, r3, lsl #2]

        /* Clear Rising Falling edge configuration */
        temp = EXTI->RTSR1;
 8000a8c:	4b36      	ldr	r3, [pc, #216]	@ (8000b68 <HAL_GPIO_Init+0x2d0>)
 8000a8e:	689b      	ldr	r3, [r3, #8]
 8000a90:	613b      	str	r3, [r7, #16]
        temp &= ~(iocurrent);
 8000a92:	68fb      	ldr	r3, [r7, #12]
 8000a94:	43db      	mvns	r3, r3
 8000a96:	693a      	ldr	r2, [r7, #16]
 8000a98:	4013      	ands	r3, r2
 8000a9a:	613b      	str	r3, [r7, #16]
        if ((GPIO_Init->Mode & TRIGGER_RISING) != 0x00u)
 8000a9c:	683b      	ldr	r3, [r7, #0]
 8000a9e:	685b      	ldr	r3, [r3, #4]
 8000aa0:	f403 1380 	and.w	r3, r3, #1048576	@ 0x100000
 8000aa4:	2b00      	cmp	r3, #0
 8000aa6:	d003      	beq.n	8000ab0 <HAL_GPIO_Init+0x218>
        {
          temp |= iocurrent;
 8000aa8:	693a      	ldr	r2, [r7, #16]
 8000aaa:	68fb      	ldr	r3, [r7, #12]
 8000aac:	4313      	orrs	r3, r2
 8000aae:	613b      	str	r3, [r7, #16]
        }
        EXTI->RTSR1 = temp;
 8000ab0:	4a2d      	ldr	r2, [pc, #180]	@ (8000b68 <HAL_GPIO_Init+0x2d0>)
 8000ab2:	693b      	ldr	r3, [r7, #16]
 8000ab4:	6093      	str	r3, [r2, #8]

        temp = EXTI->FTSR1;
 8000ab6:	4b2c      	ldr	r3, [pc, #176]	@ (8000b68 <HAL_GPIO_Init+0x2d0>)
 8000ab8:	68db      	ldr	r3, [r3, #12]
 8000aba:	613b      	str	r3, [r7, #16]
        temp &= ~(iocurrent);
 8000abc:	68fb      	ldr	r3, [r7, #12]
 8000abe:	43db      	mvns	r3, r3
 8000ac0:	693a      	ldr	r2, [r7, #16]
 8000ac2:	4013      	ands	r3, r2
 8000ac4:	613b      	str	r3, [r7, #16]
        if ((GPIO_Init->Mode & TRIGGER_FALLING) != 0x00u)
 8000ac6:	683b      	ldr	r3, [r7, #0]
 8000ac8:	685b      	ldr	r3, [r3, #4]
 8000aca:	f403 1300 	and.w	r3, r3, #2097152	@ 0x200000
 8000ace:	2b00      	cmp	r3, #0
 8000ad0:	d003      	beq.n	8000ada <HAL_GPIO_Init+0x242>
        {
          temp |= iocurrent;
 8000ad2:	693a      	ldr	r2, [r7, #16]
 8000ad4:	68fb      	ldr	r3, [r7, #12]
 8000ad6:	4313      	orrs	r3, r2
 8000ad8:	613b      	str	r3, [r7, #16]
        }
        EXTI->FTSR1 = temp;
 8000ada:	4a23      	ldr	r2, [pc, #140]	@ (8000b68 <HAL_GPIO_Init+0x2d0>)
 8000adc:	693b      	ldr	r3, [r7, #16]
 8000ade:	60d3      	str	r3, [r2, #12]

        /* Clear EXTI line configuration */
        temp = EXTI->EMR1;
 8000ae0:	4b21      	ldr	r3, [pc, #132]	@ (8000b68 <HAL_GPIO_Init+0x2d0>)
 8000ae2:	685b      	ldr	r3, [r3, #4]
 8000ae4:	613b      	str	r3, [r7, #16]
        temp &= ~(iocurrent);
 8000ae6:	68fb      	ldr	r3, [r7, #12]
 8000ae8:	43db      	mvns	r3, r3
 8000aea:	693a      	ldr	r2, [r7, #16]
 8000aec:	4013      	ands	r3, r2
 8000aee:	613b      	str	r3, [r7, #16]
        if ((GPIO_Init->Mode & EXTI_EVT) != 0x00u)
 8000af0:	683b      	ldr	r3, [r7, #0]
 8000af2:	685b      	ldr	r3, [r3, #4]
 8000af4:	f403 3300 	and.w	r3, r3, #131072	@ 0x20000
 8000af8:	2b00      	cmp	r3, #0
 8000afa:	d003      	beq.n	8000b04 <HAL_GPIO_Init+0x26c>
        {
          temp |= iocurrent;
 8000afc:	693a      	ldr	r2, [r7, #16]
 8000afe:	68fb      	ldr	r3, [r7, #12]
 8000b00:	4313      	orrs	r3, r2
 8000b02:	613b      	str	r3, [r7, #16]
        }
        EXTI->EMR1 = temp;
 8000b04:	4a18      	ldr	r2, [pc, #96]	@ (8000b68 <HAL_GPIO_Init+0x2d0>)
 8000b06:	693b      	ldr	r3, [r7, #16]
 8000b08:	6053      	str	r3, [r2, #4]

        temp = EXTI->IMR1;
 8000b0a:	4b17      	ldr	r3, [pc, #92]	@ (8000b68 <HAL_GPIO_Init+0x2d0>)
 8000b0c:	681b      	ldr	r3, [r3, #0]
 8000b0e:	613b      	str	r3, [r7, #16]
        temp &= ~(iocurrent);
 8000b10:	68fb      	ldr	r3, [r7, #12]
 8000b12:	43db      	mvns	r3, r3
 8000b14:	693a      	ldr	r2, [r7, #16]
 8000b16:	4013      	ands	r3, r2
 8000b18:	613b      	str	r3, [r7, #16]
        if ((GPIO_Init->Mode & EXTI_IT) != 0x00u)
 8000b1a:	683b      	ldr	r3, [r7, #0]
 8000b1c:	685b      	ldr	r3, [r3, #4]
 8000b1e:	f403 3380 	and.w	r3, r3, #65536	@ 0x10000
 8000b22:	2b00      	cmp	r3, #0
 8000b24:	d003      	beq.n	8000b2e <HAL_GPIO_Init+0x296>
        {
          temp |= iocurrent;
 8000b26:	693a      	ldr	r2, [r7, #16]
 8000b28:	68fb      	ldr	r3, [r7, #12]
 8000b2a:	4313      	orrs	r3, r2
 8000b2c:	613b      	str	r3, [r7, #16]
        }
        EXTI->IMR1 = temp;
 8000b2e:	4a0e      	ldr	r2, [pc, #56]	@ (8000b68 <HAL_GPIO_Init+0x2d0>)
 8000b30:	693b      	ldr	r3, [r7, #16]
 8000b32:	6013      	str	r3, [r2, #0]
      }
    }

    position++;
 8000b34:	697b      	ldr	r3, [r7, #20]
 8000b36:	3301      	adds	r3, #1
 8000b38:	617b      	str	r3, [r7, #20]
  while (((GPIO_Init->Pin) >> position) != 0x00u)
 8000b3a:	683b      	ldr	r3, [r7, #0]
 8000b3c:	681a      	ldr	r2, [r3, #0]
 8000b3e:	697b      	ldr	r3, [r7, #20]
 8000b40:	fa22 f303 	lsr.w	r3, r2, r3
 8000b44:	2b00      	cmp	r3, #0
 8000b46:	f47f aeaf 	bne.w	80008a8 <HAL_GPIO_Init+0x10>
  }
}
 8000b4a:	bf00      	nop
 8000b4c:	bf00      	nop
 8000b4e:	371c      	adds	r7, #28
 8000b50:	46bd      	mov	sp, r7
 8000b52:	f85d 7b04 	ldr.w	r7, [sp], #4
 8000b56:	4770      	bx	lr
 8000b58:	40021000 	.word	0x40021000
 8000b5c:	40010000 	.word	0x40010000
 8000b60:	48000400 	.word	0x48000400
 8000b64:	48000800 	.word	0x48000800
 8000b68:	40010400 	.word	0x40010400

08000b6c <HAL_PWREx_GetVoltageRange>:
  * @brief Return Voltage Scaling Range.
  * @retval VOS bit field (PWR_REGULATOR_VOLTAGE_SCALE1 or PWR_REGULATOR_VOLTAGE_SCALE2
  *         or PWR_REGULATOR_VOLTAGE_SCALE1_BOOST when applicable)
  */
uint32_t HAL_PWREx_GetVoltageRange(void)
{
 8000b6c:	b480      	push	{r7}
 8000b6e:	af00      	add	r7, sp, #0
    else
    {
      return PWR_REGULATOR_VOLTAGE_SCALE1_BOOST;
    }
#else
  return  (PWR->CR1 & PWR_CR1_VOS);
 8000b70:	4b04      	ldr	r3, [pc, #16]	@ (8000b84 <HAL_PWREx_GetVoltageRange+0x18>)
 8000b72:	681b      	ldr	r3, [r3, #0]
 8000b74:	f403 63c0 	and.w	r3, r3, #1536	@ 0x600
#endif
}
 8000b78:	4618      	mov	r0, r3
 8000b7a:	46bd      	mov	sp, r7
 8000b7c:	f85d 7b04 	ldr.w	r7, [sp], #4
 8000b80:	4770      	bx	lr
 8000b82:	bf00      	nop
 8000b84:	40007000 	.word	0x40007000

08000b88 <HAL_PWREx_ControlVoltageScaling>:
  *        cleared before returning the status. If the flag is not cleared within
  *        50 microseconds, HAL_TIMEOUT status is reported.
  * @retval HAL Status
  */
HAL_StatusTypeDef HAL_PWREx_ControlVoltageScaling(uint32_t VoltageScaling)
{
 8000b88:	b480      	push	{r7}
 8000b8a:	b085      	sub	sp, #20
 8000b8c:	af00      	add	r7, sp, #0
 8000b8e:	6078      	str	r0, [r7, #4]
  }

#else

  /* If Set Range 1 */
  if (VoltageScaling == PWR_REGULATOR_VOLTAGE_SCALE1)
 8000b90:	687b      	ldr	r3, [r7, #4]
 8000b92:	f5b3 7f00 	cmp.w	r3, #512	@ 0x200
 8000b96:	d130      	bne.n	8000bfa <HAL_PWREx_ControlVoltageScaling+0x72>
  {
    if (READ_BIT(PWR->CR1, PWR_CR1_VOS) != PWR_REGULATOR_VOLTAGE_SCALE1)
 8000b98:	4b23      	ldr	r3, [pc, #140]	@ (8000c28 <HAL_PWREx_ControlVoltageScaling+0xa0>)
 8000b9a:	681b      	ldr	r3, [r3, #0]
 8000b9c:	f403 63c0 	and.w	r3, r3, #1536	@ 0x600
 8000ba0:	f5b3 7f00 	cmp.w	r3, #512	@ 0x200
 8000ba4:	d038      	beq.n	8000c18 <HAL_PWREx_ControlVoltageScaling+0x90>
    {
      /* Set Range 1 */
      MODIFY_REG(PWR->CR1, PWR_CR1_VOS, PWR_REGULATOR_VOLTAGE_SCALE1);
 8000ba6:	4b20      	ldr	r3, [pc, #128]	@ (8000c28 <HAL_PWREx_ControlVoltageScaling+0xa0>)
 8000ba8:	681b      	ldr	r3, [r3, #0]
 8000baa:	f423 63c0 	bic.w	r3, r3, #1536	@ 0x600
 8000bae:	4a1e      	ldr	r2, [pc, #120]	@ (8000c28 <HAL_PWREx_ControlVoltageScaling+0xa0>)
 8000bb0:	f443 7300 	orr.w	r3, r3, #512	@ 0x200
 8000bb4:	6013      	str	r3, [r2, #0]

      /* Wait until VOSF is cleared */
      wait_loop_index = ((PWR_FLAG_SETTING_DELAY_US * SystemCoreClock) / 1000000U) + 1U;
 8000bb6:	4b1d      	ldr	r3, [pc, #116]	@ (8000c2c <HAL_PWREx_ControlVoltageScaling+0xa4>)
 8000bb8:	681b      	ldr	r3, [r3, #0]
 8000bba:	2232      	movs	r2, #50	@ 0x32
 8000bbc:	fb02 f303 	mul.w	r3, r2, r3
 8000bc0:	4a1b      	ldr	r2, [pc, #108]	@ (8000c30 <HAL_PWREx_ControlVoltageScaling+0xa8>)
 8000bc2:	fba2 2303 	umull	r2, r3, r2, r3
 8000bc6:	0c9b      	lsrs	r3, r3, #18
 8000bc8:	3301      	adds	r3, #1
 8000bca:	60fb      	str	r3, [r7, #12]
      while ((HAL_IS_BIT_SET(PWR->SR2, PWR_SR2_VOSF)) && (wait_loop_index != 0U))
 8000bcc:	e002      	b.n	8000bd4 <HAL_PWREx_ControlVoltageScaling+0x4c>
      {
        wait_loop_index--;
 8000bce:	68fb      	ldr	r3, [r7, #12]
 8000bd0:	3b01      	subs	r3, #1
 8000bd2:	60fb      	str	r3, [r7, #12]
      while ((HAL_IS_BIT_SET(PWR->SR2, PWR_SR2_VOSF)) && (wait_loop_index != 0U))
 8000bd4:	4b14      	ldr	r3, [pc, #80]	@ (8000c28 <HAL_PWREx_ControlVoltageScaling+0xa0>)
 8000bd6:	695b      	ldr	r3, [r3, #20]
 8000bd8:	f403 6380 	and.w	r3, r3, #1024	@ 0x400
 8000bdc:	f5b3 6f80 	cmp.w	r3, #1024	@ 0x400
 8000be0:	d102      	bne.n	8000be8 <HAL_PWREx_ControlVoltageScaling+0x60>
 8000be2:	68fb      	ldr	r3, [r7, #12]
 8000be4:	2b00      	cmp	r3, #0
 8000be6:	d1f2      	bne.n	8000bce <HAL_PWREx_ControlVoltageScaling+0x46>
      }
      if (HAL_IS_BIT_SET(PWR->SR2, PWR_SR2_VOSF))
 8000be8:	4b0f      	ldr	r3, [pc, #60]	@ (8000c28 <HAL_PWREx_ControlVoltageScaling+0xa0>)
 8000bea:	695b      	ldr	r3, [r3, #20]
 8000bec:	f403 6380 	and.w	r3, r3, #1024	@ 0x400
 8000bf0:	f5b3 6f80 	cmp.w	r3, #1024	@ 0x400
 8000bf4:	d110      	bne.n	8000c18 <HAL_PWREx_ControlVoltageScaling+0x90>
      {
        return HAL_TIMEOUT;
 8000bf6:	2303      	movs	r3, #3
 8000bf8:	e00f      	b.n	8000c1a <HAL_PWREx_ControlVoltageScaling+0x92>
      }
    }
  }
  else
  {
    if (READ_BIT(PWR->CR1, PWR_CR1_VOS) != PWR_REGULATOR_VOLTAGE_SCALE2)
 8000bfa:	4b0b      	ldr	r3, [pc, #44]	@ (8000c28 <HAL_PWREx_ControlVoltageScaling+0xa0>)
 8000bfc:	681b      	ldr	r3, [r3, #0]
 8000bfe:	f403 63c0 	and.w	r3, r3, #1536	@ 0x600
 8000c02:	f5b3 6f80 	cmp.w	r3, #1024	@ 0x400
 8000c06:	d007      	beq.n	8000c18 <HAL_PWREx_ControlVoltageScaling+0x90>
    {
      /* Set Range 2 */
      MODIFY_REG(PWR->CR1, PWR_CR1_VOS, PWR_REGULATOR_VOLTAGE_SCALE2);
 8000c08:	4b07      	ldr	r3, [pc, #28]	@ (8000c28 <HAL_PWREx_ControlVoltageScaling+0xa0>)
 8000c0a:	681b      	ldr	r3, [r3, #0]
 8000c0c:	f423 63c0 	bic.w	r3, r3, #1536	@ 0x600
 8000c10:	4a05      	ldr	r2, [pc, #20]	@ (8000c28 <HAL_PWREx_ControlVoltageScaling+0xa0>)
 8000c12:	f443 6380 	orr.w	r3, r3, #1024	@ 0x400
 8000c16:	6013      	str	r3, [r2, #0]
      /* No need to wait for VOSF to be cleared for this transition */
    }
  }
#endif

  return HAL_OK;
 8000c18:	2300      	movs	r3, #0
}
 8000c1a:	4618      	mov	r0, r3
 8000c1c:	3714      	adds	r7, #20
 8000c1e:	46bd      	mov	sp, r7
 8000c20:	f85d 7b04 	ldr.w	r7, [sp], #4
 8000c24:	4770      	bx	lr
 8000c26:	bf00      	nop
 8000c28:	40007000 	.word	0x40007000
 8000c2c:	20000008 	.word	0x20000008
 8000c30:	431bde83 	.word	0x431bde83

08000c34 <HAL_RCC_OscConfig>:
  * @note   If HSE failed to start, HSE should be disabled before recalling
            HAL_RCC_OscConfig().
  * @retval HAL status
  */
HAL_StatusTypeDef HAL_RCC_OscConfig(RCC_OscInitTypeDef  *RCC_OscInitStruct)
{
 8000c34:	b580      	push	{r7, lr}
 8000c36:	b088      	sub	sp, #32
 8000c38:	af00      	add	r7, sp, #0
 8000c3a:	6078      	str	r0, [r7, #4]
  uint32_t tickstart;
  HAL_StatusTypeDef status;
  uint32_t sysclk_source, pll_config;

  /* Check Null pointer */
  if(RCC_OscInitStruct == NULL)
 8000c3c:	687b      	ldr	r3, [r7, #4]
 8000c3e:	2b00      	cmp	r3, #0
 8000c40:	d102      	bne.n	8000c48 <HAL_RCC_OscConfig+0x14>
  {
    return HAL_ERROR;
 8000c42:	2301      	movs	r3, #1
 8000c44:	f000 bc02 	b.w	800144c <HAL_RCC_OscConfig+0x818>
  }

  /* Check the parameters */
  assert_param(IS_RCC_OSCILLATORTYPE(RCC_OscInitStruct->OscillatorType));

  sysclk_source = __HAL_RCC_GET_SYSCLK_SOURCE();
 8000c48:	4b96      	ldr	r3, [pc, #600]	@ (8000ea4 <HAL_RCC_OscConfig+0x270>)
 8000c4a:	689b      	ldr	r3, [r3, #8]
 8000c4c:	f003 030c 	and.w	r3, r3, #12
 8000c50:	61bb      	str	r3, [r7, #24]
  pll_config = __HAL_RCC_GET_PLL_OSCSOURCE();
 8000c52:	4b94      	ldr	r3, [pc, #592]	@ (8000ea4 <HAL_RCC_OscConfig+0x270>)
 8000c54:	68db      	ldr	r3, [r3, #12]
 8000c56:	f003 0303 	and.w	r3, r3, #3
 8000c5a:	617b      	str	r3, [r7, #20]

  /*----------------------------- MSI Configuration --------------------------*/
  if(((RCC_OscInitStruct->OscillatorType) & RCC_OSCILLATORTYPE_MSI) == RCC_OSCILLATORTYPE_MSI)
 8000c5c:	687b      	ldr	r3, [r7, #4]
 8000c5e:	681b      	ldr	r3, [r3, #0]
 8000c60:	f003 0310 	and.w	r3, r3, #16
 8000c64:	2b00      	cmp	r3, #0
 8000c66:	f000 80e4 	beq.w	8000e32 <HAL_RCC_OscConfig+0x1fe>
    assert_param(IS_RCC_MSI(RCC_OscInitStruct->MSIState));
    assert_param(IS_RCC_MSICALIBRATION_VALUE(RCC_OscInitStruct->MSICalibrationValue));
    assert_param(IS_RCC_MSI_CLOCK_RANGE(RCC_OscInitStruct->MSIClockRange));

    /* Check if MSI is used as system clock or as PLL source when PLL is selected as system clock */
    if((sysclk_source == RCC_CFGR_SWS_MSI) ||
 8000c6a:	69bb      	ldr	r3, [r7, #24]
 8000c6c:	2b00      	cmp	r3, #0
 8000c6e:	d007      	beq.n	8000c80 <HAL_RCC_OscConfig+0x4c>
 8000c70:	69bb      	ldr	r3, [r7, #24]
 8000c72:	2b0c      	cmp	r3, #12
 8000c74:	f040 808b 	bne.w	8000d8e <HAL_RCC_OscConfig+0x15a>
       ((sysclk_source == RCC_CFGR_SWS_PLL) && (pll_config == RCC_PLLSOURCE_MSI)))
 8000c78:	697b      	ldr	r3, [r7, #20]
 8000c7a:	2b01      	cmp	r3, #1
 8000c7c:	f040 8087 	bne.w	8000d8e <HAL_RCC_OscConfig+0x15a>
    {
      if((READ_BIT(RCC->CR, RCC_CR_MSIRDY) != 0U) && (RCC_OscInitStruct->MSIState == RCC_MSI_OFF))
 8000c80:	4b88      	ldr	r3, [pc, #544]	@ (8000ea4 <HAL_RCC_OscConfig+0x270>)
 8000c82:	681b      	ldr	r3, [r3, #0]
 8000c84:	f003 0302 	and.w	r3, r3, #2
 8000c88:	2b00      	cmp	r3, #0
 8000c8a:	d005      	beq.n	8000c98 <HAL_RCC_OscConfig+0x64>
 8000c8c:	687b      	ldr	r3, [r7, #4]
 8000c8e:	699b      	ldr	r3, [r3, #24]
 8000c90:	2b00      	cmp	r3, #0
 8000c92:	d101      	bne.n	8000c98 <HAL_RCC_OscConfig+0x64>
      {
        return HAL_ERROR;
 8000c94:	2301      	movs	r3, #1
 8000c96:	e3d9      	b.n	800144c <HAL_RCC_OscConfig+0x818>
      else
      {
        /* To correctly read data from FLASH memory, the number of wait states (LATENCY)
           must be correctly programmed according to the frequency of the CPU clock
           (HCLK) and the supply voltage of the device. */
        if(RCC_OscInitStruct->MSIClockRange > __HAL_RCC_GET_MSI_RANGE())
 8000c98:	687b      	ldr	r3, [r7, #4]
 8000c9a:	6a1a      	ldr	r2, [r3, #32]
 8000c9c:	4b81      	ldr	r3, [pc, #516]	@ (8000ea4 <HAL_RCC_OscConfig+0x270>)
 8000c9e:	681b      	ldr	r3, [r3, #0]
 8000ca0:	f003 0308 	and.w	r3, r3, #8
 8000ca4:	2b00      	cmp	r3, #0
 8000ca6:	d004      	beq.n	8000cb2 <HAL_RCC_OscConfig+0x7e>
 8000ca8:	4b7e      	ldr	r3, [pc, #504]	@ (8000ea4 <HAL_RCC_OscConfig+0x270>)
 8000caa:	681b      	ldr	r3, [r3, #0]
 8000cac:	f003 03f0 	and.w	r3, r3, #240	@ 0xf0
 8000cb0:	e005      	b.n	8000cbe <HAL_RCC_OscConfig+0x8a>
 8000cb2:	4b7c      	ldr	r3, [pc, #496]	@ (8000ea4 <HAL_RCC_OscConfig+0x270>)
 8000cb4:	f8d3 3094 	ldr.w	r3, [r3, #148]	@ 0x94
 8000cb8:	091b      	lsrs	r3, r3, #4
 8000cba:	f003 03f0 	and.w	r3, r3, #240	@ 0xf0
 8000cbe:	4293      	cmp	r3, r2
 8000cc0:	d223      	bcs.n	8000d0a <HAL_RCC_OscConfig+0xd6>
        {
          /* First increase number of wait states update if necessary */
          if(RCC_SetFlashLatencyFromMSIRange(RCC_OscInitStruct->MSIClockRange) != HAL_OK)
 8000cc2:	687b      	ldr	r3, [r7, #4]
 8000cc4:	6a1b      	ldr	r3, [r3, #32]
 8000cc6:	4618      	mov	r0, r3
 8000cc8:	f000 fd8c 	bl	80017e4 <RCC_SetFlashLatencyFromMSIRange>
 8000ccc:	4603      	mov	r3, r0
 8000cce:	2b00      	cmp	r3, #0
 8000cd0:	d001      	beq.n	8000cd6 <HAL_RCC_OscConfig+0xa2>
          {
            return HAL_ERROR;
 8000cd2:	2301      	movs	r3, #1
 8000cd4:	e3ba      	b.n	800144c <HAL_RCC_OscConfig+0x818>
          }

          /* Selects the Multiple Speed oscillator (MSI) clock range .*/
          __HAL_RCC_MSI_RANGE_CONFIG(RCC_OscInitStruct->MSIClockRange);
 8000cd6:	4b73      	ldr	r3, [pc, #460]	@ (8000ea4 <HAL_RCC_OscConfig+0x270>)
 8000cd8:	681b      	ldr	r3, [r3, #0]
 8000cda:	4a72      	ldr	r2, [pc, #456]	@ (8000ea4 <HAL_RCC_OscConfig+0x270>)
 8000cdc:	f043 0308 	orr.w	r3, r3, #8
 8000ce0:	6013      	str	r3, [r2, #0]
 8000ce2:	4b70      	ldr	r3, [pc, #448]	@ (8000ea4 <HAL_RCC_OscConfig+0x270>)
 8000ce4:	681b      	ldr	r3, [r3, #0]
 8000ce6:	f023 02f0 	bic.w	r2, r3, #240	@ 0xf0
 8000cea:	687b      	ldr	r3, [r7, #4]
 8000cec:	6a1b      	ldr	r3, [r3, #32]
 8000cee:	496d      	ldr	r1, [pc, #436]	@ (8000ea4 <HAL_RCC_OscConfig+0x270>)
 8000cf0:	4313      	orrs	r3, r2
 8000cf2:	600b      	str	r3, [r1, #0]
          /* Adjusts the Multiple Speed oscillator (MSI) calibration value.*/
          __HAL_RCC_MSI_CALIBRATIONVALUE_ADJUST(RCC_OscInitStruct->MSICalibrationValue);
 8000cf4:	4b6b      	ldr	r3, [pc, #428]	@ (8000ea4 <HAL_RCC_OscConfig+0x270>)
 8000cf6:	685b      	ldr	r3, [r3, #4]
 8000cf8:	f423 427f 	bic.w	r2, r3, #65280	@ 0xff00
 8000cfc:	687b      	ldr	r3, [r7, #4]
 8000cfe:	69db      	ldr	r3, [r3, #28]
 8000d00:	021b      	lsls	r3, r3, #8
 8000d02:	4968      	ldr	r1, [pc, #416]	@ (8000ea4 <HAL_RCC_OscConfig+0x270>)
 8000d04:	4313      	orrs	r3, r2
 8000d06:	604b      	str	r3, [r1, #4]
 8000d08:	e025      	b.n	8000d56 <HAL_RCC_OscConfig+0x122>
        }
        else
        {
          /* Else, keep current flash latency while decreasing applies */
          /* Selects the Multiple Speed oscillator (MSI) clock range .*/
          __HAL_RCC_MSI_RANGE_CONFIG(RCC_OscInitStruct->MSIClockRange);
 8000d0a:	4b66      	ldr	r3, [pc, #408]	@ (8000ea4 <HAL_RCC_OscConfig+0x270>)
 8000d0c:	681b      	ldr	r3, [r3, #0]
 8000d0e:	4a65      	ldr	r2, [pc, #404]	@ (8000ea4 <HAL_RCC_OscConfig+0x270>)
 8000d10:	f043 0308 	orr.w	r3, r3, #8
 8000d14:	6013      	str	r3, [r2, #0]
 8000d16:	4b63      	ldr	r3, [pc, #396]	@ (8000ea4 <HAL_RCC_OscConfig+0x270>)
 8000d18:	681b      	ldr	r3, [r3, #0]
 8000d1a:	f023 02f0 	bic.w	r2, r3, #240	@ 0xf0
 8000d1e:	687b      	ldr	r3, [r7, #4]
 8000d20:	6a1b      	ldr	r3, [r3, #32]
 8000d22:	4960      	ldr	r1, [pc, #384]	@ (8000ea4 <HAL_RCC_OscConfig+0x270>)
 8000d24:	4313      	orrs	r3, r2
 8000d26:	600b      	str	r3, [r1, #0]
          /* Adjusts the Multiple Speed oscillator (MSI) calibration value.*/
          __HAL_RCC_MSI_CALIBRATIONVALUE_ADJUST(RCC_OscInitStruct->MSICalibrationValue);
 8000d28:	4b5e      	ldr	r3, [pc, #376]	@ (8000ea4 <HAL_RCC_OscConfig+0x270>)
 8000d2a:	685b      	ldr	r3, [r3, #4]
 8000d2c:	f423 427f 	bic.w	r2, r3, #65280	@ 0xff00
 8000d30:	687b      	ldr	r3, [r7, #4]
 8000d32:	69db      	ldr	r3, [r3, #28]
 8000d34:	021b      	lsls	r3, r3, #8
 8000d36:	495b      	ldr	r1, [pc, #364]	@ (8000ea4 <HAL_RCC_OscConfig+0x270>)
 8000d38:	4313      	orrs	r3, r2
 8000d3a:	604b      	str	r3, [r1, #4]

          /* Decrease number of wait states update if necessary */
          /* Only possible when MSI is the System clock source  */
          if(sysclk_source == RCC_CFGR_SWS_MSI)
 8000d3c:	69bb      	ldr	r3, [r7, #24]
 8000d3e:	2b00      	cmp	r3, #0
 8000d40:	d109      	bne.n	8000d56 <HAL_RCC_OscConfig+0x122>
          {
            if(RCC_SetFlashLatencyFromMSIRange(RCC_OscInitStruct->MSIClockRange) != HAL_OK)
 8000d42:	687b      	ldr	r3, [r7, #4]
 8000d44:	6a1b      	ldr	r3, [r3, #32]
 8000d46:	4618      	mov	r0, r3
 8000d48:	f000 fd4c 	bl	80017e4 <RCC_SetFlashLatencyFromMSIRange>
 8000d4c:	4603      	mov	r3, r0
 8000d4e:	2b00      	cmp	r3, #0
 8000d50:	d001      	beq.n	8000d56 <HAL_RCC_OscConfig+0x122>
            {
              return HAL_ERROR;
 8000d52:	2301      	movs	r3, #1
 8000d54:	e37a      	b.n	800144c <HAL_RCC_OscConfig+0x818>
            }
          }
        }

        /* Update the SystemCoreClock global variable */
        SystemCoreClock = HAL_RCC_GetSysClockFreq() >> (AHBPrescTable[READ_BIT(RCC->CFGR, RCC_CFGR_HPRE) >> RCC_CFGR_HPRE_Pos] & 0x1FU);
 8000d56:	f000 fc81 	bl	800165c <HAL_RCC_GetSysClockFreq>
 8000d5a:	4602      	mov	r2, r0
 8000d5c:	4b51      	ldr	r3, [pc, #324]	@ (8000ea4 <HAL_RCC_OscConfig+0x270>)
 8000d5e:	689b      	ldr	r3, [r3, #8]
 8000d60:	091b      	lsrs	r3, r3, #4
 8000d62:	f003 030f 	and.w	r3, r3, #15
 8000d66:	4950      	ldr	r1, [pc, #320]	@ (8000ea8 <HAL_RCC_OscConfig+0x274>)
 8000d68:	5ccb      	ldrb	r3, [r1, r3]
 8000d6a:	f003 031f 	and.w	r3, r3, #31
 8000d6e:	fa22 f303 	lsr.w	r3, r2, r3
 8000d72:	4a4e      	ldr	r2, [pc, #312]	@ (8000eac <HAL_RCC_OscConfig+0x278>)
 8000d74:	6013      	str	r3, [r2, #0]

        /* Configure the source of time base considering new system clocks settings*/
        status = HAL_InitTick(uwTickPrio);
 8000d76:	4b4e      	ldr	r3, [pc, #312]	@ (8000eb0 <HAL_RCC_OscConfig+0x27c>)
 8000d78:	681b      	ldr	r3, [r3, #0]
 8000d7a:	4618      	mov	r0, r3
 8000d7c:	f7ff fc26 	bl	80005cc <HAL_InitTick>
 8000d80:	4603      	mov	r3, r0
 8000d82:	73fb      	strb	r3, [r7, #15]
        if(status != HAL_OK)
 8000d84:	7bfb      	ldrb	r3, [r7, #15]
 8000d86:	2b00      	cmp	r3, #0
 8000d88:	d052      	beq.n	8000e30 <HAL_RCC_OscConfig+0x1fc>
        {
          return status;
 8000d8a:	7bfb      	ldrb	r3, [r7, #15]
 8000d8c:	e35e      	b.n	800144c <HAL_RCC_OscConfig+0x818>
      }
    }
    else
    {
      /* Check the MSI State */
      if(RCC_OscInitStruct->MSIState != RCC_MSI_OFF)
 8000d8e:	687b      	ldr	r3, [r7, #4]
 8000d90:	699b      	ldr	r3, [r3, #24]
 8000d92:	2b00      	cmp	r3, #0
 8000d94:	d032      	beq.n	8000dfc <HAL_RCC_OscConfig+0x1c8>
      {
        /* Enable the Internal High Speed oscillator (MSI). */
        __HAL_RCC_MSI_ENABLE();
 8000d96:	4b43      	ldr	r3, [pc, #268]	@ (8000ea4 <HAL_RCC_OscConfig+0x270>)
 8000d98:	681b      	ldr	r3, [r3, #0]
 8000d9a:	4a42      	ldr	r2, [pc, #264]	@ (8000ea4 <HAL_RCC_OscConfig+0x270>)
 8000d9c:	f043 0301 	orr.w	r3, r3, #1
 8000da0:	6013      	str	r3, [r2, #0]

        /* Get timeout */
        tickstart = HAL_GetTick();
 8000da2:	f7ff fc63 	bl	800066c <HAL_GetTick>
 8000da6:	6138      	str	r0, [r7, #16]

        /* Wait till MSI is ready */
        while(READ_BIT(RCC->CR, RCC_CR_MSIRDY) == 0U)
 8000da8:	e008      	b.n	8000dbc <HAL_RCC_OscConfig+0x188>
        {
          if((HAL_GetTick() - tickstart) > MSI_TIMEOUT_VALUE)
 8000daa:	f7ff fc5f 	bl	800066c <HAL_GetTick>
 8000dae:	4602      	mov	r2, r0
 8000db0:	693b      	ldr	r3, [r7, #16]
 8000db2:	1ad3      	subs	r3, r2, r3
 8000db4:	2b02      	cmp	r3, #2
 8000db6:	d901      	bls.n	8000dbc <HAL_RCC_OscConfig+0x188>
          {
            return HAL_TIMEOUT;
 8000db8:	2303      	movs	r3, #3
 8000dba:	e347      	b.n	800144c <HAL_RCC_OscConfig+0x818>
        while(READ_BIT(RCC->CR, RCC_CR_MSIRDY) == 0U)
 8000dbc:	4b39      	ldr	r3, [pc, #228]	@ (8000ea4 <HAL_RCC_OscConfig+0x270>)
 8000dbe:	681b      	ldr	r3, [r3, #0]
 8000dc0:	f003 0302 	and.w	r3, r3, #2
 8000dc4:	2b00      	cmp	r3, #0
 8000dc6:	d0f0      	beq.n	8000daa <HAL_RCC_OscConfig+0x176>
          }
        }
         /* Selects the Multiple Speed oscillator (MSI) clock range .*/
        __HAL_RCC_MSI_RANGE_CONFIG(RCC_OscInitStruct->MSIClockRange);
 8000dc8:	4b36      	ldr	r3, [pc, #216]	@ (8000ea4 <HAL_RCC_OscConfig+0x270>)
 8000dca:	681b      	ldr	r3, [r3, #0]
 8000dcc:	4a35      	ldr	r2, [pc, #212]	@ (8000ea4 <HAL_RCC_OscConfig+0x270>)
 8000dce:	f043 0308 	orr.w	r3, r3, #8
 8000dd2:	6013      	str	r3, [r2, #0]
 8000dd4:	4b33      	ldr	r3, [pc, #204]	@ (8000ea4 <HAL_RCC_OscConfig+0x270>)
 8000dd6:	681b      	ldr	r3, [r3, #0]
 8000dd8:	f023 02f0 	bic.w	r2, r3, #240	@ 0xf0
 8000ddc:	687b      	ldr	r3, [r7, #4]
 8000dde:	6a1b      	ldr	r3, [r3, #32]
 8000de0:	4930      	ldr	r1, [pc, #192]	@ (8000ea4 <HAL_RCC_OscConfig+0x270>)
 8000de2:	4313      	orrs	r3, r2
 8000de4:	600b      	str	r3, [r1, #0]
         /* Adjusts the Multiple Speed oscillator (MSI) calibration value.*/
        __HAL_RCC_MSI_CALIBRATIONVALUE_ADJUST(RCC_OscInitStruct->MSICalibrationValue);
 8000de6:	4b2f      	ldr	r3, [pc, #188]	@ (8000ea4 <HAL_RCC_OscConfig+0x270>)
 8000de8:	685b      	ldr	r3, [r3, #4]
 8000dea:	f423 427f 	bic.w	r2, r3, #65280	@ 0xff00
 8000dee:	687b      	ldr	r3, [r7, #4]
 8000df0:	69db      	ldr	r3, [r3, #28]
 8000df2:	021b      	lsls	r3, r3, #8
 8000df4:	492b      	ldr	r1, [pc, #172]	@ (8000ea4 <HAL_RCC_OscConfig+0x270>)
 8000df6:	4313      	orrs	r3, r2
 8000df8:	604b      	str	r3, [r1, #4]
 8000dfa:	e01a      	b.n	8000e32 <HAL_RCC_OscConfig+0x1fe>

      }
      else
      {
        /* Disable the Internal High Speed oscillator (MSI). */
        __HAL_RCC_MSI_DISABLE();
 8000dfc:	4b29      	ldr	r3, [pc, #164]	@ (8000ea4 <HAL_RCC_OscConfig+0x270>)
 8000dfe:	681b      	ldr	r3, [r3, #0]
 8000e00:	4a28      	ldr	r2, [pc, #160]	@ (8000ea4 <HAL_RCC_OscConfig+0x270>)
 8000e02:	f023 0301 	bic.w	r3, r3, #1
 8000e06:	6013      	str	r3, [r2, #0]

        /* Get timeout */
        tickstart = HAL_GetTick();
 8000e08:	f7ff fc30 	bl	800066c <HAL_GetTick>
 8000e0c:	6138      	str	r0, [r7, #16]

        /* Wait till MSI is ready */
        while(READ_BIT(RCC->CR, RCC_CR_MSIRDY) != 0U)
 8000e0e:	e008      	b.n	8000e22 <HAL_RCC_OscConfig+0x1ee>
        {
          if((HAL_GetTick() - tickstart) > MSI_TIMEOUT_VALUE)
 8000e10:	f7ff fc2c 	bl	800066c <HAL_GetTick>
 8000e14:	4602      	mov	r2, r0
 8000e16:	693b      	ldr	r3, [r7, #16]
 8000e18:	1ad3      	subs	r3, r2, r3
 8000e1a:	2b02      	cmp	r3, #2
 8000e1c:	d901      	bls.n	8000e22 <HAL_RCC_OscConfig+0x1ee>
          {
            return HAL_TIMEOUT;
 8000e1e:	2303      	movs	r3, #3
 8000e20:	e314      	b.n	800144c <HAL_RCC_OscConfig+0x818>
        while(READ_BIT(RCC->CR, RCC_CR_MSIRDY) != 0U)
 8000e22:	4b20      	ldr	r3, [pc, #128]	@ (8000ea4 <HAL_RCC_OscConfig+0x270>)
 8000e24:	681b      	ldr	r3, [r3, #0]
 8000e26:	f003 0302 	and.w	r3, r3, #2
 8000e2a:	2b00      	cmp	r3, #0
 8000e2c:	d1f0      	bne.n	8000e10 <HAL_RCC_OscConfig+0x1dc>
 8000e2e:	e000      	b.n	8000e32 <HAL_RCC_OscConfig+0x1fe>
      if((READ_BIT(RCC->CR, RCC_CR_MSIRDY) != 0U) && (RCC_OscInitStruct->MSIState == RCC_MSI_OFF))
 8000e30:	bf00      	nop
        }
      }
    }
  }
  /*------------------------------- HSE Configuration ------------------------*/
  if(((RCC_OscInitStruct->OscillatorType) & RCC_OSCILLATORTYPE_HSE) == RCC_OSCILLATORTYPE_HSE)
 8000e32:	687b      	ldr	r3, [r7, #4]
 8000e34:	681b      	ldr	r3, [r3, #0]
 8000e36:	f003 0301 	and.w	r3, r3, #1
 8000e3a:	2b00      	cmp	r3, #0
 8000e3c:	d073      	beq.n	8000f26 <HAL_RCC_OscConfig+0x2f2>
  {
    /* Check the parameters */
    assert_param(IS_RCC_HSE(RCC_OscInitStruct->HSEState));

    /* When the HSE is used as system clock or clock source for PLL in these cases it is not allowed to be disabled */
    if((sysclk_source == RCC_CFGR_SWS_HSE) ||
 8000e3e:	69bb      	ldr	r3, [r7, #24]
 8000e40:	2b08      	cmp	r3, #8
 8000e42:	d005      	beq.n	8000e50 <HAL_RCC_OscConfig+0x21c>
 8000e44:	69bb      	ldr	r3, [r7, #24]
 8000e46:	2b0c      	cmp	r3, #12
 8000e48:	d10e      	bne.n	8000e68 <HAL_RCC_OscConfig+0x234>
       ((sysclk_source == RCC_CFGR_SWS_PLL) && (pll_config == RCC_PLLSOURCE_HSE)))
 8000e4a:	697b      	ldr	r3, [r7, #20]
 8000e4c:	2b03      	cmp	r3, #3
 8000e4e:	d10b      	bne.n	8000e68 <HAL_RCC_OscConfig+0x234>
    {
      if((READ_BIT(RCC->CR, RCC_CR_HSERDY) != 0U) && (RCC_OscInitStruct->HSEState == RCC_HSE_OFF))
 8000e50:	4b14      	ldr	r3, [pc, #80]	@ (8000ea4 <HAL_RCC_OscConfig+0x270>)
 8000e52:	681b      	ldr	r3, [r3, #0]
 8000e54:	f403 3300 	and.w	r3, r3, #131072	@ 0x20000
 8000e58:	2b00      	cmp	r3, #0
 8000e5a:	d063      	beq.n	8000f24 <HAL_RCC_OscConfig+0x2f0>
 8000e5c:	687b      	ldr	r3, [r7, #4]
 8000e5e:	685b      	ldr	r3, [r3, #4]
 8000e60:	2b00      	cmp	r3, #0
 8000e62:	d15f      	bne.n	8000f24 <HAL_RCC_OscConfig+0x2f0>
      {
        return HAL_ERROR;
 8000e64:	2301      	movs	r3, #1
 8000e66:	e2f1      	b.n	800144c <HAL_RCC_OscConfig+0x818>
      }
    }
    else
    {
      /* Set the new HSE configuration ---------------------------------------*/
      __HAL_RCC_HSE_CONFIG(RCC_OscInitStruct->HSEState);
 8000e68:	687b      	ldr	r3, [r7, #4]
 8000e6a:	685b      	ldr	r3, [r3, #4]
 8000e6c:	f5b3 3f80 	cmp.w	r3, #65536	@ 0x10000
 8000e70:	d106      	bne.n	8000e80 <HAL_RCC_OscConfig+0x24c>
 8000e72:	4b0c      	ldr	r3, [pc, #48]	@ (8000ea4 <HAL_RCC_OscConfig+0x270>)
 8000e74:	681b      	ldr	r3, [r3, #0]
 8000e76:	4a0b      	ldr	r2, [pc, #44]	@ (8000ea4 <HAL_RCC_OscConfig+0x270>)
 8000e78:	f443 3380 	orr.w	r3, r3, #65536	@ 0x10000
 8000e7c:	6013      	str	r3, [r2, #0]
 8000e7e:	e025      	b.n	8000ecc <HAL_RCC_OscConfig+0x298>
 8000e80:	687b      	ldr	r3, [r7, #4]
 8000e82:	685b      	ldr	r3, [r3, #4]
 8000e84:	f5b3 2fa0 	cmp.w	r3, #327680	@ 0x50000
 8000e88:	d114      	bne.n	8000eb4 <HAL_RCC_OscConfig+0x280>
 8000e8a:	4b06      	ldr	r3, [pc, #24]	@ (8000ea4 <HAL_RCC_OscConfig+0x270>)
 8000e8c:	681b      	ldr	r3, [r3, #0]
 8000e8e:	4a05      	ldr	r2, [pc, #20]	@ (8000ea4 <HAL_RCC_OscConfig+0x270>)
 8000e90:	f443 2380 	orr.w	r3, r3, #262144	@ 0x40000
 8000e94:	6013      	str	r3, [r2, #0]
 8000e96:	4b03      	ldr	r3, [pc, #12]	@ (8000ea4 <HAL_RCC_OscConfig+0x270>)
 8000e98:	681b      	ldr	r3, [r3, #0]
 8000e9a:	4a02      	ldr	r2, [pc, #8]	@ (8000ea4 <HAL_RCC_OscConfig+0x270>)
 8000e9c:	f443 3380 	orr.w	r3, r3, #65536	@ 0x10000
 8000ea0:	6013      	str	r3, [r2, #0]
 8000ea2:	e013      	b.n	8000ecc <HAL_RCC_OscConfig+0x298>
 8000ea4:	40021000 	.word	0x40021000
 8000ea8:	08007594 	.word	0x08007594
 8000eac:	20000008 	.word	0x20000008
 8000eb0:	20000000 	.word	0x20000000
 8000eb4:	4ba0      	ldr	r3, [pc, #640]	@ (8001138 <HAL_RCC_OscConfig+0x504>)
 8000eb6:	681b      	ldr	r3, [r3, #0]
 8000eb8:	4a9f      	ldr	r2, [pc, #636]	@ (8001138 <HAL_RCC_OscConfig+0x504>)
 8000eba:	f423 3380 	bic.w	r3, r3, #65536	@ 0x10000
 8000ebe:	6013      	str	r3, [r2, #0]
 8000ec0:	4b9d      	ldr	r3, [pc, #628]	@ (8001138 <HAL_RCC_OscConfig+0x504>)
 8000ec2:	681b      	ldr	r3, [r3, #0]
 8000ec4:	4a9c      	ldr	r2, [pc, #624]	@ (8001138 <HAL_RCC_OscConfig+0x504>)
 8000ec6:	f423 2380 	bic.w	r3, r3, #262144	@ 0x40000
 8000eca:	6013      	str	r3, [r2, #0]

      /* Check the HSE State */
      if(RCC_OscInitStruct->HSEState != RCC_HSE_OFF)
 8000ecc:	687b      	ldr	r3, [r7, #4]
 8000ece:	685b      	ldr	r3, [r3, #4]
 8000ed0:	2b00      	cmp	r3, #0
 8000ed2:	d013      	beq.n	8000efc <HAL_RCC_OscConfig+0x2c8>
      {
        /* Get Start Tick*/
        tickstart = HAL_GetTick();
 8000ed4:	f7ff fbca 	bl	800066c <HAL_GetTick>
 8000ed8:	6138      	str	r0, [r7, #16]

        /* Wait till HSE is ready */
        while(READ_BIT(RCC->CR, RCC_CR_HSERDY) == 0U)
 8000eda:	e008      	b.n	8000eee <HAL_RCC_OscConfig+0x2ba>
        {
          if((HAL_GetTick() - tickstart) > HSE_TIMEOUT_VALUE)
 8000edc:	f7ff fbc6 	bl	800066c <HAL_GetTick>
 8000ee0:	4602      	mov	r2, r0
 8000ee2:	693b      	ldr	r3, [r7, #16]
 8000ee4:	1ad3      	subs	r3, r2, r3
 8000ee6:	2b64      	cmp	r3, #100	@ 0x64
 8000ee8:	d901      	bls.n	8000eee <HAL_RCC_OscConfig+0x2ba>
          {
            return HAL_TIMEOUT;
 8000eea:	2303      	movs	r3, #3
 8000eec:	e2ae      	b.n	800144c <HAL_RCC_OscConfig+0x818>
        while(READ_BIT(RCC->CR, RCC_CR_HSERDY) == 0U)
 8000eee:	4b92      	ldr	r3, [pc, #584]	@ (8001138 <HAL_RCC_OscConfig+0x504>)
 8000ef0:	681b      	ldr	r3, [r3, #0]
 8000ef2:	f403 3300 	and.w	r3, r3, #131072	@ 0x20000
 8000ef6:	2b00      	cmp	r3, #0
 8000ef8:	d0f0      	beq.n	8000edc <HAL_RCC_OscConfig+0x2a8>
 8000efa:	e014      	b.n	8000f26 <HAL_RCC_OscConfig+0x2f2>
        }
      }
      else
      {
        /* Get Start Tick*/
        tickstart = HAL_GetTick();
 8000efc:	f7ff fbb6 	bl	800066c <HAL_GetTick>
 8000f00:	6138      	str	r0, [r7, #16]

        /* Wait till HSE is disabled */
        while(READ_BIT(RCC->CR, RCC_CR_HSERDY) != 0U)
 8000f02:	e008      	b.n	8000f16 <HAL_RCC_OscConfig+0x2e2>
        {
          if((HAL_GetTick() - tickstart) > HSE_TIMEOUT_VALUE)
 8000f04:	f7ff fbb2 	bl	800066c <HAL_GetTick>
 8000f08:	4602      	mov	r2, r0
 8000f0a:	693b      	ldr	r3, [r7, #16]
 8000f0c:	1ad3      	subs	r3, r2, r3
 8000f0e:	2b64      	cmp	r3, #100	@ 0x64
 8000f10:	d901      	bls.n	8000f16 <HAL_RCC_OscConfig+0x2e2>
          {
            return HAL_TIMEOUT;
 8000f12:	2303      	movs	r3, #3
 8000f14:	e29a      	b.n	800144c <HAL_RCC_OscConfig+0x818>
        while(READ_BIT(RCC->CR, RCC_CR_HSERDY) != 0U)
 8000f16:	4b88      	ldr	r3, [pc, #544]	@ (8001138 <HAL_RCC_OscConfig+0x504>)
 8000f18:	681b      	ldr	r3, [r3, #0]
 8000f1a:	f403 3300 	and.w	r3, r3, #131072	@ 0x20000
 8000f1e:	2b00      	cmp	r3, #0
 8000f20:	d1f0      	bne.n	8000f04 <HAL_RCC_OscConfig+0x2d0>
 8000f22:	e000      	b.n	8000f26 <HAL_RCC_OscConfig+0x2f2>
      if((READ_BIT(RCC->CR, RCC_CR_HSERDY) != 0U) && (RCC_OscInitStruct->HSEState == RCC_HSE_OFF))
 8000f24:	bf00      	nop
        }
      }
    }
  }
  /*----------------------------- HSI Configuration --------------------------*/
  if(((RCC_OscInitStruct->OscillatorType) & RCC_OSCILLATORTYPE_HSI) == RCC_OSCILLATORTYPE_HSI)
 8000f26:	687b      	ldr	r3, [r7, #4]
 8000f28:	681b      	ldr	r3, [r3, #0]
 8000f2a:	f003 0302 	and.w	r3, r3, #2
 8000f2e:	2b00      	cmp	r3, #0
 8000f30:	d060      	beq.n	8000ff4 <HAL_RCC_OscConfig+0x3c0>
    /* Check the parameters */
    assert_param(IS_RCC_HSI(RCC_OscInitStruct->HSIState));
    assert_param(IS_RCC_HSI_CALIBRATION_VALUE(RCC_OscInitStruct->HSICalibrationValue));

    /* Check if HSI is used as system clock or as PLL source when PLL is selected as system clock */
    if((sysclk_source == RCC_CFGR_SWS_HSI) ||
 8000f32:	69bb      	ldr	r3, [r7, #24]
 8000f34:	2b04      	cmp	r3, #4
 8000f36:	d005      	beq.n	8000f44 <HAL_RCC_OscConfig+0x310>
 8000f38:	69bb      	ldr	r3, [r7, #24]
 8000f3a:	2b0c      	cmp	r3, #12
 8000f3c:	d119      	bne.n	8000f72 <HAL_RCC_OscConfig+0x33e>
       ((sysclk_source == RCC_CFGR_SWS_PLL) && (pll_config == RCC_PLLSOURCE_HSI)))
 8000f3e:	697b      	ldr	r3, [r7, #20]
 8000f40:	2b02      	cmp	r3, #2
 8000f42:	d116      	bne.n	8000f72 <HAL_RCC_OscConfig+0x33e>
    {
      /* When HSI is used as system clock it will not be disabled */
      if((READ_BIT(RCC->CR, RCC_CR_HSIRDY) != 0U) && (RCC_OscInitStruct->HSIState == RCC_HSI_OFF))
 8000f44:	4b7c      	ldr	r3, [pc, #496]	@ (8001138 <HAL_RCC_OscConfig+0x504>)
 8000f46:	681b      	ldr	r3, [r3, #0]
 8000f48:	f403 6380 	and.w	r3, r3, #1024	@ 0x400
 8000f4c:	2b00      	cmp	r3, #0
 8000f4e:	d005      	beq.n	8000f5c <HAL_RCC_OscConfig+0x328>
 8000f50:	687b      	ldr	r3, [r7, #4]
 8000f52:	68db      	ldr	r3, [r3, #12]
 8000f54:	2b00      	cmp	r3, #0
 8000f56:	d101      	bne.n	8000f5c <HAL_RCC_OscConfig+0x328>
      {
        return HAL_ERROR;
 8000f58:	2301      	movs	r3, #1
 8000f5a:	e277      	b.n	800144c <HAL_RCC_OscConfig+0x818>
      }
      /* Otherwise, just the calibration is allowed */
      else
      {
        /* Adjusts the Internal High Speed oscillator (HSI) calibration value.*/
        __HAL_RCC_HSI_CALIBRATIONVALUE_ADJUST(RCC_OscInitStruct->HSICalibrationValue);
 8000f5c:	4b76      	ldr	r3, [pc, #472]	@ (8001138 <HAL_RCC_OscConfig+0x504>)
 8000f5e:	685b      	ldr	r3, [r3, #4]
 8000f60:	f023 52f8 	bic.w	r2, r3, #520093696	@ 0x1f000000
 8000f64:	687b      	ldr	r3, [r7, #4]
 8000f66:	691b      	ldr	r3, [r3, #16]
 8000f68:	061b      	lsls	r3, r3, #24
 8000f6a:	4973      	ldr	r1, [pc, #460]	@ (8001138 <HAL_RCC_OscConfig+0x504>)
 8000f6c:	4313      	orrs	r3, r2
 8000f6e:	604b      	str	r3, [r1, #4]
      if((READ_BIT(RCC->CR, RCC_CR_HSIRDY) != 0U) && (RCC_OscInitStruct->HSIState == RCC_HSI_OFF))
 8000f70:	e040      	b.n	8000ff4 <HAL_RCC_OscConfig+0x3c0>
      }
    }
    else
    {
      /* Check the HSI State */
      if(RCC_OscInitStruct->HSIState != RCC_HSI_OFF)
 8000f72:	687b      	ldr	r3, [r7, #4]
 8000f74:	68db      	ldr	r3, [r3, #12]
 8000f76:	2b00      	cmp	r3, #0
 8000f78:	d023      	beq.n	8000fc2 <HAL_RCC_OscConfig+0x38e>
      {
        /* Enable the Internal High Speed oscillator (HSI). */
        __HAL_RCC_HSI_ENABLE();
 8000f7a:	4b6f      	ldr	r3, [pc, #444]	@ (8001138 <HAL_RCC_OscConfig+0x504>)
 8000f7c:	681b      	ldr	r3, [r3, #0]
 8000f7e:	4a6e      	ldr	r2, [pc, #440]	@ (8001138 <HAL_RCC_OscConfig+0x504>)
 8000f80:	f443 7380 	orr.w	r3, r3, #256	@ 0x100
 8000f84:	6013      	str	r3, [r2, #0]

        /* Get Start Tick*/
        tickstart = HAL_GetTick();
 8000f86:	f7ff fb71 	bl	800066c <HAL_GetTick>
 8000f8a:	6138      	str	r0, [r7, #16]

        /* Wait till HSI is ready */
        while(READ_BIT(RCC->CR, RCC_CR_HSIRDY) == 0U)
 8000f8c:	e008      	b.n	8000fa0 <HAL_RCC_OscConfig+0x36c>
        {
          if((HAL_GetTick() - tickstart) > HSI_TIMEOUT_VALUE)
 8000f8e:	f7ff fb6d 	bl	800066c <HAL_GetTick>
 8000f92:	4602      	mov	r2, r0
 8000f94:	693b      	ldr	r3, [r7, #16]
 8000f96:	1ad3      	subs	r3, r2, r3
 8000f98:	2b02      	cmp	r3, #2
 8000f9a:	d901      	bls.n	8000fa0 <HAL_RCC_OscConfig+0x36c>
          {
            return HAL_TIMEOUT;
 8000f9c:	2303      	movs	r3, #3
 8000f9e:	e255      	b.n	800144c <HAL_RCC_OscConfig+0x818>
        while(READ_BIT(RCC->CR, RCC_CR_HSIRDY) == 0U)
 8000fa0:	4b65      	ldr	r3, [pc, #404]	@ (8001138 <HAL_RCC_OscConfig+0x504>)
 8000fa2:	681b      	ldr	r3, [r3, #0]
 8000fa4:	f403 6380 	and.w	r3, r3, #1024	@ 0x400
 8000fa8:	2b00      	cmp	r3, #0
 8000faa:	d0f0      	beq.n	8000f8e <HAL_RCC_OscConfig+0x35a>
          }
        }

        /* Adjusts the Internal High Speed oscillator (HSI) calibration value.*/
        __HAL_RCC_HSI_CALIBRATIONVALUE_ADJUST(RCC_OscInitStruct->HSICalibrationValue);
 8000fac:	4b62      	ldr	r3, [pc, #392]	@ (8001138 <HAL_RCC_OscConfig+0x504>)
 8000fae:	685b      	ldr	r3, [r3, #4]
 8000fb0:	f023 52f8 	bic.w	r2, r3, #520093696	@ 0x1f000000
 8000fb4:	687b      	ldr	r3, [r7, #4]
 8000fb6:	691b      	ldr	r3, [r3, #16]
 8000fb8:	061b      	lsls	r3, r3, #24
 8000fba:	495f      	ldr	r1, [pc, #380]	@ (8001138 <HAL_RCC_OscConfig+0x504>)
 8000fbc:	4313      	orrs	r3, r2
 8000fbe:	604b      	str	r3, [r1, #4]
 8000fc0:	e018      	b.n	8000ff4 <HAL_RCC_OscConfig+0x3c0>
      }
      else
      {
        /* Disable the Internal High Speed oscillator (HSI). */
        __HAL_RCC_HSI_DISABLE();
 8000fc2:	4b5d      	ldr	r3, [pc, #372]	@ (8001138 <HAL_RCC_OscConfig+0x504>)
 8000fc4:	681b      	ldr	r3, [r3, #0]
 8000fc6:	4a5c      	ldr	r2, [pc, #368]	@ (8001138 <HAL_RCC_OscConfig+0x504>)
 8000fc8:	f423 7380 	bic.w	r3, r3, #256	@ 0x100
 8000fcc:	6013      	str	r3, [r2, #0]

        /* Get Start Tick*/
        tickstart = HAL_GetTick();
 8000fce:	f7ff fb4d 	bl	800066c <HAL_GetTick>
 8000fd2:	6138      	str	r0, [r7, #16]

        /* Wait till HSI is disabled */
        while(READ_BIT(RCC->CR, RCC_CR_HSIRDY) != 0U)
 8000fd4:	e008      	b.n	8000fe8 <HAL_RCC_OscConfig+0x3b4>
        {
          if((HAL_GetTick() - tickstart) > HSI_TIMEOUT_VALUE)
 8000fd6:	f7ff fb49 	bl	800066c <HAL_GetTick>
 8000fda:	4602      	mov	r2, r0
 8000fdc:	693b      	ldr	r3, [r7, #16]
 8000fde:	1ad3      	subs	r3, r2, r3
 8000fe0:	2b02      	cmp	r3, #2
 8000fe2:	d901      	bls.n	8000fe8 <HAL_RCC_OscConfig+0x3b4>
          {
            return HAL_TIMEOUT;
 8000fe4:	2303      	movs	r3, #3
 8000fe6:	e231      	b.n	800144c <HAL_RCC_OscConfig+0x818>
        while(READ_BIT(RCC->CR, RCC_CR_HSIRDY) != 0U)
 8000fe8:	4b53      	ldr	r3, [pc, #332]	@ (8001138 <HAL_RCC_OscConfig+0x504>)
 8000fea:	681b      	ldr	r3, [r3, #0]
 8000fec:	f403 6380 	and.w	r3, r3, #1024	@ 0x400
 8000ff0:	2b00      	cmp	r3, #0
 8000ff2:	d1f0      	bne.n	8000fd6 <HAL_RCC_OscConfig+0x3a2>
        }
      }
    }
  }
  /*------------------------------ LSI Configuration -------------------------*/
  if(((RCC_OscInitStruct->OscillatorType) & RCC_OSCILLATORTYPE_LSI) == RCC_OSCILLATORTYPE_LSI)
 8000ff4:	687b      	ldr	r3, [r7, #4]
 8000ff6:	681b      	ldr	r3, [r3, #0]
 8000ff8:	f003 0308 	and.w	r3, r3, #8
 8000ffc:	2b00      	cmp	r3, #0
 8000ffe:	d03c      	beq.n	800107a <HAL_RCC_OscConfig+0x446>
  {
    /* Check the parameters */
    assert_param(IS_RCC_LSI(RCC_OscInitStruct->LSIState));

    /* Check the LSI State */
    if(RCC_OscInitStruct->LSIState != RCC_LSI_OFF)
 8001000:	687b      	ldr	r3, [r7, #4]
 8001002:	695b      	ldr	r3, [r3, #20]
 8001004:	2b00      	cmp	r3, #0
 8001006:	d01c      	beq.n	8001042 <HAL_RCC_OscConfig+0x40e>
        MODIFY_REG(RCC->CSR, RCC_CSR_LSIPREDIV, RCC_OscInitStruct->LSIDiv);
      }
#endif /* RCC_CSR_LSIPREDIV */

      /* Enable the Internal Low Speed oscillator (LSI). */
      __HAL_RCC_LSI_ENABLE();
 8001008:	4b4b      	ldr	r3, [pc, #300]	@ (8001138 <HAL_RCC_OscConfig+0x504>)
 800100a:	f8d3 3094 	ldr.w	r3, [r3, #148]	@ 0x94
 800100e:	4a4a      	ldr	r2, [pc, #296]	@ (8001138 <HAL_RCC_OscConfig+0x504>)
 8001010:	f043 0301 	orr.w	r3, r3, #1
 8001014:	f8c2 3094 	str.w	r3, [r2, #148]	@ 0x94

      /* Get Start Tick*/
      tickstart = HAL_GetTick();
 8001018:	f7ff fb28 	bl	800066c <HAL_GetTick>
 800101c:	6138      	str	r0, [r7, #16]

      /* Wait till LSI is ready */
      while(READ_BIT(RCC->CSR, RCC_CSR_LSIRDY) == 0U)
 800101e:	e008      	b.n	8001032 <HAL_RCC_OscConfig+0x3fe>
      {
        if((HAL_GetTick() - tickstart) > LSI_TIMEOUT_VALUE)
 8001020:	f7ff fb24 	bl	800066c <HAL_GetTick>
 8001024:	4602      	mov	r2, r0
 8001026:	693b      	ldr	r3, [r7, #16]
 8001028:	1ad3      	subs	r3, r2, r3
 800102a:	2b02      	cmp	r3, #2
 800102c:	d901      	bls.n	8001032 <HAL_RCC_OscConfig+0x3fe>
        {
          return HAL_TIMEOUT;
 800102e:	2303      	movs	r3, #3
 8001030:	e20c      	b.n	800144c <HAL_RCC_OscConfig+0x818>
      while(READ_BIT(RCC->CSR, RCC_CSR_LSIRDY) == 0U)
 8001032:	4b41      	ldr	r3, [pc, #260]	@ (8001138 <HAL_RCC_OscConfig+0x504>)
 8001034:	f8d3 3094 	ldr.w	r3, [r3, #148]	@ 0x94
 8001038:	f003 0302 	and.w	r3, r3, #2
 800103c:	2b00      	cmp	r3, #0
 800103e:	d0ef      	beq.n	8001020 <HAL_RCC_OscConfig+0x3ec>
 8001040:	e01b      	b.n	800107a <HAL_RCC_OscConfig+0x446>
      }
    }
    else
    {
      /* Disable the Internal Low Speed oscillator (LSI). */
      __HAL_RCC_LSI_DISABLE();
 8001042:	4b3d      	ldr	r3, [pc, #244]	@ (8001138 <HAL_RCC_OscConfig+0x504>)
 8001044:	f8d3 3094 	ldr.w	r3, [r3, #148]	@ 0x94
 8001048:	4a3b      	ldr	r2, [pc, #236]	@ (8001138 <HAL_RCC_OscConfig+0x504>)
 800104a:	f023 0301 	bic.w	r3, r3, #1
 800104e:	f8c2 3094 	str.w	r3, [r2, #148]	@ 0x94

      /* Get Start Tick*/
      tickstart = HAL_GetTick();
 8001052:	f7ff fb0b 	bl	800066c <HAL_GetTick>
 8001056:	6138      	str	r0, [r7, #16]

      /* Wait till LSI is disabled */
      while(READ_BIT(RCC->CSR, RCC_CSR_LSIRDY) != 0U)
 8001058:	e008      	b.n	800106c <HAL_RCC_OscConfig+0x438>
      {
        if((HAL_GetTick() - tickstart) > LSI_TIMEOUT_VALUE)
 800105a:	f7ff fb07 	bl	800066c <HAL_GetTick>
 800105e:	4602      	mov	r2, r0
 8001060:	693b      	ldr	r3, [r7, #16]
 8001062:	1ad3      	subs	r3, r2, r3
 8001064:	2b02      	cmp	r3, #2
 8001066:	d901      	bls.n	800106c <HAL_RCC_OscConfig+0x438>
        {
          return HAL_TIMEOUT;
 8001068:	2303      	movs	r3, #3
 800106a:	e1ef      	b.n	800144c <HAL_RCC_OscConfig+0x818>
      while(READ_BIT(RCC->CSR, RCC_CSR_LSIRDY) != 0U)
 800106c:	4b32      	ldr	r3, [pc, #200]	@ (8001138 <HAL_RCC_OscConfig+0x504>)
 800106e:	f8d3 3094 	ldr.w	r3, [r3, #148]	@ 0x94
 8001072:	f003 0302 	and.w	r3, r3, #2
 8001076:	2b00      	cmp	r3, #0
 8001078:	d1ef      	bne.n	800105a <HAL_RCC_OscConfig+0x426>
        }
      }
    }
  }
  /*------------------------------ LSE Configuration -------------------------*/
  if(((RCC_OscInitStruct->OscillatorType) & RCC_OSCILLATORTYPE_LSE) == RCC_OSCILLATORTYPE_LSE)
 800107a:	687b      	ldr	r3, [r7, #4]
 800107c:	681b      	ldr	r3, [r3, #0]
 800107e:	f003 0304 	and.w	r3, r3, #4
 8001082:	2b00      	cmp	r3, #0
 8001084:	f000 80a6 	beq.w	80011d4 <HAL_RCC_OscConfig+0x5a0>
  {
    FlagStatus       pwrclkchanged = RESET;
 8001088:	2300      	movs	r3, #0
 800108a:	77fb      	strb	r3, [r7, #31]
    /* Check the parameters */
    assert_param(IS_RCC_LSE(RCC_OscInitStruct->LSEState));

    /* Update LSE configuration in Backup Domain control register    */
    /* Requires to enable write access to Backup Domain of necessary */
    if(HAL_IS_BIT_CLR(RCC->APB1ENR1, RCC_APB1ENR1_PWREN))
 800108c:	4b2a      	ldr	r3, [pc, #168]	@ (8001138 <HAL_RCC_OscConfig+0x504>)
 800108e:	6d9b      	ldr	r3, [r3, #88]	@ 0x58
 8001090:	f003 5380 	and.w	r3, r3, #268435456	@ 0x10000000
 8001094:	2b00      	cmp	r3, #0
 8001096:	d10d      	bne.n	80010b4 <HAL_RCC_OscConfig+0x480>
    {
      __HAL_RCC_PWR_CLK_ENABLE();
 8001098:	4b27      	ldr	r3, [pc, #156]	@ (8001138 <HAL_RCC_OscConfig+0x504>)
 800109a:	6d9b      	ldr	r3, [r3, #88]	@ 0x58
 800109c:	4a26      	ldr	r2, [pc, #152]	@ (8001138 <HAL_RCC_OscConfig+0x504>)
 800109e:	f043 5380 	orr.w	r3, r3, #268435456	@ 0x10000000
 80010a2:	6593      	str	r3, [r2, #88]	@ 0x58
 80010a4:	4b24      	ldr	r3, [pc, #144]	@ (8001138 <HAL_RCC_OscConfig+0x504>)
 80010a6:	6d9b      	ldr	r3, [r3, #88]	@ 0x58
 80010a8:	f003 5380 	and.w	r3, r3, #268435456	@ 0x10000000
 80010ac:	60bb      	str	r3, [r7, #8]
 80010ae:	68bb      	ldr	r3, [r7, #8]
      pwrclkchanged = SET;
 80010b0:	2301      	movs	r3, #1
 80010b2:	77fb      	strb	r3, [r7, #31]
    }

    if(HAL_IS_BIT_CLR(PWR->CR1, PWR_CR1_DBP))
 80010b4:	4b21      	ldr	r3, [pc, #132]	@ (800113c <HAL_RCC_OscConfig+0x508>)
 80010b6:	681b      	ldr	r3, [r3, #0]
 80010b8:	f403 7380 	and.w	r3, r3, #256	@ 0x100
 80010bc:	2b00      	cmp	r3, #0
 80010be:	d118      	bne.n	80010f2 <HAL_RCC_OscConfig+0x4be>
    {
      /* Enable write access to Backup domain */
      SET_BIT(PWR->CR1, PWR_CR1_DBP);
 80010c0:	4b1e      	ldr	r3, [pc, #120]	@ (800113c <HAL_RCC_OscConfig+0x508>)
 80010c2:	681b      	ldr	r3, [r3, #0]
 80010c4:	4a1d      	ldr	r2, [pc, #116]	@ (800113c <HAL_RCC_OscConfig+0x508>)
 80010c6:	f443 7380 	orr.w	r3, r3, #256	@ 0x100
 80010ca:	6013      	str	r3, [r2, #0]

      /* Wait for Backup domain Write protection disable */
      tickstart = HAL_GetTick();
 80010cc:	f7ff face 	bl	800066c <HAL_GetTick>
 80010d0:	6138      	str	r0, [r7, #16]

      while(HAL_IS_BIT_CLR(PWR->CR1, PWR_CR1_DBP))
 80010d2:	e008      	b.n	80010e6 <HAL_RCC_OscConfig+0x4b2>
      {
        if((HAL_GetTick() - tickstart) > RCC_DBP_TIMEOUT_VALUE)
 80010d4:	f7ff faca 	bl	800066c <HAL_GetTick>
 80010d8:	4602      	mov	r2, r0
 80010da:	693b      	ldr	r3, [r7, #16]
 80010dc:	1ad3      	subs	r3, r2, r3
 80010de:	2b02      	cmp	r3, #2
 80010e0:	d901      	bls.n	80010e6 <HAL_RCC_OscConfig+0x4b2>
        {
          return HAL_TIMEOUT;
 80010e2:	2303      	movs	r3, #3
 80010e4:	e1b2      	b.n	800144c <HAL_RCC_OscConfig+0x818>
      while(HAL_IS_BIT_CLR(PWR->CR1, PWR_CR1_DBP))
 80010e6:	4b15      	ldr	r3, [pc, #84]	@ (800113c <HAL_RCC_OscConfig+0x508>)
 80010e8:	681b      	ldr	r3, [r3, #0]
 80010ea:	f403 7380 	and.w	r3, r3, #256	@ 0x100
 80010ee:	2b00      	cmp	r3, #0
 80010f0:	d0f0      	beq.n	80010d4 <HAL_RCC_OscConfig+0x4a0>
    {
      CLEAR_BIT(RCC->BDCR, RCC_BDCR_LSEON);
      CLEAR_BIT(RCC->BDCR, RCC_BDCR_LSEBYP);
    }
#else
    __HAL_RCC_LSE_CONFIG(RCC_OscInitStruct->LSEState);
 80010f2:	687b      	ldr	r3, [r7, #4]
 80010f4:	689b      	ldr	r3, [r3, #8]
 80010f6:	2b01      	cmp	r3, #1
 80010f8:	d108      	bne.n	800110c <HAL_RCC_OscConfig+0x4d8>
 80010fa:	4b0f      	ldr	r3, [pc, #60]	@ (8001138 <HAL_RCC_OscConfig+0x504>)
 80010fc:	f8d3 3090 	ldr.w	r3, [r3, #144]	@ 0x90
 8001100:	4a0d      	ldr	r2, [pc, #52]	@ (8001138 <HAL_RCC_OscConfig+0x504>)
 8001102:	f043 0301 	orr.w	r3, r3, #1
 8001106:	f8c2 3090 	str.w	r3, [r2, #144]	@ 0x90
 800110a:	e029      	b.n	8001160 <HAL_RCC_OscConfig+0x52c>
 800110c:	687b      	ldr	r3, [r7, #4]
 800110e:	689b      	ldr	r3, [r3, #8]
 8001110:	2b05      	cmp	r3, #5
 8001112:	d115      	bne.n	8001140 <HAL_RCC_OscConfig+0x50c>
 8001114:	4b08      	ldr	r3, [pc, #32]	@ (8001138 <HAL_RCC_OscConfig+0x504>)
 8001116:	f8d3 3090 	ldr.w	r3, [r3, #144]	@ 0x90
 800111a:	4a07      	ldr	r2, [pc, #28]	@ (8001138 <HAL_RCC_OscConfig+0x504>)
 800111c:	f043 0304 	orr.w	r3, r3, #4
 8001120:	f8c2 3090 	str.w	r3, [r2, #144]	@ 0x90
 8001124:	4b04      	ldr	r3, [pc, #16]	@ (8001138 <HAL_RCC_OscConfig+0x504>)
 8001126:	f8d3 3090 	ldr.w	r3, [r3, #144]	@ 0x90
 800112a:	4a03      	ldr	r2, [pc, #12]	@ (8001138 <HAL_RCC_OscConfig+0x504>)
 800112c:	f043 0301 	orr.w	r3, r3, #1
 8001130:	f8c2 3090 	str.w	r3, [r2, #144]	@ 0x90
 8001134:	e014      	b.n	8001160 <HAL_RCC_OscConfig+0x52c>
 8001136:	bf00      	nop
 8001138:	40021000 	.word	0x40021000
 800113c:	40007000 	.word	0x40007000
 8001140:	4b9a      	ldr	r3, [pc, #616]	@ (80013ac <HAL_RCC_OscConfig+0x778>)
 8001142:	f8d3 3090 	ldr.w	r3, [r3, #144]	@ 0x90
 8001146:	4a99      	ldr	r2, [pc, #612]	@ (80013ac <HAL_RCC_OscConfig+0x778>)
 8001148:	f023 0301 	bic.w	r3, r3, #1
 800114c:	f8c2 3090 	str.w	r3, [r2, #144]	@ 0x90
 8001150:	4b96      	ldr	r3, [pc, #600]	@ (80013ac <HAL_RCC_OscConfig+0x778>)
 8001152:	f8d3 3090 	ldr.w	r3, [r3, #144]	@ 0x90
 8001156:	4a95      	ldr	r2, [pc, #596]	@ (80013ac <HAL_RCC_OscConfig+0x778>)
 8001158:	f023 0304 	bic.w	r3, r3, #4
 800115c:	f8c2 3090 	str.w	r3, [r2, #144]	@ 0x90
#endif /* RCC_BDCR_LSESYSDIS */

    /* Check the LSE State */
    if(RCC_OscInitStruct->LSEState != RCC_LSE_OFF)
 8001160:	687b      	ldr	r3, [r7, #4]
 8001162:	689b      	ldr	r3, [r3, #8]
 8001164:	2b00      	cmp	r3, #0
 8001166:	d016      	beq.n	8001196 <HAL_RCC_OscConfig+0x562>
    {
      /* Get Start Tick*/
      tickstart = HAL_GetTick();
 8001168:	f7ff fa80 	bl	800066c <HAL_GetTick>
 800116c:	6138      	str	r0, [r7, #16]

      /* Wait till LSE is ready */
      while(READ_BIT(RCC->BDCR, RCC_BDCR_LSERDY) == 0U)
 800116e:	e00a      	b.n	8001186 <HAL_RCC_OscConfig+0x552>
      {
        if((HAL_GetTick() - tickstart) > RCC_LSE_TIMEOUT_VALUE)
 8001170:	f7ff fa7c 	bl	800066c <HAL_GetTick>
 8001174:	4602      	mov	r2, r0
 8001176:	693b      	ldr	r3, [r7, #16]
 8001178:	1ad3      	subs	r3, r2, r3
 800117a:	f241 3288 	movw	r2, #5000	@ 0x1388
 800117e:	4293      	cmp	r3, r2
 8001180:	d901      	bls.n	8001186 <HAL_RCC_OscConfig+0x552>
        {
          return HAL_TIMEOUT;
 8001182:	2303      	movs	r3, #3
 8001184:	e162      	b.n	800144c <HAL_RCC_OscConfig+0x818>
      while(READ_BIT(RCC->BDCR, RCC_BDCR_LSERDY) == 0U)
 8001186:	4b89      	ldr	r3, [pc, #548]	@ (80013ac <HAL_RCC_OscConfig+0x778>)
 8001188:	f8d3 3090 	ldr.w	r3, [r3, #144]	@ 0x90
 800118c:	f003 0302 	and.w	r3, r3, #2
 8001190:	2b00      	cmp	r3, #0
 8001192:	d0ed      	beq.n	8001170 <HAL_RCC_OscConfig+0x53c>
 8001194:	e015      	b.n	80011c2 <HAL_RCC_OscConfig+0x58e>
      }
    }
    else
    {
      /* Get Start Tick*/
      tickstart = HAL_GetTick();
 8001196:	f7ff fa69 	bl	800066c <HAL_GetTick>
 800119a:	6138      	str	r0, [r7, #16]

      /* Wait till LSE is disabled */
      while(READ_BIT(RCC->BDCR, RCC_BDCR_LSERDY) != 0U)
 800119c:	e00a      	b.n	80011b4 <HAL_RCC_OscConfig+0x580>
      {
        if((HAL_GetTick() - tickstart) > RCC_LSE_TIMEOUT_VALUE)
 800119e:	f7ff fa65 	bl	800066c <HAL_GetTick>
 80011a2:	4602      	mov	r2, r0
 80011a4:	693b      	ldr	r3, [r7, #16]
 80011a6:	1ad3      	subs	r3, r2, r3
 80011a8:	f241 3288 	movw	r2, #5000	@ 0x1388
 80011ac:	4293      	cmp	r3, r2
 80011ae:	d901      	bls.n	80011b4 <HAL_RCC_OscConfig+0x580>
        {
          return HAL_TIMEOUT;
 80011b0:	2303      	movs	r3, #3
 80011b2:	e14b      	b.n	800144c <HAL_RCC_OscConfig+0x818>
      while(READ_BIT(RCC->BDCR, RCC_BDCR_LSERDY) != 0U)
 80011b4:	4b7d      	ldr	r3, [pc, #500]	@ (80013ac <HAL_RCC_OscConfig+0x778>)
 80011b6:	f8d3 3090 	ldr.w	r3, [r3, #144]	@ 0x90
 80011ba:	f003 0302 	and.w	r3, r3, #2
 80011be:	2b00      	cmp	r3, #0
 80011c0:	d1ed      	bne.n	800119e <HAL_RCC_OscConfig+0x56a>
      CLEAR_BIT(RCC->BDCR, RCC_BDCR_LSESYSDIS);
#endif /* RCC_BDCR_LSESYSDIS */
    }

    /* Restore clock configuration if changed */
    if(pwrclkchanged == SET)
 80011c2:	7ffb      	ldrb	r3, [r7, #31]
 80011c4:	2b01      	cmp	r3, #1
 80011c6:	d105      	bne.n	80011d4 <HAL_RCC_OscConfig+0x5a0>
    {
      __HAL_RCC_PWR_CLK_DISABLE();
 80011c8:	4b78      	ldr	r3, [pc, #480]	@ (80013ac <HAL_RCC_OscConfig+0x778>)
 80011ca:	6d9b      	ldr	r3, [r3, #88]	@ 0x58
 80011cc:	4a77      	ldr	r2, [pc, #476]	@ (80013ac <HAL_RCC_OscConfig+0x778>)
 80011ce:	f023 5380 	bic.w	r3, r3, #268435456	@ 0x10000000
 80011d2:	6593      	str	r3, [r2, #88]	@ 0x58
    }
  }
#if defined(RCC_HSI48_SUPPORT)
  /*------------------------------ HSI48 Configuration -----------------------*/
  if(((RCC_OscInitStruct->OscillatorType) & RCC_OSCILLATORTYPE_HSI48) == RCC_OSCILLATORTYPE_HSI48)
 80011d4:	687b      	ldr	r3, [r7, #4]
 80011d6:	681b      	ldr	r3, [r3, #0]
 80011d8:	f003 0320 	and.w	r3, r3, #32
 80011dc:	2b00      	cmp	r3, #0
 80011de:	d03c      	beq.n	800125a <HAL_RCC_OscConfig+0x626>
  {
    /* Check the parameters */
    assert_param(IS_RCC_HSI48(RCC_OscInitStruct->HSI48State));

    /* Check the LSI State */
    if(RCC_OscInitStruct->HSI48State != RCC_HSI48_OFF)
 80011e0:	687b      	ldr	r3, [r7, #4]
 80011e2:	6a5b      	ldr	r3, [r3, #36]	@ 0x24
 80011e4:	2b00      	cmp	r3, #0
 80011e6:	d01c      	beq.n	8001222 <HAL_RCC_OscConfig+0x5ee>
    {
      /* Enable the Internal Low Speed oscillator (HSI48). */
      __HAL_RCC_HSI48_ENABLE();
 80011e8:	4b70      	ldr	r3, [pc, #448]	@ (80013ac <HAL_RCC_OscConfig+0x778>)
 80011ea:	f8d3 3098 	ldr.w	r3, [r3, #152]	@ 0x98
 80011ee:	4a6f      	ldr	r2, [pc, #444]	@ (80013ac <HAL_RCC_OscConfig+0x778>)
 80011f0:	f043 0301 	orr.w	r3, r3, #1
 80011f4:	f8c2 3098 	str.w	r3, [r2, #152]	@ 0x98

      /* Get Start Tick*/
      tickstart = HAL_GetTick();
 80011f8:	f7ff fa38 	bl	800066c <HAL_GetTick>
 80011fc:	6138      	str	r0, [r7, #16]

      /* Wait till HSI48 is ready */
      while(READ_BIT(RCC->CRRCR, RCC_CRRCR_HSI48RDY) == 0U)
 80011fe:	e008      	b.n	8001212 <HAL_RCC_OscConfig+0x5de>
      {
        if((HAL_GetTick() - tickstart) > HSI48_TIMEOUT_VALUE)
 8001200:	f7ff fa34 	bl	800066c <HAL_GetTick>
 8001204:	4602      	mov	r2, r0
 8001206:	693b      	ldr	r3, [r7, #16]
 8001208:	1ad3      	subs	r3, r2, r3
 800120a:	2b02      	cmp	r3, #2
 800120c:	d901      	bls.n	8001212 <HAL_RCC_OscConfig+0x5de>
        {
          return HAL_TIMEOUT;
 800120e:	2303      	movs	r3, #3
 8001210:	e11c      	b.n	800144c <HAL_RCC_OscConfig+0x818>
      while(READ_BIT(RCC->CRRCR, RCC_CRRCR_HSI48RDY) == 0U)
 8001212:	4b66      	ldr	r3, [pc, #408]	@ (80013ac <HAL_RCC_OscConfig+0x778>)
 8001214:	f8d3 3098 	ldr.w	r3, [r3, #152]	@ 0x98
 8001218:	f003 0302 	and.w	r3, r3, #2
 800121c:	2b00      	cmp	r3, #0
 800121e:	d0ef      	beq.n	8001200 <HAL_RCC_OscConfig+0x5cc>
 8001220:	e01b      	b.n	800125a <HAL_RCC_OscConfig+0x626>
      }
    }
    else
    {
      /* Disable the Internal Low Speed oscillator (HSI48). */
      __HAL_RCC_HSI48_DISABLE();
 8001222:	4b62      	ldr	r3, [pc, #392]	@ (80013ac <HAL_RCC_OscConfig+0x778>)
 8001224:	f8d3 3098 	ldr.w	r3, [r3, #152]	@ 0x98
 8001228:	4a60      	ldr	r2, [pc, #384]	@ (80013ac <HAL_RCC_OscConfig+0x778>)
 800122a:	f023 0301 	bic.w	r3, r3, #1
 800122e:	f8c2 3098 	str.w	r3, [r2, #152]	@ 0x98

      /* Get Start Tick*/
      tickstart = HAL_GetTick();
 8001232:	f7ff fa1b 	bl	800066c <HAL_GetTick>
 8001236:	6138      	str	r0, [r7, #16]

      /* Wait till HSI48 is disabled */
      while(READ_BIT(RCC->CRRCR, RCC_CRRCR_HSI48RDY) != 0U)
 8001238:	e008      	b.n	800124c <HAL_RCC_OscConfig+0x618>
      {
        if((HAL_GetTick() - tickstart) > HSI48_TIMEOUT_VALUE)
 800123a:	f7ff fa17 	bl	800066c <HAL_GetTick>
 800123e:	4602      	mov	r2, r0
 8001240:	693b      	ldr	r3, [r7, #16]
 8001242:	1ad3      	subs	r3, r2, r3
 8001244:	2b02      	cmp	r3, #2
 8001246:	d901      	bls.n	800124c <HAL_RCC_OscConfig+0x618>
        {
          return HAL_TIMEOUT;
 8001248:	2303      	movs	r3, #3
 800124a:	e0ff      	b.n	800144c <HAL_RCC_OscConfig+0x818>
      while(READ_BIT(RCC->CRRCR, RCC_CRRCR_HSI48RDY) != 0U)
 800124c:	4b57      	ldr	r3, [pc, #348]	@ (80013ac <HAL_RCC_OscConfig+0x778>)
 800124e:	f8d3 3098 	ldr.w	r3, [r3, #152]	@ 0x98
 8001252:	f003 0302 	and.w	r3, r3, #2
 8001256:	2b00      	cmp	r3, #0
 8001258:	d1ef      	bne.n	800123a <HAL_RCC_OscConfig+0x606>
#endif /* RCC_HSI48_SUPPORT */
  /*-------------------------------- PLL Configuration -----------------------*/
  /* Check the parameters */
  assert_param(IS_RCC_PLL(RCC_OscInitStruct->PLL.PLLState));

  if(RCC_OscInitStruct->PLL.PLLState != RCC_PLL_NONE)
 800125a:	687b      	ldr	r3, [r7, #4]
 800125c:	6a9b      	ldr	r3, [r3, #40]	@ 0x28
 800125e:	2b00      	cmp	r3, #0
 8001260:	f000 80f3 	beq.w	800144a <HAL_RCC_OscConfig+0x816>
  {
    /* PLL On ? */
    if(RCC_OscInitStruct->PLL.PLLState == RCC_PLL_ON)
 8001264:	687b      	ldr	r3, [r7, #4]
 8001266:	6a9b      	ldr	r3, [r3, #40]	@ 0x28
 8001268:	2b02      	cmp	r3, #2
 800126a:	f040 80c9 	bne.w	8001400 <HAL_RCC_OscConfig+0x7cc>
#endif /* RCC_PLLP_SUPPORT */
      assert_param(IS_RCC_PLLQ_VALUE(RCC_OscInitStruct->PLL.PLLQ));
      assert_param(IS_RCC_PLLR_VALUE(RCC_OscInitStruct->PLL.PLLR));

      /* Do nothing if PLL configuration is the unchanged */
      pll_config = RCC->PLLCFGR;
 800126e:	4b4f      	ldr	r3, [pc, #316]	@ (80013ac <HAL_RCC_OscConfig+0x778>)
 8001270:	68db      	ldr	r3, [r3, #12]
 8001272:	617b      	str	r3, [r7, #20]
      if((READ_BIT(pll_config, RCC_PLLCFGR_PLLSRC)  != RCC_OscInitStruct->PLL.PLLSource) ||
 8001274:	697b      	ldr	r3, [r7, #20]
 8001276:	f003 0203 	and.w	r2, r3, #3
 800127a:	687b      	ldr	r3, [r7, #4]
 800127c:	6adb      	ldr	r3, [r3, #44]	@ 0x2c
 800127e:	429a      	cmp	r2, r3
 8001280:	d12c      	bne.n	80012dc <HAL_RCC_OscConfig+0x6a8>
         (READ_BIT(pll_config, RCC_PLLCFGR_PLLM)    != ((RCC_OscInitStruct->PLL.PLLM - 1U) << RCC_PLLCFGR_PLLM_Pos)) ||
 8001282:	697b      	ldr	r3, [r7, #20]
 8001284:	f003 0270 	and.w	r2, r3, #112	@ 0x70
 8001288:	687b      	ldr	r3, [r7, #4]
 800128a:	6b1b      	ldr	r3, [r3, #48]	@ 0x30
 800128c:	3b01      	subs	r3, #1
 800128e:	011b      	lsls	r3, r3, #4
      if((READ_BIT(pll_config, RCC_PLLCFGR_PLLSRC)  != RCC_OscInitStruct->PLL.PLLSource) ||
 8001290:	429a      	cmp	r2, r3
 8001292:	d123      	bne.n	80012dc <HAL_RCC_OscConfig+0x6a8>
         (READ_BIT(pll_config, RCC_PLLCFGR_PLLN)    != (RCC_OscInitStruct->PLL.PLLN << RCC_PLLCFGR_PLLN_Pos)) ||
 8001294:	697b      	ldr	r3, [r7, #20]
 8001296:	f403 42fe 	and.w	r2, r3, #32512	@ 0x7f00
 800129a:	687b      	ldr	r3, [r7, #4]
 800129c:	6b5b      	ldr	r3, [r3, #52]	@ 0x34
 800129e:	021b      	lsls	r3, r3, #8
         (READ_BIT(pll_config, RCC_PLLCFGR_PLLM)    != ((RCC_OscInitStruct->PLL.PLLM - 1U) << RCC_PLLCFGR_PLLM_Pos)) ||
 80012a0:	429a      	cmp	r2, r3
 80012a2:	d11b      	bne.n	80012dc <HAL_RCC_OscConfig+0x6a8>
#if defined(RCC_PLLP_SUPPORT)
#if defined(RCC_PLLP_DIV_2_31_SUPPORT)
         (READ_BIT(pll_config, RCC_PLLCFGR_PLLPDIV) != (RCC_OscInitStruct->PLL.PLLP << RCC_PLLCFGR_PLLPDIV_Pos)) ||
 80012a4:	697b      	ldr	r3, [r7, #20]
 80012a6:	f003 4278 	and.w	r2, r3, #4160749568	@ 0xf8000000
 80012aa:	687b      	ldr	r3, [r7, #4]
 80012ac:	6b9b      	ldr	r3, [r3, #56]	@ 0x38
 80012ae:	06db      	lsls	r3, r3, #27
         (READ_BIT(pll_config, RCC_PLLCFGR_PLLN)    != (RCC_OscInitStruct->PLL.PLLN << RCC_PLLCFGR_PLLN_Pos)) ||
 80012b0:	429a      	cmp	r2, r3
 80012b2:	d113      	bne.n	80012dc <HAL_RCC_OscConfig+0x6a8>
#else
         (READ_BIT(pll_config, RCC_PLLCFGR_PLLP)    != ((RCC_OscInitStruct->PLL.PLLP == RCC_PLLP_DIV7) ? 0U : 1U)) ||
#endif
#endif
         (READ_BIT(pll_config, RCC_PLLCFGR_PLLQ)    != ((((RCC_OscInitStruct->PLL.PLLQ) >> 1U) - 1U) << RCC_PLLCFGR_PLLQ_Pos)) ||
 80012b4:	697b      	ldr	r3, [r7, #20]
 80012b6:	f403 02c0 	and.w	r2, r3, #6291456	@ 0x600000
 80012ba:	687b      	ldr	r3, [r7, #4]
 80012bc:	6bdb      	ldr	r3, [r3, #60]	@ 0x3c
 80012be:	085b      	lsrs	r3, r3, #1
 80012c0:	3b01      	subs	r3, #1
 80012c2:	055b      	lsls	r3, r3, #21
         (READ_BIT(pll_config, RCC_PLLCFGR_PLLPDIV) != (RCC_OscInitStruct->PLL.PLLP << RCC_PLLCFGR_PLLPDIV_Pos)) ||
 80012c4:	429a      	cmp	r2, r3
 80012c6:	d109      	bne.n	80012dc <HAL_RCC_OscConfig+0x6a8>
         (READ_BIT(pll_config, RCC_PLLCFGR_PLLR)    != ((((RCC_OscInitStruct->PLL.PLLR) >> 1U) - 1U) << RCC_PLLCFGR_PLLR_Pos)))
 80012c8:	697b      	ldr	r3, [r7, #20]
 80012ca:	f003 62c0 	and.w	r2, r3, #100663296	@ 0x6000000
 80012ce:	687b      	ldr	r3, [r7, #4]
 80012d0:	6c1b      	ldr	r3, [r3, #64]	@ 0x40
 80012d2:	085b      	lsrs	r3, r3, #1
 80012d4:	3b01      	subs	r3, #1
 80012d6:	065b      	lsls	r3, r3, #25
         (READ_BIT(pll_config, RCC_PLLCFGR_PLLQ)    != ((((RCC_OscInitStruct->PLL.PLLQ) >> 1U) - 1U) << RCC_PLLCFGR_PLLQ_Pos)) ||
 80012d8:	429a      	cmp	r2, r3
 80012da:	d06b      	beq.n	80013b4 <HAL_RCC_OscConfig+0x780>
      {
        /* Check if the PLL is used as system clock or not */
        if(sysclk_source != RCC_CFGR_SWS_PLL)
 80012dc:	69bb      	ldr	r3, [r7, #24]
 80012de:	2b0c      	cmp	r3, #12
 80012e0:	d062      	beq.n	80013a8 <HAL_RCC_OscConfig+0x774>
        {
#if defined(RCC_PLLSAI1_SUPPORT) || defined(RCC_PLLSAI2_SUPPORT)
          /* Check if main PLL can be updated */
          /* Not possible if the source is shared by other enabled PLLSAIx */
          if((READ_BIT(RCC->CR, RCC_CR_PLLSAI1ON) != 0U)
 80012e2:	4b32      	ldr	r3, [pc, #200]	@ (80013ac <HAL_RCC_OscConfig+0x778>)
 80012e4:	681b      	ldr	r3, [r3, #0]
 80012e6:	f003 6380 	and.w	r3, r3, #67108864	@ 0x4000000
 80012ea:	2b00      	cmp	r3, #0
 80012ec:	d001      	beq.n	80012f2 <HAL_RCC_OscConfig+0x6be>
#if defined(RCC_PLLSAI2_SUPPORT)
             || (READ_BIT(RCC->CR, RCC_CR_PLLSAI2ON) != 0U)
#endif
            )
          {
            return HAL_ERROR;
 80012ee:	2301      	movs	r3, #1
 80012f0:	e0ac      	b.n	800144c <HAL_RCC_OscConfig+0x818>
          }
          else
#endif /* RCC_PLLSAI1_SUPPORT || RCC_PLLSAI2_SUPPORT */
          {
            /* Disable the main PLL. */
            __HAL_RCC_PLL_DISABLE();
 80012f2:	4b2e      	ldr	r3, [pc, #184]	@ (80013ac <HAL_RCC_OscConfig+0x778>)
 80012f4:	681b      	ldr	r3, [r3, #0]
 80012f6:	4a2d      	ldr	r2, [pc, #180]	@ (80013ac <HAL_RCC_OscConfig+0x778>)
 80012f8:	f023 7380 	bic.w	r3, r3, #16777216	@ 0x1000000
 80012fc:	6013      	str	r3, [r2, #0]

            /* Get Start Tick*/
            tickstart = HAL_GetTick();
 80012fe:	f7ff f9b5 	bl	800066c <HAL_GetTick>
 8001302:	6138      	str	r0, [r7, #16]

            /* Wait till PLL is ready */
            while(READ_BIT(RCC->CR, RCC_CR_PLLRDY) != 0U)
 8001304:	e008      	b.n	8001318 <HAL_RCC_OscConfig+0x6e4>
            {
              if((HAL_GetTick() - tickstart) > PLL_TIMEOUT_VALUE)
 8001306:	f7ff f9b1 	bl	800066c <HAL_GetTick>
 800130a:	4602      	mov	r2, r0
 800130c:	693b      	ldr	r3, [r7, #16]
 800130e:	1ad3      	subs	r3, r2, r3
 8001310:	2b02      	cmp	r3, #2
 8001312:	d901      	bls.n	8001318 <HAL_RCC_OscConfig+0x6e4>
              {
                return HAL_TIMEOUT;
 8001314:	2303      	movs	r3, #3
 8001316:	e099      	b.n	800144c <HAL_RCC_OscConfig+0x818>
            while(READ_BIT(RCC->CR, RCC_CR_PLLRDY) != 0U)
 8001318:	4b24      	ldr	r3, [pc, #144]	@ (80013ac <HAL_RCC_OscConfig+0x778>)
 800131a:	681b      	ldr	r3, [r3, #0]
 800131c:	f003 7300 	and.w	r3, r3, #33554432	@ 0x2000000
 8001320:	2b00      	cmp	r3, #0
 8001322:	d1f0      	bne.n	8001306 <HAL_RCC_OscConfig+0x6d2>
              }
            }

            /* Configure the main PLL clock source, multiplication and division factors. */
#if defined(RCC_PLLP_SUPPORT)
            __HAL_RCC_PLL_CONFIG(RCC_OscInitStruct->PLL.PLLSource,
 8001324:	4b21      	ldr	r3, [pc, #132]	@ (80013ac <HAL_RCC_OscConfig+0x778>)
 8001326:	68da      	ldr	r2, [r3, #12]
 8001328:	4b21      	ldr	r3, [pc, #132]	@ (80013b0 <HAL_RCC_OscConfig+0x77c>)
 800132a:	4013      	ands	r3, r2
 800132c:	687a      	ldr	r2, [r7, #4]
 800132e:	6ad1      	ldr	r1, [r2, #44]	@ 0x2c
 8001330:	687a      	ldr	r2, [r7, #4]
 8001332:	6b12      	ldr	r2, [r2, #48]	@ 0x30
 8001334:	3a01      	subs	r2, #1
 8001336:	0112      	lsls	r2, r2, #4
 8001338:	4311      	orrs	r1, r2
 800133a:	687a      	ldr	r2, [r7, #4]
 800133c:	6b52      	ldr	r2, [r2, #52]	@ 0x34
 800133e:	0212      	lsls	r2, r2, #8
 8001340:	4311      	orrs	r1, r2
 8001342:	687a      	ldr	r2, [r7, #4]
 8001344:	6bd2      	ldr	r2, [r2, #60]	@ 0x3c
 8001346:	0852      	lsrs	r2, r2, #1
 8001348:	3a01      	subs	r2, #1
 800134a:	0552      	lsls	r2, r2, #21
 800134c:	4311      	orrs	r1, r2
 800134e:	687a      	ldr	r2, [r7, #4]
 8001350:	6c12      	ldr	r2, [r2, #64]	@ 0x40
 8001352:	0852      	lsrs	r2, r2, #1
 8001354:	3a01      	subs	r2, #1
 8001356:	0652      	lsls	r2, r2, #25
 8001358:	4311      	orrs	r1, r2
 800135a:	687a      	ldr	r2, [r7, #4]
 800135c:	6b92      	ldr	r2, [r2, #56]	@ 0x38
 800135e:	06d2      	lsls	r2, r2, #27
 8001360:	430a      	orrs	r2, r1
 8001362:	4912      	ldr	r1, [pc, #72]	@ (80013ac <HAL_RCC_OscConfig+0x778>)
 8001364:	4313      	orrs	r3, r2
 8001366:	60cb      	str	r3, [r1, #12]
                                 RCC_OscInitStruct->PLL.PLLQ,
                                 RCC_OscInitStruct->PLL.PLLR);
#endif

            /* Enable the main PLL. */
            __HAL_RCC_PLL_ENABLE();
 8001368:	4b10      	ldr	r3, [pc, #64]	@ (80013ac <HAL_RCC_OscConfig+0x778>)
 800136a:	681b      	ldr	r3, [r3, #0]
 800136c:	4a0f      	ldr	r2, [pc, #60]	@ (80013ac <HAL_RCC_OscConfig+0x778>)
 800136e:	f043 7380 	orr.w	r3, r3, #16777216	@ 0x1000000
 8001372:	6013      	str	r3, [r2, #0]

            /* Enable PLL System Clock output. */
            __HAL_RCC_PLLCLKOUT_ENABLE(RCC_PLL_SYSCLK);
 8001374:	4b0d      	ldr	r3, [pc, #52]	@ (80013ac <HAL_RCC_OscConfig+0x778>)
 8001376:	68db      	ldr	r3, [r3, #12]
 8001378:	4a0c      	ldr	r2, [pc, #48]	@ (80013ac <HAL_RCC_OscConfig+0x778>)
 800137a:	f043 7380 	orr.w	r3, r3, #16777216	@ 0x1000000
 800137e:	60d3      	str	r3, [r2, #12]

            /* Get Start Tick*/
            tickstart = HAL_GetTick();
 8001380:	f7ff f974 	bl	800066c <HAL_GetTick>
 8001384:	6138      	str	r0, [r7, #16]

            /* Wait till PLL is ready */
            while(READ_BIT(RCC->CR, RCC_CR_PLLRDY) == 0U)
 8001386:	e008      	b.n	800139a <HAL_RCC_OscConfig+0x766>
            {
              if((HAL_GetTick() - tickstart) > PLL_TIMEOUT_VALUE)
 8001388:	f7ff f970 	bl	800066c <HAL_GetTick>
 800138c:	4602      	mov	r2, r0
 800138e:	693b      	ldr	r3, [r7, #16]
 8001390:	1ad3      	subs	r3, r2, r3
 8001392:	2b02      	cmp	r3, #2
 8001394:	d901      	bls.n	800139a <HAL_RCC_OscConfig+0x766>
              {
                return HAL_TIMEOUT;
 8001396:	2303      	movs	r3, #3
 8001398:	e058      	b.n	800144c <HAL_RCC_OscConfig+0x818>
            while(READ_BIT(RCC->CR, RCC_CR_PLLRDY) == 0U)
 800139a:	4b04      	ldr	r3, [pc, #16]	@ (80013ac <HAL_RCC_OscConfig+0x778>)
 800139c:	681b      	ldr	r3, [r3, #0]
 800139e:	f003 7300 	and.w	r3, r3, #33554432	@ 0x2000000
 80013a2:	2b00      	cmp	r3, #0
 80013a4:	d0f0      	beq.n	8001388 <HAL_RCC_OscConfig+0x754>
        if(sysclk_source != RCC_CFGR_SWS_PLL)
 80013a6:	e050      	b.n	800144a <HAL_RCC_OscConfig+0x816>
          }
        }
        else
        {
          /* PLL is already used as System core clock */
          return HAL_ERROR;
 80013a8:	2301      	movs	r3, #1
 80013aa:	e04f      	b.n	800144c <HAL_RCC_OscConfig+0x818>
 80013ac:	40021000 	.word	0x40021000
 80013b0:	019d808c 	.word	0x019d808c
      }
      else
      {
        /* PLL configuration is unchanged */
        /* Re-enable PLL if it was disabled (ie. low power mode) */
        if(READ_BIT(RCC->CR, RCC_CR_PLLRDY) == 0U)
 80013b4:	4b27      	ldr	r3, [pc, #156]	@ (8001454 <HAL_RCC_OscConfig+0x820>)
 80013b6:	681b      	ldr	r3, [r3, #0]
 80013b8:	f003 7300 	and.w	r3, r3, #33554432	@ 0x2000000
 80013bc:	2b00      	cmp	r3, #0
 80013be:	d144      	bne.n	800144a <HAL_RCC_OscConfig+0x816>
        {
          /* Enable the main PLL. */
          __HAL_RCC_PLL_ENABLE();
 80013c0:	4b24      	ldr	r3, [pc, #144]	@ (8001454 <HAL_RCC_OscConfig+0x820>)
 80013c2:	681b      	ldr	r3, [r3, #0]
 80013c4:	4a23      	ldr	r2, [pc, #140]	@ (8001454 <HAL_RCC_OscConfig+0x820>)
 80013c6:	f043 7380 	orr.w	r3, r3, #16777216	@ 0x1000000
 80013ca:	6013      	str	r3, [r2, #0]

          /* Enable PLL System Clock output. */
          __HAL_RCC_PLLCLKOUT_ENABLE(RCC_PLL_SYSCLK);
 80013cc:	4b21      	ldr	r3, [pc, #132]	@ (8001454 <HAL_RCC_OscConfig+0x820>)
 80013ce:	68db      	ldr	r3, [r3, #12]
 80013d0:	4a20      	ldr	r2, [pc, #128]	@ (8001454 <HAL_RCC_OscConfig+0x820>)
 80013d2:	f043 7380 	orr.w	r3, r3, #16777216	@ 0x1000000
 80013d6:	60d3      	str	r3, [r2, #12]

          /* Get Start Tick*/
          tickstart = HAL_GetTick();
 80013d8:	f7ff f948 	bl	800066c <HAL_GetTick>
 80013dc:	6138      	str	r0, [r7, #16]

          /* Wait till PLL is ready */
          while(READ_BIT(RCC->CR, RCC_CR_PLLRDY) == 0U)
 80013de:	e008      	b.n	80013f2 <HAL_RCC_OscConfig+0x7be>
          {
            if((HAL_GetTick() - tickstart) > PLL_TIMEOUT_VALUE)
 80013e0:	f7ff f944 	bl	800066c <HAL_GetTick>
 80013e4:	4602      	mov	r2, r0
 80013e6:	693b      	ldr	r3, [r7, #16]
 80013e8:	1ad3      	subs	r3, r2, r3
 80013ea:	2b02      	cmp	r3, #2
 80013ec:	d901      	bls.n	80013f2 <HAL_RCC_OscConfig+0x7be>
            {
              return HAL_TIMEOUT;
 80013ee:	2303      	movs	r3, #3
 80013f0:	e02c      	b.n	800144c <HAL_RCC_OscConfig+0x818>
          while(READ_BIT(RCC->CR, RCC_CR_PLLRDY) == 0U)
 80013f2:	4b18      	ldr	r3, [pc, #96]	@ (8001454 <HAL_RCC_OscConfig+0x820>)
 80013f4:	681b      	ldr	r3, [r3, #0]
 80013f6:	f003 7300 	and.w	r3, r3, #33554432	@ 0x2000000
 80013fa:	2b00      	cmp	r3, #0
 80013fc:	d0f0      	beq.n	80013e0 <HAL_RCC_OscConfig+0x7ac>
 80013fe:	e024      	b.n	800144a <HAL_RCC_OscConfig+0x816>
      }
    }
    else
    {
      /* Check that PLL is not used as system clock or not */
      if(sysclk_source != RCC_CFGR_SWS_PLL)
 8001400:	69bb      	ldr	r3, [r7, #24]
 8001402:	2b0c      	cmp	r3, #12
 8001404:	d01f      	beq.n	8001446 <HAL_RCC_OscConfig+0x812>
      {
        /* Disable the main PLL. */
        __HAL_RCC_PLL_DISABLE();
 8001406:	4b13      	ldr	r3, [pc, #76]	@ (8001454 <HAL_RCC_OscConfig+0x820>)
 8001408:	681b      	ldr	r3, [r3, #0]
 800140a:	4a12      	ldr	r2, [pc, #72]	@ (8001454 <HAL_RCC_OscConfig+0x820>)
 800140c:	f023 7380 	bic.w	r3, r3, #16777216	@ 0x1000000
 8001410:	6013      	str	r3, [r2, #0]

        /* Get Start Tick*/
        tickstart = HAL_GetTick();
 8001412:	f7ff f92b 	bl	800066c <HAL_GetTick>
 8001416:	6138      	str	r0, [r7, #16]

        /* Wait till PLL is disabled */
        while(READ_BIT(RCC->CR, RCC_CR_PLLRDY) != 0U)
 8001418:	e008      	b.n	800142c <HAL_RCC_OscConfig+0x7f8>
        {
          if((HAL_GetTick() - tickstart) > PLL_TIMEOUT_VALUE)
 800141a:	f7ff f927 	bl	800066c <HAL_GetTick>
 800141e:	4602      	mov	r2, r0
 8001420:	693b      	ldr	r3, [r7, #16]
 8001422:	1ad3      	subs	r3, r2, r3
 8001424:	2b02      	cmp	r3, #2
 8001426:	d901      	bls.n	800142c <HAL_RCC_OscConfig+0x7f8>
          {
            return HAL_TIMEOUT;
 8001428:	2303      	movs	r3, #3
 800142a:	e00f      	b.n	800144c <HAL_RCC_OscConfig+0x818>
        while(READ_BIT(RCC->CR, RCC_CR_PLLRDY) != 0U)
 800142c:	4b09      	ldr	r3, [pc, #36]	@ (8001454 <HAL_RCC_OscConfig+0x820>)
 800142e:	681b      	ldr	r3, [r3, #0]
 8001430:	f003 7300 	and.w	r3, r3, #33554432	@ 0x2000000
 8001434:	2b00      	cmp	r3, #0
 8001436:	d1f0      	bne.n	800141a <HAL_RCC_OscConfig+0x7e6>
        }
        /* Unselect main PLL clock source and disable main PLL outputs to save power */
#if defined(RCC_PLLSAI2_SUPPORT)
        RCC->PLLCFGR &= ~(RCC_PLLCFGR_PLLSRC | RCC_PLL_SYSCLK | RCC_PLL_48M1CLK | RCC_PLL_SAI3CLK);
#elif defined(RCC_PLLSAI1_SUPPORT)
        RCC->PLLCFGR &= ~(RCC_PLLCFGR_PLLSRC | RCC_PLL_SYSCLK | RCC_PLL_48M1CLK | RCC_PLL_SAI2CLK);
 8001438:	4b06      	ldr	r3, [pc, #24]	@ (8001454 <HAL_RCC_OscConfig+0x820>)
 800143a:	68da      	ldr	r2, [r3, #12]
 800143c:	4905      	ldr	r1, [pc, #20]	@ (8001454 <HAL_RCC_OscConfig+0x820>)
 800143e:	4b06      	ldr	r3, [pc, #24]	@ (8001458 <HAL_RCC_OscConfig+0x824>)
 8001440:	4013      	ands	r3, r2
 8001442:	60cb      	str	r3, [r1, #12]
 8001444:	e001      	b.n	800144a <HAL_RCC_OscConfig+0x816>
#endif /* RCC_PLLSAI2_SUPPORT */
      }
      else
      {
        /* PLL is already used as System core clock */
        return HAL_ERROR;
 8001446:	2301      	movs	r3, #1
 8001448:	e000      	b.n	800144c <HAL_RCC_OscConfig+0x818>
      }
    }
  }
  return HAL_OK;
 800144a:	2300      	movs	r3, #0
}
 800144c:	4618      	mov	r0, r3
 800144e:	3720      	adds	r7, #32
 8001450:	46bd      	mov	sp, r7
 8001452:	bd80      	pop	{r7, pc}
 8001454:	40021000 	.word	0x40021000
 8001458:	feeefffc 	.word	0xfeeefffc

0800145c <HAL_RCC_ClockConfig>:
  *         HPRE[3:0] bits to ensure that HCLK not exceed the maximum allowed frequency
  *         (for more details refer to section above "Initialization/de-initialization functions")
  * @retval None
  */
HAL_StatusTypeDef HAL_RCC_ClockConfig(const RCC_ClkInitTypeDef  *RCC_ClkInitStruct, uint32_t FLatency)
{
 800145c:	b580      	push	{r7, lr}
 800145e:	b084      	sub	sp, #16
 8001460:	af00      	add	r7, sp, #0
 8001462:	6078      	str	r0, [r7, #4]
 8001464:	6039      	str	r1, [r7, #0]
  uint32_t hpre = RCC_SYSCLK_DIV1;
#endif
  HAL_StatusTypeDef status;

  /* Check Null pointer */
  if(RCC_ClkInitStruct == NULL)
 8001466:	687b      	ldr	r3, [r7, #4]
 8001468:	2b00      	cmp	r3, #0
 800146a:	d101      	bne.n	8001470 <HAL_RCC_ClockConfig+0x14>
  {
    return HAL_ERROR;
 800146c:	2301      	movs	r3, #1
 800146e:	e0e7      	b.n	8001640 <HAL_RCC_ClockConfig+0x1e4>
  /* To correctly read data from FLASH memory, the number of wait states (LATENCY)
    must be correctly programmed according to the frequency of the CPU clock
    (HCLK) and the supply voltage of the device. */

  /* Increasing the number of wait states because of higher CPU frequency */
  if(FLatency > __HAL_FLASH_GET_LATENCY())
 8001470:	4b75      	ldr	r3, [pc, #468]	@ (8001648 <HAL_RCC_ClockConfig+0x1ec>)
 8001472:	681b      	ldr	r3, [r3, #0]
 8001474:	f003 0307 	and.w	r3, r3, #7
 8001478:	683a      	ldr	r2, [r7, #0]
 800147a:	429a      	cmp	r2, r3
 800147c:	d910      	bls.n	80014a0 <HAL_RCC_ClockConfig+0x44>
  {
    /* Program the new number of wait states to the LATENCY bits in the FLASH_ACR register */
    __HAL_FLASH_SET_LATENCY(FLatency);
 800147e:	4b72      	ldr	r3, [pc, #456]	@ (8001648 <HAL_RCC_ClockConfig+0x1ec>)
 8001480:	681b      	ldr	r3, [r3, #0]
 8001482:	f023 0207 	bic.w	r2, r3, #7
 8001486:	4970      	ldr	r1, [pc, #448]	@ (8001648 <HAL_RCC_ClockConfig+0x1ec>)
 8001488:	683b      	ldr	r3, [r7, #0]
 800148a:	4313      	orrs	r3, r2
 800148c:	600b      	str	r3, [r1, #0]

    /* Check that the new number of wait states is taken into account to access the Flash
    memory by reading the FLASH_ACR register */
    if(__HAL_FLASH_GET_LATENCY() != FLatency)
 800148e:	4b6e      	ldr	r3, [pc, #440]	@ (8001648 <HAL_RCC_ClockConfig+0x1ec>)
 8001490:	681b      	ldr	r3, [r3, #0]
 8001492:	f003 0307 	and.w	r3, r3, #7
 8001496:	683a      	ldr	r2, [r7, #0]
 8001498:	429a      	cmp	r2, r3
 800149a:	d001      	beq.n	80014a0 <HAL_RCC_ClockConfig+0x44>
    {
      return HAL_ERROR;
 800149c:	2301      	movs	r3, #1
 800149e:	e0cf      	b.n	8001640 <HAL_RCC_ClockConfig+0x1e4>
    }
  }

  /*----------------- HCLK Configuration prior to SYSCLK----------------------*/
  /* Apply higher HCLK prescaler request here to ensure CPU clock is not of of spec when SYSCLK is increased */
  if(((RCC_ClkInitStruct->ClockType) & RCC_CLOCKTYPE_HCLK) == RCC_CLOCKTYPE_HCLK)
 80014a0:	687b      	ldr	r3, [r7, #4]
 80014a2:	681b      	ldr	r3, [r3, #0]
 80014a4:	f003 0302 	and.w	r3, r3, #2
 80014a8:	2b00      	cmp	r3, #0
 80014aa:	d010      	beq.n	80014ce <HAL_RCC_ClockConfig+0x72>
  {
    assert_param(IS_RCC_HCLK(RCC_ClkInitStruct->AHBCLKDivider));

    if(RCC_ClkInitStruct->AHBCLKDivider > READ_BIT(RCC->CFGR, RCC_CFGR_HPRE))
 80014ac:	687b      	ldr	r3, [r7, #4]
 80014ae:	689a      	ldr	r2, [r3, #8]
 80014b0:	4b66      	ldr	r3, [pc, #408]	@ (800164c <HAL_RCC_ClockConfig+0x1f0>)
 80014b2:	689b      	ldr	r3, [r3, #8]
 80014b4:	f003 03f0 	and.w	r3, r3, #240	@ 0xf0
 80014b8:	429a      	cmp	r2, r3
 80014ba:	d908      	bls.n	80014ce <HAL_RCC_ClockConfig+0x72>
    {
      MODIFY_REG(RCC->CFGR, RCC_CFGR_HPRE, RCC_ClkInitStruct->AHBCLKDivider);
 80014bc:	4b63      	ldr	r3, [pc, #396]	@ (800164c <HAL_RCC_ClockConfig+0x1f0>)
 80014be:	689b      	ldr	r3, [r3, #8]
 80014c0:	f023 02f0 	bic.w	r2, r3, #240	@ 0xf0
 80014c4:	687b      	ldr	r3, [r7, #4]
 80014c6:	689b      	ldr	r3, [r3, #8]
 80014c8:	4960      	ldr	r1, [pc, #384]	@ (800164c <HAL_RCC_ClockConfig+0x1f0>)
 80014ca:	4313      	orrs	r3, r2
 80014cc:	608b      	str	r3, [r1, #8]
    }
  }

  /*------------------------- SYSCLK Configuration ---------------------------*/
  if(((RCC_ClkInitStruct->ClockType) & RCC_CLOCKTYPE_SYSCLK) == RCC_CLOCKTYPE_SYSCLK)
 80014ce:	687b      	ldr	r3, [r7, #4]
 80014d0:	681b      	ldr	r3, [r3, #0]
 80014d2:	f003 0301 	and.w	r3, r3, #1
 80014d6:	2b00      	cmp	r3, #0
 80014d8:	d04c      	beq.n	8001574 <HAL_RCC_ClockConfig+0x118>
  {
    assert_param(IS_RCC_SYSCLKSOURCE(RCC_ClkInitStruct->SYSCLKSource));

    /* PLL is selected as System Clock Source */
    if(RCC_ClkInitStruct->SYSCLKSource == RCC_SYSCLKSOURCE_PLLCLK)
 80014da:	687b      	ldr	r3, [r7, #4]
 80014dc:	685b      	ldr	r3, [r3, #4]
 80014de:	2b03      	cmp	r3, #3
 80014e0:	d107      	bne.n	80014f2 <HAL_RCC_ClockConfig+0x96>
    {
      /* Check the PLL ready flag */
      if(READ_BIT(RCC->CR, RCC_CR_PLLRDY) == 0U)
 80014e2:	4b5a      	ldr	r3, [pc, #360]	@ (800164c <HAL_RCC_ClockConfig+0x1f0>)
 80014e4:	681b      	ldr	r3, [r3, #0]
 80014e6:	f003 7300 	and.w	r3, r3, #33554432	@ 0x2000000
 80014ea:	2b00      	cmp	r3, #0
 80014ec:	d121      	bne.n	8001532 <HAL_RCC_ClockConfig+0xd6>
      {
        return HAL_ERROR;
 80014ee:	2301      	movs	r3, #1
 80014f0:	e0a6      	b.n	8001640 <HAL_RCC_ClockConfig+0x1e4>
#endif
    }
    else
    {
      /* HSE is selected as System Clock Source */
      if(RCC_ClkInitStruct->SYSCLKSource == RCC_SYSCLKSOURCE_HSE)
 80014f2:	687b      	ldr	r3, [r7, #4]
 80014f4:	685b      	ldr	r3, [r3, #4]
 80014f6:	2b02      	cmp	r3, #2
 80014f8:	d107      	bne.n	800150a <HAL_RCC_ClockConfig+0xae>
      {
        /* Check the HSE ready flag */
        if(READ_BIT(RCC->CR, RCC_CR_HSERDY) == 0U)
 80014fa:	4b54      	ldr	r3, [pc, #336]	@ (800164c <HAL_RCC_ClockConfig+0x1f0>)
 80014fc:	681b      	ldr	r3, [r3, #0]
 80014fe:	f403 3300 	and.w	r3, r3, #131072	@ 0x20000
 8001502:	2b00      	cmp	r3, #0
 8001504:	d115      	bne.n	8001532 <HAL_RCC_ClockConfig+0xd6>
        {
          return HAL_ERROR;
 8001506:	2301      	movs	r3, #1
 8001508:	e09a      	b.n	8001640 <HAL_RCC_ClockConfig+0x1e4>
        }
      }
      /* MSI is selected as System Clock Source */
      else if(RCC_ClkInitStruct->SYSCLKSource == RCC_SYSCLKSOURCE_MSI)
 800150a:	687b      	ldr	r3, [r7, #4]
 800150c:	685b      	ldr	r3, [r3, #4]
 800150e:	2b00      	cmp	r3, #0
 8001510:	d107      	bne.n	8001522 <HAL_RCC_ClockConfig+0xc6>
      {
        /* Check the MSI ready flag */
        if(READ_BIT(RCC->CR, RCC_CR_MSIRDY) == 0U)
 8001512:	4b4e      	ldr	r3, [pc, #312]	@ (800164c <HAL_RCC_ClockConfig+0x1f0>)
 8001514:	681b      	ldr	r3, [r3, #0]
 8001516:	f003 0302 	and.w	r3, r3, #2
 800151a:	2b00      	cmp	r3, #0
 800151c:	d109      	bne.n	8001532 <HAL_RCC_ClockConfig+0xd6>
        {
          return HAL_ERROR;
 800151e:	2301      	movs	r3, #1
 8001520:	e08e      	b.n	8001640 <HAL_RCC_ClockConfig+0x1e4>
      }
      /* HSI is selected as System Clock Source */
      else
      {
        /* Check the HSI ready flag */
        if(READ_BIT(RCC->CR, RCC_CR_HSIRDY) == 0U)
 8001522:	4b4a      	ldr	r3, [pc, #296]	@ (800164c <HAL_RCC_ClockConfig+0x1f0>)
 8001524:	681b      	ldr	r3, [r3, #0]
 8001526:	f403 6380 	and.w	r3, r3, #1024	@ 0x400
 800152a:	2b00      	cmp	r3, #0
 800152c:	d101      	bne.n	8001532 <HAL_RCC_ClockConfig+0xd6>
        {
          return HAL_ERROR;
 800152e:	2301      	movs	r3, #1
 8001530:	e086      	b.n	8001640 <HAL_RCC_ClockConfig+0x1e4>
      }
#endif

    }

    MODIFY_REG(RCC->CFGR, RCC_CFGR_SW, RCC_ClkInitStruct->SYSCLKSource);
 8001532:	4b46      	ldr	r3, [pc, #280]	@ (800164c <HAL_RCC_ClockConfig+0x1f0>)
 8001534:	689b      	ldr	r3, [r3, #8]
 8001536:	f023 0203 	bic.w	r2, r3, #3
 800153a:	687b      	ldr	r3, [r7, #4]
 800153c:	685b      	ldr	r3, [r3, #4]
 800153e:	4943      	ldr	r1, [pc, #268]	@ (800164c <HAL_RCC_ClockConfig+0x1f0>)
 8001540:	4313      	orrs	r3, r2
 8001542:	608b      	str	r3, [r1, #8]

    /* Get Start Tick*/
    tickstart = HAL_GetTick();
 8001544:	f7ff f892 	bl	800066c <HAL_GetTick>
 8001548:	60f8      	str	r0, [r7, #12]

    while(__HAL_RCC_GET_SYSCLK_SOURCE() != (RCC_ClkInitStruct->SYSCLKSource << RCC_CFGR_SWS_Pos))
 800154a:	e00a      	b.n	8001562 <HAL_RCC_ClockConfig+0x106>
    {
      if((HAL_GetTick() - tickstart) > CLOCKSWITCH_TIMEOUT_VALUE)
 800154c:	f7ff f88e 	bl	800066c <HAL_GetTick>
 8001550:	4602      	mov	r2, r0
 8001552:	68fb      	ldr	r3, [r7, #12]
 8001554:	1ad3      	subs	r3, r2, r3
 8001556:	f241 3288 	movw	r2, #5000	@ 0x1388
 800155a:	4293      	cmp	r3, r2
 800155c:	d901      	bls.n	8001562 <HAL_RCC_ClockConfig+0x106>
      {
        return HAL_TIMEOUT;
 800155e:	2303      	movs	r3, #3
 8001560:	e06e      	b.n	8001640 <HAL_RCC_ClockConfig+0x1e4>
    while(__HAL_RCC_GET_SYSCLK_SOURCE() != (RCC_ClkInitStruct->SYSCLKSource << RCC_CFGR_SWS_Pos))
 8001562:	4b3a      	ldr	r3, [pc, #232]	@ (800164c <HAL_RCC_ClockConfig+0x1f0>)
 8001564:	689b      	ldr	r3, [r3, #8]
 8001566:	f003 020c 	and.w	r2, r3, #12
 800156a:	687b      	ldr	r3, [r7, #4]
 800156c:	685b      	ldr	r3, [r3, #4]
 800156e:	009b      	lsls	r3, r3, #2
 8001570:	429a      	cmp	r2, r3
 8001572:	d1eb      	bne.n	800154c <HAL_RCC_ClockConfig+0xf0>
  }
#endif

  /*----------------- HCLK Configuration after SYSCLK-------------------------*/
  /* Apply lower HCLK prescaler request here to ensure CPU clock is not of of spec when SYSCLK is set */
  if(((RCC_ClkInitStruct->ClockType) & RCC_CLOCKTYPE_HCLK) == RCC_CLOCKTYPE_HCLK)
 8001574:	687b      	ldr	r3, [r7, #4]
 8001576:	681b      	ldr	r3, [r3, #0]
 8001578:	f003 0302 	and.w	r3, r3, #2
 800157c:	2b00      	cmp	r3, #0
 800157e:	d010      	beq.n	80015a2 <HAL_RCC_ClockConfig+0x146>
  {
    if(RCC_ClkInitStruct->AHBCLKDivider < READ_BIT(RCC->CFGR, RCC_CFGR_HPRE))
 8001580:	687b      	ldr	r3, [r7, #4]
 8001582:	689a      	ldr	r2, [r3, #8]
 8001584:	4b31      	ldr	r3, [pc, #196]	@ (800164c <HAL_RCC_ClockConfig+0x1f0>)
 8001586:	689b      	ldr	r3, [r3, #8]
 8001588:	f003 03f0 	and.w	r3, r3, #240	@ 0xf0
 800158c:	429a      	cmp	r2, r3
 800158e:	d208      	bcs.n	80015a2 <HAL_RCC_ClockConfig+0x146>
    {
      MODIFY_REG(RCC->CFGR, RCC_CFGR_HPRE, RCC_ClkInitStruct->AHBCLKDivider);
 8001590:	4b2e      	ldr	r3, [pc, #184]	@ (800164c <HAL_RCC_ClockConfig+0x1f0>)
 8001592:	689b      	ldr	r3, [r3, #8]
 8001594:	f023 02f0 	bic.w	r2, r3, #240	@ 0xf0
 8001598:	687b      	ldr	r3, [r7, #4]
 800159a:	689b      	ldr	r3, [r3, #8]
 800159c:	492b      	ldr	r1, [pc, #172]	@ (800164c <HAL_RCC_ClockConfig+0x1f0>)
 800159e:	4313      	orrs	r3, r2
 80015a0:	608b      	str	r3, [r1, #8]
    }
  }

  /* Allow decreasing of the number of wait states (because of lower CPU frequency expected) */
  if(FLatency < __HAL_FLASH_GET_LATENCY())
 80015a2:	4b29      	ldr	r3, [pc, #164]	@ (8001648 <HAL_RCC_ClockConfig+0x1ec>)
 80015a4:	681b      	ldr	r3, [r3, #0]
 80015a6:	f003 0307 	and.w	r3, r3, #7
 80015aa:	683a      	ldr	r2, [r7, #0]
 80015ac:	429a      	cmp	r2, r3
 80015ae:	d210      	bcs.n	80015d2 <HAL_RCC_ClockConfig+0x176>
  {
    /* Program the new number of wait states to the LATENCY bits in the FLASH_ACR register */
    __HAL_FLASH_SET_LATENCY(FLatency);
 80015b0:	4b25      	ldr	r3, [pc, #148]	@ (8001648 <HAL_RCC_ClockConfig+0x1ec>)
 80015b2:	681b      	ldr	r3, [r3, #0]
 80015b4:	f023 0207 	bic.w	r2, r3, #7
 80015b8:	4923      	ldr	r1, [pc, #140]	@ (8001648 <HAL_RCC_ClockConfig+0x1ec>)
 80015ba:	683b      	ldr	r3, [r7, #0]
 80015bc:	4313      	orrs	r3, r2
 80015be:	600b      	str	r3, [r1, #0]

    /* Check that the new number of wait states is taken into account to access the Flash
    memory by reading the FLASH_ACR register */
    if(__HAL_FLASH_GET_LATENCY() != FLatency)
 80015c0:	4b21      	ldr	r3, [pc, #132]	@ (8001648 <HAL_RCC_ClockConfig+0x1ec>)
 80015c2:	681b      	ldr	r3, [r3, #0]
 80015c4:	f003 0307 	and.w	r3, r3, #7
 80015c8:	683a      	ldr	r2, [r7, #0]
 80015ca:	429a      	cmp	r2, r3
 80015cc:	d001      	beq.n	80015d2 <HAL_RCC_ClockConfig+0x176>
    {
      return HAL_ERROR;
 80015ce:	2301      	movs	r3, #1
 80015d0:	e036      	b.n	8001640 <HAL_RCC_ClockConfig+0x1e4>
    }
  }

  /*-------------------------- PCLK1 Configuration ---------------------------*/
  if(((RCC_ClkInitStruct->ClockType) & RCC_CLOCKTYPE_PCLK1) == RCC_CLOCKTYPE_PCLK1)
 80015d2:	687b      	ldr	r3, [r7, #4]
 80015d4:	681b      	ldr	r3, [r3, #0]
 80015d6:	f003 0304 	and.w	r3, r3, #4
 80015da:	2b00      	cmp	r3, #0
 80015dc:	d008      	beq.n	80015f0 <HAL_RCC_ClockConfig+0x194>
  {
    assert_param(IS_RCC_PCLK(RCC_ClkInitStruct->APB1CLKDivider));
    MODIFY_REG(RCC->CFGR, RCC_CFGR_PPRE1, RCC_ClkInitStruct->APB1CLKDivider);
 80015de:	4b1b      	ldr	r3, [pc, #108]	@ (800164c <HAL_RCC_ClockConfig+0x1f0>)
 80015e0:	689b      	ldr	r3, [r3, #8]
 80015e2:	f423 62e0 	bic.w	r2, r3, #1792	@ 0x700
 80015e6:	687b      	ldr	r3, [r7, #4]
 80015e8:	68db      	ldr	r3, [r3, #12]
 80015ea:	4918      	ldr	r1, [pc, #96]	@ (800164c <HAL_RCC_ClockConfig+0x1f0>)
 80015ec:	4313      	orrs	r3, r2
 80015ee:	608b      	str	r3, [r1, #8]
  }

  /*-------------------------- PCLK2 Configuration ---------------------------*/
  if(((RCC_ClkInitStruct->ClockType) & RCC_CLOCKTYPE_PCLK2) == RCC_CLOCKTYPE_PCLK2)
 80015f0:	687b      	ldr	r3, [r7, #4]
 80015f2:	681b      	ldr	r3, [r3, #0]
 80015f4:	f003 0308 	and.w	r3, r3, #8
 80015f8:	2b00      	cmp	r3, #0
 80015fa:	d009      	beq.n	8001610 <HAL_RCC_ClockConfig+0x1b4>
  {
    assert_param(IS_RCC_PCLK(RCC_ClkInitStruct->APB2CLKDivider));
    MODIFY_REG(RCC->CFGR, RCC_CFGR_PPRE2, ((RCC_ClkInitStruct->APB2CLKDivider) << 3U));
 80015fc:	4b13      	ldr	r3, [pc, #76]	@ (800164c <HAL_RCC_ClockConfig+0x1f0>)
 80015fe:	689b      	ldr	r3, [r3, #8]
 8001600:	f423 5260 	bic.w	r2, r3, #14336	@ 0x3800
 8001604:	687b      	ldr	r3, [r7, #4]
 8001606:	691b      	ldr	r3, [r3, #16]
 8001608:	00db      	lsls	r3, r3, #3
 800160a:	4910      	ldr	r1, [pc, #64]	@ (800164c <HAL_RCC_ClockConfig+0x1f0>)
 800160c:	4313      	orrs	r3, r2
 800160e:	608b      	str	r3, [r1, #8]
  }

  /* Update the SystemCoreClock global variable */
  SystemCoreClock = HAL_RCC_GetSysClockFreq() >> (AHBPrescTable[READ_BIT(RCC->CFGR, RCC_CFGR_HPRE) >> RCC_CFGR_HPRE_Pos] & 0x1FU);
 8001610:	f000 f824 	bl	800165c <HAL_RCC_GetSysClockFreq>
 8001614:	4602      	mov	r2, r0
 8001616:	4b0d      	ldr	r3, [pc, #52]	@ (800164c <HAL_RCC_ClockConfig+0x1f0>)
 8001618:	689b      	ldr	r3, [r3, #8]
 800161a:	091b      	lsrs	r3, r3, #4
 800161c:	f003 030f 	and.w	r3, r3, #15
 8001620:	490b      	ldr	r1, [pc, #44]	@ (8001650 <HAL_RCC_ClockConfig+0x1f4>)
 8001622:	5ccb      	ldrb	r3, [r1, r3]
 8001624:	f003 031f 	and.w	r3, r3, #31
 8001628:	fa22 f303 	lsr.w	r3, r2, r3
 800162c:	4a09      	ldr	r2, [pc, #36]	@ (8001654 <HAL_RCC_ClockConfig+0x1f8>)
 800162e:	6013      	str	r3, [r2, #0]

  /* Configure the source of time base considering new system clocks settings*/
  status = HAL_InitTick(uwTickPrio);
 8001630:	4b09      	ldr	r3, [pc, #36]	@ (8001658 <HAL_RCC_ClockConfig+0x1fc>)
 8001632:	681b      	ldr	r3, [r3, #0]
 8001634:	4618      	mov	r0, r3
 8001636:	f7fe ffc9 	bl	80005cc <HAL_InitTick>
 800163a:	4603      	mov	r3, r0
 800163c:	72fb      	strb	r3, [r7, #11]

  return status;
 800163e:	7afb      	ldrb	r3, [r7, #11]
}
 8001640:	4618      	mov	r0, r3
 8001642:	3710      	adds	r7, #16
 8001644:	46bd      	mov	sp, r7
 8001646:	bd80      	pop	{r7, pc}
 8001648:	40022000 	.word	0x40022000
 800164c:	40021000 	.word	0x40021000
 8001650:	08007594 	.word	0x08007594
 8001654:	20000008 	.word	0x20000008
 8001658:	20000000 	.word	0x20000000

0800165c <HAL_RCC_GetSysClockFreq>:
  *
  *
  * @retval SYSCLK frequency
  */
uint32_t HAL_RCC_GetSysClockFreq(void)
{
 800165c:	b480      	push	{r7}
 800165e:	b089      	sub	sp, #36	@ 0x24
 8001660:	af00      	add	r7, sp, #0
  uint32_t msirange = 0U, sysclockfreq = 0U;
 8001662:	2300      	movs	r3, #0
 8001664:	61fb      	str	r3, [r7, #28]
 8001666:	2300      	movs	r3, #0
 8001668:	61bb      	str	r3, [r7, #24]
  uint32_t pllvco, pllsource, pllr, pllm;    /* no init needed */
  uint32_t sysclk_source, pll_oscsource;

  sysclk_source = __HAL_RCC_GET_SYSCLK_SOURCE();
 800166a:	4b3e      	ldr	r3, [pc, #248]	@ (8001764 <HAL_RCC_GetSysClockFreq+0x108>)
 800166c:	689b      	ldr	r3, [r3, #8]
 800166e:	f003 030c 	and.w	r3, r3, #12
 8001672:	613b      	str	r3, [r7, #16]
  pll_oscsource = __HAL_RCC_GET_PLL_OSCSOURCE();
 8001674:	4b3b      	ldr	r3, [pc, #236]	@ (8001764 <HAL_RCC_GetSysClockFreq+0x108>)
 8001676:	68db      	ldr	r3, [r3, #12]
 8001678:	f003 0303 	and.w	r3, r3, #3
 800167c:	60fb      	str	r3, [r7, #12]

  if((sysclk_source == RCC_CFGR_SWS_MSI) ||
 800167e:	693b      	ldr	r3, [r7, #16]
 8001680:	2b00      	cmp	r3, #0
 8001682:	d005      	beq.n	8001690 <HAL_RCC_GetSysClockFreq+0x34>
 8001684:	693b      	ldr	r3, [r7, #16]
 8001686:	2b0c      	cmp	r3, #12
 8001688:	d121      	bne.n	80016ce <HAL_RCC_GetSysClockFreq+0x72>
     ((sysclk_source == RCC_CFGR_SWS_PLL) && (pll_oscsource == RCC_PLLSOURCE_MSI)))
 800168a:	68fb      	ldr	r3, [r7, #12]
 800168c:	2b01      	cmp	r3, #1
 800168e:	d11e      	bne.n	80016ce <HAL_RCC_GetSysClockFreq+0x72>
  {
    /* MSI or PLL with MSI source used as system clock source */

    /* Get SYSCLK source */
    if(READ_BIT(RCC->CR, RCC_CR_MSIRGSEL) == 0U)
 8001690:	4b34      	ldr	r3, [pc, #208]	@ (8001764 <HAL_RCC_GetSysClockFreq+0x108>)
 8001692:	681b      	ldr	r3, [r3, #0]
 8001694:	f003 0308 	and.w	r3, r3, #8
 8001698:	2b00      	cmp	r3, #0
 800169a:	d107      	bne.n	80016ac <HAL_RCC_GetSysClockFreq+0x50>
    { /* MSISRANGE from RCC_CSR applies */
      msirange = READ_BIT(RCC->CSR, RCC_CSR_MSISRANGE) >> RCC_CSR_MSISRANGE_Pos;
 800169c:	4b31      	ldr	r3, [pc, #196]	@ (8001764 <HAL_RCC_GetSysClockFreq+0x108>)
 800169e:	f8d3 3094 	ldr.w	r3, [r3, #148]	@ 0x94
 80016a2:	0a1b      	lsrs	r3, r3, #8
 80016a4:	f003 030f 	and.w	r3, r3, #15
 80016a8:	61fb      	str	r3, [r7, #28]
 80016aa:	e005      	b.n	80016b8 <HAL_RCC_GetSysClockFreq+0x5c>
    }
    else
    { /* MSIRANGE from RCC_CR applies */
      msirange = READ_BIT(RCC->CR, RCC_CR_MSIRANGE) >> RCC_CR_MSIRANGE_Pos;
 80016ac:	4b2d      	ldr	r3, [pc, #180]	@ (8001764 <HAL_RCC_GetSysClockFreq+0x108>)
 80016ae:	681b      	ldr	r3, [r3, #0]
 80016b0:	091b      	lsrs	r3, r3, #4
 80016b2:	f003 030f 	and.w	r3, r3, #15
 80016b6:	61fb      	str	r3, [r7, #28]
    }
    /*MSI frequency range in HZ*/
    msirange = MSIRangeTable[msirange];
 80016b8:	4a2b      	ldr	r2, [pc, #172]	@ (8001768 <HAL_RCC_GetSysClockFreq+0x10c>)
 80016ba:	69fb      	ldr	r3, [r7, #28]
 80016bc:	f852 3023 	ldr.w	r3, [r2, r3, lsl #2]
 80016c0:	61fb      	str	r3, [r7, #28]

    if(sysclk_source == RCC_CFGR_SWS_MSI)
 80016c2:	693b      	ldr	r3, [r7, #16]
 80016c4:	2b00      	cmp	r3, #0
 80016c6:	d10d      	bne.n	80016e4 <HAL_RCC_GetSysClockFreq+0x88>
    {
      /* MSI used as system clock source */
      sysclockfreq = msirange;
 80016c8:	69fb      	ldr	r3, [r7, #28]
 80016ca:	61bb      	str	r3, [r7, #24]
    if(sysclk_source == RCC_CFGR_SWS_MSI)
 80016cc:	e00a      	b.n	80016e4 <HAL_RCC_GetSysClockFreq+0x88>
    }
  }
  else if(sysclk_source == RCC_CFGR_SWS_HSI)
 80016ce:	693b      	ldr	r3, [r7, #16]
 80016d0:	2b04      	cmp	r3, #4
 80016d2:	d102      	bne.n	80016da <HAL_RCC_GetSysClockFreq+0x7e>
  {
    /* HSI used as system clock source */
    sysclockfreq = HSI_VALUE;
 80016d4:	4b25      	ldr	r3, [pc, #148]	@ (800176c <HAL_RCC_GetSysClockFreq+0x110>)
 80016d6:	61bb      	str	r3, [r7, #24]
 80016d8:	e004      	b.n	80016e4 <HAL_RCC_GetSysClockFreq+0x88>
  }
  else if(sysclk_source == RCC_CFGR_SWS_HSE)
 80016da:	693b      	ldr	r3, [r7, #16]
 80016dc:	2b08      	cmp	r3, #8
 80016de:	d101      	bne.n	80016e4 <HAL_RCC_GetSysClockFreq+0x88>
  {
    /* HSE used as system clock source */
    sysclockfreq = HSE_VALUE;
 80016e0:	4b23      	ldr	r3, [pc, #140]	@ (8001770 <HAL_RCC_GetSysClockFreq+0x114>)
 80016e2:	61bb      	str	r3, [r7, #24]
  else
  {
    /* unexpected case: sysclockfreq at 0 */
  }

  if(sysclk_source == RCC_CFGR_SWS_PLL)
 80016e4:	693b      	ldr	r3, [r7, #16]
 80016e6:	2b0c      	cmp	r3, #12
 80016e8:	d134      	bne.n	8001754 <HAL_RCC_GetSysClockFreq+0xf8>
    /* PLL used as system clock  source */

    /* PLL_VCO = (HSE_VALUE or HSI_VALUE or MSI_VALUE) * PLLN / PLLM
    SYSCLK = PLL_VCO / PLLR
    */
    pllsource = READ_BIT(RCC->PLLCFGR, RCC_PLLCFGR_PLLSRC);
 80016ea:	4b1e      	ldr	r3, [pc, #120]	@ (8001764 <HAL_RCC_GetSysClockFreq+0x108>)
 80016ec:	68db      	ldr	r3, [r3, #12]
 80016ee:	f003 0303 	and.w	r3, r3, #3
 80016f2:	60bb      	str	r3, [r7, #8]

    switch (pllsource)
 80016f4:	68bb      	ldr	r3, [r7, #8]
 80016f6:	2b02      	cmp	r3, #2
 80016f8:	d003      	beq.n	8001702 <HAL_RCC_GetSysClockFreq+0xa6>
 80016fa:	68bb      	ldr	r3, [r7, #8]
 80016fc:	2b03      	cmp	r3, #3
 80016fe:	d003      	beq.n	8001708 <HAL_RCC_GetSysClockFreq+0xac>
 8001700:	e005      	b.n	800170e <HAL_RCC_GetSysClockFreq+0xb2>
    {
    case RCC_PLLSOURCE_HSI:  /* HSI used as PLL clock source */
      pllvco = HSI_VALUE;
 8001702:	4b1a      	ldr	r3, [pc, #104]	@ (800176c <HAL_RCC_GetSysClockFreq+0x110>)
 8001704:	617b      	str	r3, [r7, #20]
      break;
 8001706:	e005      	b.n	8001714 <HAL_RCC_GetSysClockFreq+0xb8>

    case RCC_PLLSOURCE_HSE:  /* HSE used as PLL clock source */
      pllvco = HSE_VALUE;
 8001708:	4b19      	ldr	r3, [pc, #100]	@ (8001770 <HAL_RCC_GetSysClockFreq+0x114>)
 800170a:	617b      	str	r3, [r7, #20]
      break;
 800170c:	e002      	b.n	8001714 <HAL_RCC_GetSysClockFreq+0xb8>

    case RCC_PLLSOURCE_MSI:  /* MSI used as PLL clock source */
    default:
      pllvco = msirange;
 800170e:	69fb      	ldr	r3, [r7, #28]
 8001710:	617b      	str	r3, [r7, #20]
      break;
 8001712:	bf00      	nop
    }
    pllm = (READ_BIT(RCC->PLLCFGR, RCC_PLLCFGR_PLLM) >> RCC_PLLCFGR_PLLM_Pos) + 1U ;
 8001714:	4b13      	ldr	r3, [pc, #76]	@ (8001764 <HAL_RCC_GetSysClockFreq+0x108>)
 8001716:	68db      	ldr	r3, [r3, #12]
 8001718:	091b      	lsrs	r3, r3, #4
 800171a:	f003 0307 	and.w	r3, r3, #7
 800171e:	3301      	adds	r3, #1
 8001720:	607b      	str	r3, [r7, #4]
    pllvco = (pllvco * (READ_BIT(RCC->PLLCFGR, RCC_PLLCFGR_PLLN) >> RCC_PLLCFGR_PLLN_Pos)) / pllm;
 8001722:	4b10      	ldr	r3, [pc, #64]	@ (8001764 <HAL_RCC_GetSysClockFreq+0x108>)
 8001724:	68db      	ldr	r3, [r3, #12]
 8001726:	0a1b      	lsrs	r3, r3, #8
 8001728:	f003 037f 	and.w	r3, r3, #127	@ 0x7f
 800172c:	697a      	ldr	r2, [r7, #20]
 800172e:	fb03 f202 	mul.w	r2, r3, r2
 8001732:	687b      	ldr	r3, [r7, #4]
 8001734:	fbb2 f3f3 	udiv	r3, r2, r3
 8001738:	617b      	str	r3, [r7, #20]
    pllr = ((READ_BIT(RCC->PLLCFGR, RCC_PLLCFGR_PLLR) >> RCC_PLLCFGR_PLLR_Pos) + 1U ) * 2U;
 800173a:	4b0a      	ldr	r3, [pc, #40]	@ (8001764 <HAL_RCC_GetSysClockFreq+0x108>)
 800173c:	68db      	ldr	r3, [r3, #12]
 800173e:	0e5b      	lsrs	r3, r3, #25
 8001740:	f003 0303 	and.w	r3, r3, #3
 8001744:	3301      	adds	r3, #1
 8001746:	005b      	lsls	r3, r3, #1
 8001748:	603b      	str	r3, [r7, #0]
    sysclockfreq = pllvco / pllr;
 800174a:	697a      	ldr	r2, [r7, #20]
 800174c:	683b      	ldr	r3, [r7, #0]
 800174e:	fbb2 f3f3 	udiv	r3, r2, r3
 8001752:	61bb      	str	r3, [r7, #24]
  }

  return sysclockfreq;
 8001754:	69bb      	ldr	r3, [r7, #24]
}
 8001756:	4618      	mov	r0, r3
 8001758:	3724      	adds	r7, #36	@ 0x24
 800175a:	46bd      	mov	sp, r7
 800175c:	f85d 7b04 	ldr.w	r7, [sp], #4
 8001760:	4770      	bx	lr
 8001762:	bf00      	nop
 8001764:	40021000 	.word	0x40021000
 8001768:	080075ac 	.word	0x080075ac
 800176c:	00f42400 	.word	0x00f42400
 8001770:	007a1200 	.word	0x007a1200

08001774 <HAL_RCC_GetHCLKFreq>:
  *
  * @note   The SystemCoreClock CMSIS variable is used to store System Clock Frequency.
  * @retval HCLK frequency in Hz
  */
uint32_t HAL_RCC_GetHCLKFreq(void)
{
 8001774:	b480      	push	{r7}
 8001776:	af00      	add	r7, sp, #0
  return SystemCoreClock;
 8001778:	4b03      	ldr	r3, [pc, #12]	@ (8001788 <HAL_RCC_GetHCLKFreq+0x14>)
 800177a:	681b      	ldr	r3, [r3, #0]
}
 800177c:	4618      	mov	r0, r3
 800177e:	46bd      	mov	sp, r7
 8001780:	f85d 7b04 	ldr.w	r7, [sp], #4
 8001784:	4770      	bx	lr
 8001786:	bf00      	nop
 8001788:	20000008 	.word	0x20000008

0800178c <HAL_RCC_GetPCLK1Freq>:
  * @note   Each time PCLK1 changes, this function must be called to update the
  *         right PCLK1 value. Otherwise, any configuration based on this function will be incorrect.
  * @retval PCLK1 frequency in Hz
  */
uint32_t HAL_RCC_GetPCLK1Freq(void)
{
 800178c:	b580      	push	{r7, lr}
 800178e:	af00      	add	r7, sp, #0
  /* Get HCLK source and Compute PCLK1 frequency ---------------------------*/
  return (HAL_RCC_GetHCLKFreq() >> (APBPrescTable[READ_BIT(RCC->CFGR, RCC_CFGR_PPRE1) >> RCC_CFGR_PPRE1_Pos] & 0x1FU));
 8001790:	f7ff fff0 	bl	8001774 <HAL_RCC_GetHCLKFreq>
 8001794:	4602      	mov	r2, r0
 8001796:	4b06      	ldr	r3, [pc, #24]	@ (80017b0 <HAL_RCC_GetPCLK1Freq+0x24>)
 8001798:	689b      	ldr	r3, [r3, #8]
 800179a:	0a1b      	lsrs	r3, r3, #8
 800179c:	f003 0307 	and.w	r3, r3, #7
 80017a0:	4904      	ldr	r1, [pc, #16]	@ (80017b4 <HAL_RCC_GetPCLK1Freq+0x28>)
 80017a2:	5ccb      	ldrb	r3, [r1, r3]
 80017a4:	f003 031f 	and.w	r3, r3, #31
 80017a8:	fa22 f303 	lsr.w	r3, r2, r3
}
 80017ac:	4618      	mov	r0, r3
 80017ae:	bd80      	pop	{r7, pc}
 80017b0:	40021000 	.word	0x40021000
 80017b4:	080075a4 	.word	0x080075a4

080017b8 <HAL_RCC_GetPCLK2Freq>:
  * @note   Each time PCLK2 changes, this function must be called to update the
  *         right PCLK2 value. Otherwise, any configuration based on this function will be incorrect.
  * @retval PCLK2 frequency in Hz
  */
uint32_t HAL_RCC_GetPCLK2Freq(void)
{
 80017b8:	b580      	push	{r7, lr}
 80017ba:	af00      	add	r7, sp, #0
  /* Get HCLK source and Compute PCLK2 frequency ---------------------------*/
  return (HAL_RCC_GetHCLKFreq()>> (APBPrescTable[READ_BIT(RCC->CFGR, RCC_CFGR_PPRE2) >> RCC_CFGR_PPRE2_Pos] & 0x1FU));
 80017bc:	f7ff ffda 	bl	8001774 <HAL_RCC_GetHCLKFreq>
 80017c0:	4602      	mov	r2, r0
 80017c2:	4b06      	ldr	r3, [pc, #24]	@ (80017dc <HAL_RCC_GetPCLK2Freq+0x24>)
 80017c4:	689b      	ldr	r3, [r3, #8]
 80017c6:	0adb      	lsrs	r3, r3, #11
 80017c8:	f003 0307 	and.w	r3, r3, #7
 80017cc:	4904      	ldr	r1, [pc, #16]	@ (80017e0 <HAL_RCC_GetPCLK2Freq+0x28>)
 80017ce:	5ccb      	ldrb	r3, [r1, r3]
 80017d0:	f003 031f 	and.w	r3, r3, #31
 80017d4:	fa22 f303 	lsr.w	r3, r2, r3
}
 80017d8:	4618      	mov	r0, r3
 80017da:	bd80      	pop	{r7, pc}
 80017dc:	40021000 	.word	0x40021000
 80017e0:	080075a4 	.word	0x080075a4

080017e4 <RCC_SetFlashLatencyFromMSIRange>:
            voltage range.
  * @param  msirange  MSI range value from RCC_MSIRANGE_0 to RCC_MSIRANGE_11
  * @retval HAL status
  */
static HAL_StatusTypeDef RCC_SetFlashLatencyFromMSIRange(uint32_t msirange)
{
 80017e4:	b580      	push	{r7, lr}
 80017e6:	b086      	sub	sp, #24
 80017e8:	af00      	add	r7, sp, #0
 80017ea:	6078      	str	r0, [r7, #4]
  uint32_t vos;
  uint32_t latency = FLASH_LATENCY_0;  /* default value 0WS */
 80017ec:	2300      	movs	r3, #0
 80017ee:	613b      	str	r3, [r7, #16]

  if(__HAL_RCC_PWR_IS_CLK_ENABLED())
 80017f0:	4b2a      	ldr	r3, [pc, #168]	@ (800189c <RCC_SetFlashLatencyFromMSIRange+0xb8>)
 80017f2:	6d9b      	ldr	r3, [r3, #88]	@ 0x58
 80017f4:	f003 5380 	and.w	r3, r3, #268435456	@ 0x10000000
 80017f8:	2b00      	cmp	r3, #0
 80017fa:	d003      	beq.n	8001804 <RCC_SetFlashLatencyFromMSIRange+0x20>
  {
    vos = HAL_PWREx_GetVoltageRange();
 80017fc:	f7ff f9b6 	bl	8000b6c <HAL_PWREx_GetVoltageRange>
 8001800:	6178      	str	r0, [r7, #20]
 8001802:	e014      	b.n	800182e <RCC_SetFlashLatencyFromMSIRange+0x4a>
  }
  else
  {
    __HAL_RCC_PWR_CLK_ENABLE();
 8001804:	4b25      	ldr	r3, [pc, #148]	@ (800189c <RCC_SetFlashLatencyFromMSIRange+0xb8>)
 8001806:	6d9b      	ldr	r3, [r3, #88]	@ 0x58
 8001808:	4a24      	ldr	r2, [pc, #144]	@ (800189c <RCC_SetFlashLatencyFromMSIRange+0xb8>)
 800180a:	f043 5380 	orr.w	r3, r3, #268435456	@ 0x10000000
 800180e:	6593      	str	r3, [r2, #88]	@ 0x58
 8001810:	4b22      	ldr	r3, [pc, #136]	@ (800189c <RCC_SetFlashLatencyFromMSIRange+0xb8>)
 8001812:	6d9b      	ldr	r3, [r3, #88]	@ 0x58
 8001814:	f003 5380 	and.w	r3, r3, #268435456	@ 0x10000000
 8001818:	60fb      	str	r3, [r7, #12]
 800181a:	68fb      	ldr	r3, [r7, #12]
    vos = HAL_PWREx_GetVoltageRange();
 800181c:	f7ff f9a6 	bl	8000b6c <HAL_PWREx_GetVoltageRange>
 8001820:	6178      	str	r0, [r7, #20]
    __HAL_RCC_PWR_CLK_DISABLE();
 8001822:	4b1e      	ldr	r3, [pc, #120]	@ (800189c <RCC_SetFlashLatencyFromMSIRange+0xb8>)
 8001824:	6d9b      	ldr	r3, [r3, #88]	@ 0x58
 8001826:	4a1d      	ldr	r2, [pc, #116]	@ (800189c <RCC_SetFlashLatencyFromMSIRange+0xb8>)
 8001828:	f023 5380 	bic.w	r3, r3, #268435456	@ 0x10000000
 800182c:	6593      	str	r3, [r2, #88]	@ 0x58
  }

  if(vos == PWR_REGULATOR_VOLTAGE_SCALE1)
 800182e:	697b      	ldr	r3, [r7, #20]
 8001830:	f5b3 7f00 	cmp.w	r3, #512	@ 0x200
 8001834:	d10b      	bne.n	800184e <RCC_SetFlashLatencyFromMSIRange+0x6a>
  {
    if(msirange > RCC_MSIRANGE_8)
 8001836:	687b      	ldr	r3, [r7, #4]
 8001838:	2b80      	cmp	r3, #128	@ 0x80
 800183a:	d919      	bls.n	8001870 <RCC_SetFlashLatencyFromMSIRange+0x8c>
    {
      /* MSI > 16Mhz */
      if(msirange > RCC_MSIRANGE_10)
 800183c:	687b      	ldr	r3, [r7, #4]
 800183e:	2ba0      	cmp	r3, #160	@ 0xa0
 8001840:	d902      	bls.n	8001848 <RCC_SetFlashLatencyFromMSIRange+0x64>
      {
        /* MSI 48Mhz */
        latency = FLASH_LATENCY_2; /* 2WS */
 8001842:	2302      	movs	r3, #2
 8001844:	613b      	str	r3, [r7, #16]
 8001846:	e013      	b.n	8001870 <RCC_SetFlashLatencyFromMSIRange+0x8c>
      }
      else
      {
        /* MSI 24Mhz or 32Mhz */
        latency = FLASH_LATENCY_1; /* 1WS */
 8001848:	2301      	movs	r3, #1
 800184a:	613b      	str	r3, [r7, #16]
 800184c:	e010      	b.n	8001870 <RCC_SetFlashLatencyFromMSIRange+0x8c>
        latency = FLASH_LATENCY_1; /* 1WS */
      }
      /* else MSI < 8Mhz default FLASH_LATENCY_0 0WS */
    }
#else
    if(msirange > RCC_MSIRANGE_8)
 800184e:	687b      	ldr	r3, [r7, #4]
 8001850:	2b80      	cmp	r3, #128	@ 0x80
 8001852:	d902      	bls.n	800185a <RCC_SetFlashLatencyFromMSIRange+0x76>
    {
      /* MSI > 16Mhz */
      latency = FLASH_LATENCY_3; /* 3WS */
 8001854:	2303      	movs	r3, #3
 8001856:	613b      	str	r3, [r7, #16]
 8001858:	e00a      	b.n	8001870 <RCC_SetFlashLatencyFromMSIRange+0x8c>
    }
    else
    {
      if(msirange == RCC_MSIRANGE_8)
 800185a:	687b      	ldr	r3, [r7, #4]
 800185c:	2b80      	cmp	r3, #128	@ 0x80
 800185e:	d102      	bne.n	8001866 <RCC_SetFlashLatencyFromMSIRange+0x82>
      {
        /* MSI 16Mhz */
        latency = FLASH_LATENCY_2; /* 2WS */
 8001860:	2302      	movs	r3, #2
 8001862:	613b      	str	r3, [r7, #16]
 8001864:	e004      	b.n	8001870 <RCC_SetFlashLatencyFromMSIRange+0x8c>
      }
      else if(msirange == RCC_MSIRANGE_7)
 8001866:	687b      	ldr	r3, [r7, #4]
 8001868:	2b70      	cmp	r3, #112	@ 0x70
 800186a:	d101      	bne.n	8001870 <RCC_SetFlashLatencyFromMSIRange+0x8c>
      {
        /* MSI 8Mhz */
        latency = FLASH_LATENCY_1; /* 1WS */
 800186c:	2301      	movs	r3, #1
 800186e:	613b      	str	r3, [r7, #16]
      }
    }
#endif
  }

  __HAL_FLASH_SET_LATENCY(latency);
 8001870:	4b0b      	ldr	r3, [pc, #44]	@ (80018a0 <RCC_SetFlashLatencyFromMSIRange+0xbc>)
 8001872:	681b      	ldr	r3, [r3, #0]
 8001874:	f023 0207 	bic.w	r2, r3, #7
 8001878:	4909      	ldr	r1, [pc, #36]	@ (80018a0 <RCC_SetFlashLatencyFromMSIRange+0xbc>)
 800187a:	693b      	ldr	r3, [r7, #16]
 800187c:	4313      	orrs	r3, r2
 800187e:	600b      	str	r3, [r1, #0]

  /* Check that the new number of wait states is taken into account to access the Flash
     memory by reading the FLASH_ACR register */
  if(__HAL_FLASH_GET_LATENCY() != latency)
 8001880:	4b07      	ldr	r3, [pc, #28]	@ (80018a0 <RCC_SetFlashLatencyFromMSIRange+0xbc>)
 8001882:	681b      	ldr	r3, [r3, #0]
 8001884:	f003 0307 	and.w	r3, r3, #7
 8001888:	693a      	ldr	r2, [r7, #16]
 800188a:	429a      	cmp	r2, r3
 800188c:	d001      	beq.n	8001892 <RCC_SetFlashLatencyFromMSIRange+0xae>
  {
    return HAL_ERROR;
 800188e:	2301      	movs	r3, #1
 8001890:	e000      	b.n	8001894 <RCC_SetFlashLatencyFromMSIRange+0xb0>
  }

  return HAL_OK;
 8001892:	2300      	movs	r3, #0
}
 8001894:	4618      	mov	r0, r3
 8001896:	3718      	adds	r7, #24
 8001898:	46bd      	mov	sp, r7
 800189a:	bd80      	pop	{r7, pc}
 800189c:	40021000 	.word	0x40021000
 80018a0:	40022000 	.word	0x40022000

080018a4 <HAL_RCCEx_PeriphCLKConfig>:
  *         the RTC clock source: in this case the access to Backup domain is enabled.
  *
  * @retval HAL status
  */
HAL_StatusTypeDef HAL_RCCEx_PeriphCLKConfig(RCC_PeriphCLKInitTypeDef  *PeriphClkInit)
{
 80018a4:	b580      	push	{r7, lr}
 80018a6:	b086      	sub	sp, #24
 80018a8:	af00      	add	r7, sp, #0
 80018aa:	6078      	str	r0, [r7, #4]
  uint32_t tmpregister, tickstart;     /* no init needed */
  HAL_StatusTypeDef ret = HAL_OK;      /* Intermediate status */
 80018ac:	2300      	movs	r3, #0
 80018ae:	74fb      	strb	r3, [r7, #19]
  HAL_StatusTypeDef status = HAL_OK;   /* Final status */
 80018b0:	2300      	movs	r3, #0
 80018b2:	74bb      	strb	r3, [r7, #18]
  assert_param(IS_RCC_PERIPHCLOCK(PeriphClkInit->PeriphClockSelection));

#if defined(SAI1)

  /*-------------------------- SAI1 clock source configuration ---------------------*/
  if((((PeriphClkInit->PeriphClockSelection) & RCC_PERIPHCLK_SAI1) == RCC_PERIPHCLK_SAI1))
 80018b4:	687b      	ldr	r3, [r7, #4]
 80018b6:	681b      	ldr	r3, [r3, #0]
 80018b8:	f403 6300 	and.w	r3, r3, #2048	@ 0x800
 80018bc:	2b00      	cmp	r3, #0
 80018be:	d031      	beq.n	8001924 <HAL_RCCEx_PeriphCLKConfig+0x80>
  {
    /* Check the parameters */
    assert_param(IS_RCC_SAI1CLK(PeriphClkInit->Sai1ClockSelection));

    switch(PeriphClkInit->Sai1ClockSelection)
 80018c0:	687b      	ldr	r3, [r7, #4]
 80018c2:	6bdb      	ldr	r3, [r3, #60]	@ 0x3c
 80018c4:	f5b3 0f40 	cmp.w	r3, #12582912	@ 0xc00000
 80018c8:	d01a      	beq.n	8001900 <HAL_RCCEx_PeriphCLKConfig+0x5c>
 80018ca:	f5b3 0f40 	cmp.w	r3, #12582912	@ 0xc00000
 80018ce:	d814      	bhi.n	80018fa <HAL_RCCEx_PeriphCLKConfig+0x56>
 80018d0:	2b00      	cmp	r3, #0
 80018d2:	d009      	beq.n	80018e8 <HAL_RCCEx_PeriphCLKConfig+0x44>
 80018d4:	f5b3 0f00 	cmp.w	r3, #8388608	@ 0x800000
 80018d8:	d10f      	bne.n	80018fa <HAL_RCCEx_PeriphCLKConfig+0x56>
    case RCC_SAI1CLKSOURCE_PLL:      /* PLL is used as clock source for SAI1*/
      /* Enable SAI Clock output generated from System PLL . */
#if defined(RCC_PLLSAI2_SUPPORT)
      __HAL_RCC_PLLCLKOUT_ENABLE(RCC_PLL_SAI3CLK);
#else
      __HAL_RCC_PLLCLKOUT_ENABLE(RCC_PLL_SAI2CLK);
 80018da:	4b5d      	ldr	r3, [pc, #372]	@ (8001a50 <HAL_RCCEx_PeriphCLKConfig+0x1ac>)
 80018dc:	68db      	ldr	r3, [r3, #12]
 80018de:	4a5c      	ldr	r2, [pc, #368]	@ (8001a50 <HAL_RCCEx_PeriphCLKConfig+0x1ac>)
 80018e0:	f443 3380 	orr.w	r3, r3, #65536	@ 0x10000
 80018e4:	60d3      	str	r3, [r2, #12]
#endif /* RCC_PLLSAI2_SUPPORT */
      /* SAI1 clock source config set later after clock selection check */
      break;
 80018e6:	e00c      	b.n	8001902 <HAL_RCCEx_PeriphCLKConfig+0x5e>

    case RCC_SAI1CLKSOURCE_PLLSAI1:  /* PLLSAI1 is used as clock source for SAI1*/
      /* PLLSAI1 input clock, parameters M, N & P configuration and clock output (PLLSAI1ClockOut) */
      ret = RCCEx_PLLSAI1_Config(&(PeriphClkInit->PLLSAI1), DIVIDER_P_UPDATE);
 80018e8:	687b      	ldr	r3, [r7, #4]
 80018ea:	3304      	adds	r3, #4
 80018ec:	2100      	movs	r1, #0
 80018ee:	4618      	mov	r0, r3
 80018f0:	f000 f9ce 	bl	8001c90 <RCCEx_PLLSAI1_Config>
 80018f4:	4603      	mov	r3, r0
 80018f6:	74fb      	strb	r3, [r7, #19]
      /* SAI1 clock source config set later after clock selection check */
      break;
 80018f8:	e003      	b.n	8001902 <HAL_RCCEx_PeriphCLKConfig+0x5e>
#endif /* STM32L4P5xx || STM32L4Q5xx || STM32L4R5xx || STM32L4R7xx || STM32L4R9xx || STM32L4S5xx || STM32L4S7xx || STM32L4S9xx */
      /* SAI1 clock source config set later after clock selection check */
      break;

    default:
      ret = HAL_ERROR;
 80018fa:	2301      	movs	r3, #1
 80018fc:	74fb      	strb	r3, [r7, #19]
      break;
 80018fe:	e000      	b.n	8001902 <HAL_RCCEx_PeriphCLKConfig+0x5e>
      break;
 8001900:	bf00      	nop
    }

    if(ret == HAL_OK)
 8001902:	7cfb      	ldrb	r3, [r7, #19]
 8001904:	2b00      	cmp	r3, #0
 8001906:	d10b      	bne.n	8001920 <HAL_RCCEx_PeriphCLKConfig+0x7c>
    {
      /* Set the source of SAI1 clock*/
      __HAL_RCC_SAI1_CONFIG(PeriphClkInit->Sai1ClockSelection);
 8001908:	4b51      	ldr	r3, [pc, #324]	@ (8001a50 <HAL_RCCEx_PeriphCLKConfig+0x1ac>)
 800190a:	f8d3 3088 	ldr.w	r3, [r3, #136]	@ 0x88
 800190e:	f423 0240 	bic.w	r2, r3, #12582912	@ 0xc00000
 8001912:	687b      	ldr	r3, [r7, #4]
 8001914:	6bdb      	ldr	r3, [r3, #60]	@ 0x3c
 8001916:	494e      	ldr	r1, [pc, #312]	@ (8001a50 <HAL_RCCEx_PeriphCLKConfig+0x1ac>)
 8001918:	4313      	orrs	r3, r2
 800191a:	f8c1 3088 	str.w	r3, [r1, #136]	@ 0x88
 800191e:	e001      	b.n	8001924 <HAL_RCCEx_PeriphCLKConfig+0x80>
    }
    else
    {
      /* set overall return value */
      status = ret;
 8001920:	7cfb      	ldrb	r3, [r7, #19]
 8001922:	74bb      	strb	r3, [r7, #18]
    }
  }
#endif /* SAI2 */

  /*-------------------------- RTC clock source configuration ----------------------*/
  if((PeriphClkInit->PeriphClockSelection & RCC_PERIPHCLK_RTC) == RCC_PERIPHCLK_RTC)
 8001924:	687b      	ldr	r3, [r7, #4]
 8001926:	681b      	ldr	r3, [r3, #0]
 8001928:	f403 3300 	and.w	r3, r3, #131072	@ 0x20000
 800192c:	2b00      	cmp	r3, #0
 800192e:	f000 809e 	beq.w	8001a6e <HAL_RCCEx_PeriphCLKConfig+0x1ca>
  {
    FlagStatus       pwrclkchanged = RESET;
 8001932:	2300      	movs	r3, #0
 8001934:	747b      	strb	r3, [r7, #17]

    /* Check for RTC Parameters used to output RTCCLK */
    assert_param(IS_RCC_RTCCLKSOURCE(PeriphClkInit->RTCClockSelection));

    /* Enable Power Clock */
    if(__HAL_RCC_PWR_IS_CLK_DISABLED() != 0U)
 8001936:	4b46      	ldr	r3, [pc, #280]	@ (8001a50 <HAL_RCCEx_PeriphCLKConfig+0x1ac>)
 8001938:	6d9b      	ldr	r3, [r3, #88]	@ 0x58
 800193a:	f003 5380 	and.w	r3, r3, #268435456	@ 0x10000000
 800193e:	2b00      	cmp	r3, #0
 8001940:	d101      	bne.n	8001946 <HAL_RCCEx_PeriphCLKConfig+0xa2>
 8001942:	2301      	movs	r3, #1
 8001944:	e000      	b.n	8001948 <HAL_RCCEx_PeriphCLKConfig+0xa4>
 8001946:	2300      	movs	r3, #0
 8001948:	2b00      	cmp	r3, #0
 800194a:	d00d      	beq.n	8001968 <HAL_RCCEx_PeriphCLKConfig+0xc4>
    {
      __HAL_RCC_PWR_CLK_ENABLE();
 800194c:	4b40      	ldr	r3, [pc, #256]	@ (8001a50 <HAL_RCCEx_PeriphCLKConfig+0x1ac>)
 800194e:	6d9b      	ldr	r3, [r3, #88]	@ 0x58
 8001950:	4a3f      	ldr	r2, [pc, #252]	@ (8001a50 <HAL_RCCEx_PeriphCLKConfig+0x1ac>)
 8001952:	f043 5380 	orr.w	r3, r3, #268435456	@ 0x10000000
 8001956:	6593      	str	r3, [r2, #88]	@ 0x58
 8001958:	4b3d      	ldr	r3, [pc, #244]	@ (8001a50 <HAL_RCCEx_PeriphCLKConfig+0x1ac>)
 800195a:	6d9b      	ldr	r3, [r3, #88]	@ 0x58
 800195c:	f003 5380 	and.w	r3, r3, #268435456	@ 0x10000000
 8001960:	60bb      	str	r3, [r7, #8]
 8001962:	68bb      	ldr	r3, [r7, #8]
      pwrclkchanged = SET;
 8001964:	2301      	movs	r3, #1
 8001966:	747b      	strb	r3, [r7, #17]
    }

    /* Enable write access to Backup domain */
    SET_BIT(PWR->CR1, PWR_CR1_DBP);
 8001968:	4b3a      	ldr	r3, [pc, #232]	@ (8001a54 <HAL_RCCEx_PeriphCLKConfig+0x1b0>)
 800196a:	681b      	ldr	r3, [r3, #0]
 800196c:	4a39      	ldr	r2, [pc, #228]	@ (8001a54 <HAL_RCCEx_PeriphCLKConfig+0x1b0>)
 800196e:	f443 7380 	orr.w	r3, r3, #256	@ 0x100
 8001972:	6013      	str	r3, [r2, #0]

    /* Wait for Backup domain Write protection disable */
    tickstart = HAL_GetTick();
 8001974:	f7fe fe7a 	bl	800066c <HAL_GetTick>
 8001978:	60f8      	str	r0, [r7, #12]

    while(READ_BIT(PWR->CR1, PWR_CR1_DBP) == 0U)
 800197a:	e009      	b.n	8001990 <HAL_RCCEx_PeriphCLKConfig+0xec>
    {
      if((HAL_GetTick() - tickstart) > RCC_DBP_TIMEOUT_VALUE)
 800197c:	f7fe fe76 	bl	800066c <HAL_GetTick>
 8001980:	4602      	mov	r2, r0
 8001982:	68fb      	ldr	r3, [r7, #12]
 8001984:	1ad3      	subs	r3, r2, r3
 8001986:	2b02      	cmp	r3, #2
 8001988:	d902      	bls.n	8001990 <HAL_RCCEx_PeriphCLKConfig+0xec>
      {
        ret = HAL_TIMEOUT;
 800198a:	2303      	movs	r3, #3
 800198c:	74fb      	strb	r3, [r7, #19]
        break;
 800198e:	e005      	b.n	800199c <HAL_RCCEx_PeriphCLKConfig+0xf8>
    while(READ_BIT(PWR->CR1, PWR_CR1_DBP) == 0U)
 8001990:	4b30      	ldr	r3, [pc, #192]	@ (8001a54 <HAL_RCCEx_PeriphCLKConfig+0x1b0>)
 8001992:	681b      	ldr	r3, [r3, #0]
 8001994:	f403 7380 	and.w	r3, r3, #256	@ 0x100
 8001998:	2b00      	cmp	r3, #0
 800199a:	d0ef      	beq.n	800197c <HAL_RCCEx_PeriphCLKConfig+0xd8>
      }
    }

    if(ret == HAL_OK)
 800199c:	7cfb      	ldrb	r3, [r7, #19]
 800199e:	2b00      	cmp	r3, #0
 80019a0:	d15a      	bne.n	8001a58 <HAL_RCCEx_PeriphCLKConfig+0x1b4>
    {
      /* Reset the Backup domain only if the RTC Clock source selection is modified from default */
      tmpregister = READ_BIT(RCC->BDCR, RCC_BDCR_RTCSEL);
 80019a2:	4b2b      	ldr	r3, [pc, #172]	@ (8001a50 <HAL_RCCEx_PeriphCLKConfig+0x1ac>)
 80019a4:	f8d3 3090 	ldr.w	r3, [r3, #144]	@ 0x90
 80019a8:	f403 7340 	and.w	r3, r3, #768	@ 0x300
 80019ac:	617b      	str	r3, [r7, #20]

      if((tmpregister != RCC_RTCCLKSOURCE_NONE) && (tmpregister != PeriphClkInit->RTCClockSelection))
 80019ae:	697b      	ldr	r3, [r7, #20]
 80019b0:	2b00      	cmp	r3, #0
 80019b2:	d01e      	beq.n	80019f2 <HAL_RCCEx_PeriphCLKConfig+0x14e>
 80019b4:	687b      	ldr	r3, [r7, #4]
 80019b6:	6d1b      	ldr	r3, [r3, #80]	@ 0x50
 80019b8:	697a      	ldr	r2, [r7, #20]
 80019ba:	429a      	cmp	r2, r3
 80019bc:	d019      	beq.n	80019f2 <HAL_RCCEx_PeriphCLKConfig+0x14e>
      {
        /* Store the content of BDCR register before the reset of Backup Domain */
        tmpregister = READ_BIT(RCC->BDCR, ~(RCC_BDCR_RTCSEL));
 80019be:	4b24      	ldr	r3, [pc, #144]	@ (8001a50 <HAL_RCCEx_PeriphCLKConfig+0x1ac>)
 80019c0:	f8d3 3090 	ldr.w	r3, [r3, #144]	@ 0x90
 80019c4:	f423 7340 	bic.w	r3, r3, #768	@ 0x300
 80019c8:	617b      	str	r3, [r7, #20]
        /* RTC Clock selection can be changed only if the Backup Domain is reset */
        __HAL_RCC_BACKUPRESET_FORCE();
 80019ca:	4b21      	ldr	r3, [pc, #132]	@ (8001a50 <HAL_RCCEx_PeriphCLKConfig+0x1ac>)
 80019cc:	f8d3 3090 	ldr.w	r3, [r3, #144]	@ 0x90
 80019d0:	4a1f      	ldr	r2, [pc, #124]	@ (8001a50 <HAL_RCCEx_PeriphCLKConfig+0x1ac>)
 80019d2:	f443 3380 	orr.w	r3, r3, #65536	@ 0x10000
 80019d6:	f8c2 3090 	str.w	r3, [r2, #144]	@ 0x90
        __HAL_RCC_BACKUPRESET_RELEASE();
 80019da:	4b1d      	ldr	r3, [pc, #116]	@ (8001a50 <HAL_RCCEx_PeriphCLKConfig+0x1ac>)
 80019dc:	f8d3 3090 	ldr.w	r3, [r3, #144]	@ 0x90
 80019e0:	4a1b      	ldr	r2, [pc, #108]	@ (8001a50 <HAL_RCCEx_PeriphCLKConfig+0x1ac>)
 80019e2:	f423 3380 	bic.w	r3, r3, #65536	@ 0x10000
 80019e6:	f8c2 3090 	str.w	r3, [r2, #144]	@ 0x90
        /* Restore the Content of BDCR register */
        RCC->BDCR = tmpregister;
 80019ea:	4a19      	ldr	r2, [pc, #100]	@ (8001a50 <HAL_RCCEx_PeriphCLKConfig+0x1ac>)
 80019ec:	697b      	ldr	r3, [r7, #20]
 80019ee:	f8c2 3090 	str.w	r3, [r2, #144]	@ 0x90
      }

      /* Wait for LSE reactivation if LSE was enable prior to Backup Domain reset */
      if (HAL_IS_BIT_SET(tmpregister, RCC_BDCR_LSEON))
 80019f2:	697b      	ldr	r3, [r7, #20]
 80019f4:	f003 0301 	and.w	r3, r3, #1
 80019f8:	2b00      	cmp	r3, #0
 80019fa:	d016      	beq.n	8001a2a <HAL_RCCEx_PeriphCLKConfig+0x186>
      {
        /* Get Start Tick*/
        tickstart = HAL_GetTick();
 80019fc:	f7fe fe36 	bl	800066c <HAL_GetTick>
 8001a00:	60f8      	str	r0, [r7, #12]

        /* Wait till LSE is ready */
        while(READ_BIT(RCC->BDCR, RCC_BDCR_LSERDY) == 0U)
 8001a02:	e00b      	b.n	8001a1c <HAL_RCCEx_PeriphCLKConfig+0x178>
        {
          if((HAL_GetTick() - tickstart) > RCC_LSE_TIMEOUT_VALUE)
 8001a04:	f7fe fe32 	bl	800066c <HAL_GetTick>
 8001a08:	4602      	mov	r2, r0
 8001a0a:	68fb      	ldr	r3, [r7, #12]
 8001a0c:	1ad3      	subs	r3, r2, r3
 8001a0e:	f241 3288 	movw	r2, #5000	@ 0x1388
 8001a12:	4293      	cmp	r3, r2
 8001a14:	d902      	bls.n	8001a1c <HAL_RCCEx_PeriphCLKConfig+0x178>
          {
            ret = HAL_TIMEOUT;
 8001a16:	2303      	movs	r3, #3
 8001a18:	74fb      	strb	r3, [r7, #19]
            break;
 8001a1a:	e006      	b.n	8001a2a <HAL_RCCEx_PeriphCLKConfig+0x186>
        while(READ_BIT(RCC->BDCR, RCC_BDCR_LSERDY) == 0U)
 8001a1c:	4b0c      	ldr	r3, [pc, #48]	@ (8001a50 <HAL_RCCEx_PeriphCLKConfig+0x1ac>)
 8001a1e:	f8d3 3090 	ldr.w	r3, [r3, #144]	@ 0x90
 8001a22:	f003 0302 	and.w	r3, r3, #2
 8001a26:	2b00      	cmp	r3, #0
 8001a28:	d0ec      	beq.n	8001a04 <HAL_RCCEx_PeriphCLKConfig+0x160>
          }
        }
      }

      if(ret == HAL_OK)
 8001a2a:	7cfb      	ldrb	r3, [r7, #19]
 8001a2c:	2b00      	cmp	r3, #0
 8001a2e:	d10b      	bne.n	8001a48 <HAL_RCCEx_PeriphCLKConfig+0x1a4>
      {
        /* Apply new RTC clock source selection */
        __HAL_RCC_RTC_CONFIG(PeriphClkInit->RTCClockSelection);
 8001a30:	4b07      	ldr	r3, [pc, #28]	@ (8001a50 <HAL_RCCEx_PeriphCLKConfig+0x1ac>)
 8001a32:	f8d3 3090 	ldr.w	r3, [r3, #144]	@ 0x90
 8001a36:	f423 7240 	bic.w	r2, r3, #768	@ 0x300
 8001a3a:	687b      	ldr	r3, [r7, #4]
 8001a3c:	6d1b      	ldr	r3, [r3, #80]	@ 0x50
 8001a3e:	4904      	ldr	r1, [pc, #16]	@ (8001a50 <HAL_RCCEx_PeriphCLKConfig+0x1ac>)
 8001a40:	4313      	orrs	r3, r2
 8001a42:	f8c1 3090 	str.w	r3, [r1, #144]	@ 0x90
 8001a46:	e009      	b.n	8001a5c <HAL_RCCEx_PeriphCLKConfig+0x1b8>
      }
      else
      {
        /* set overall return value */
        status = ret;
 8001a48:	7cfb      	ldrb	r3, [r7, #19]
 8001a4a:	74bb      	strb	r3, [r7, #18]
 8001a4c:	e006      	b.n	8001a5c <HAL_RCCEx_PeriphCLKConfig+0x1b8>
 8001a4e:	bf00      	nop
 8001a50:	40021000 	.word	0x40021000
 8001a54:	40007000 	.word	0x40007000
      }
    }
    else
    {
      /* set overall return value */
      status = ret;
 8001a58:	7cfb      	ldrb	r3, [r7, #19]
 8001a5a:	74bb      	strb	r3, [r7, #18]
    }

    /* Restore clock configuration if changed */
    if(pwrclkchanged == SET)
 8001a5c:	7c7b      	ldrb	r3, [r7, #17]
 8001a5e:	2b01      	cmp	r3, #1
 8001a60:	d105      	bne.n	8001a6e <HAL_RCCEx_PeriphCLKConfig+0x1ca>
    {
      __HAL_RCC_PWR_CLK_DISABLE();
 8001a62:	4b8a      	ldr	r3, [pc, #552]	@ (8001c8c <HAL_RCCEx_PeriphCLKConfig+0x3e8>)
 8001a64:	6d9b      	ldr	r3, [r3, #88]	@ 0x58
 8001a66:	4a89      	ldr	r2, [pc, #548]	@ (8001c8c <HAL_RCCEx_PeriphCLKConfig+0x3e8>)
 8001a68:	f023 5380 	bic.w	r3, r3, #268435456	@ 0x10000000
 8001a6c:	6593      	str	r3, [r2, #88]	@ 0x58
    }
  }

  /*-------------------------- USART1 clock source configuration -------------------*/
  if(((PeriphClkInit->PeriphClockSelection) & RCC_PERIPHCLK_USART1) == RCC_PERIPHCLK_USART1)
 8001a6e:	687b      	ldr	r3, [r7, #4]
 8001a70:	681b      	ldr	r3, [r3, #0]
 8001a72:	f003 0301 	and.w	r3, r3, #1
 8001a76:	2b00      	cmp	r3, #0
 8001a78:	d00a      	beq.n	8001a90 <HAL_RCCEx_PeriphCLKConfig+0x1ec>
  {
    /* Check the parameters */
    assert_param(IS_RCC_USART1CLKSOURCE(PeriphClkInit->Usart1ClockSelection));

    /* Configure the USART1 clock source */
    __HAL_RCC_USART1_CONFIG(PeriphClkInit->Usart1ClockSelection);
 8001a7a:	4b84      	ldr	r3, [pc, #528]	@ (8001c8c <HAL_RCCEx_PeriphCLKConfig+0x3e8>)
 8001a7c:	f8d3 3088 	ldr.w	r3, [r3, #136]	@ 0x88
 8001a80:	f023 0203 	bic.w	r2, r3, #3
 8001a84:	687b      	ldr	r3, [r7, #4]
 8001a86:	6a1b      	ldr	r3, [r3, #32]
 8001a88:	4980      	ldr	r1, [pc, #512]	@ (8001c8c <HAL_RCCEx_PeriphCLKConfig+0x3e8>)
 8001a8a:	4313      	orrs	r3, r2
 8001a8c:	f8c1 3088 	str.w	r3, [r1, #136]	@ 0x88
  }

  /*-------------------------- USART2 clock source configuration -------------------*/
  if(((PeriphClkInit->PeriphClockSelection) & RCC_PERIPHCLK_USART2) == RCC_PERIPHCLK_USART2)
 8001a90:	687b      	ldr	r3, [r7, #4]
 8001a92:	681b      	ldr	r3, [r3, #0]
 8001a94:	f003 0302 	and.w	r3, r3, #2
 8001a98:	2b00      	cmp	r3, #0
 8001a9a:	d00a      	beq.n	8001ab2 <HAL_RCCEx_PeriphCLKConfig+0x20e>
  {
    /* Check the parameters */
    assert_param(IS_RCC_USART2CLKSOURCE(PeriphClkInit->Usart2ClockSelection));

    /* Configure the USART2 clock source */
    __HAL_RCC_USART2_CONFIG(PeriphClkInit->Usart2ClockSelection);
 8001a9c:	4b7b      	ldr	r3, [pc, #492]	@ (8001c8c <HAL_RCCEx_PeriphCLKConfig+0x3e8>)
 8001a9e:	f8d3 3088 	ldr.w	r3, [r3, #136]	@ 0x88
 8001aa2:	f023 020c 	bic.w	r2, r3, #12
 8001aa6:	687b      	ldr	r3, [r7, #4]
 8001aa8:	6a5b      	ldr	r3, [r3, #36]	@ 0x24
 8001aaa:	4978      	ldr	r1, [pc, #480]	@ (8001c8c <HAL_RCCEx_PeriphCLKConfig+0x3e8>)
 8001aac:	4313      	orrs	r3, r2
 8001aae:	f8c1 3088 	str.w	r3, [r1, #136]	@ 0x88
  }

#endif /* UART5 */

  /*-------------------------- LPUART1 clock source configuration ------------------*/
  if(((PeriphClkInit->PeriphClockSelection) & RCC_PERIPHCLK_LPUART1) == RCC_PERIPHCLK_LPUART1)
 8001ab2:	687b      	ldr	r3, [r7, #4]
 8001ab4:	681b      	ldr	r3, [r3, #0]
 8001ab6:	f003 0320 	and.w	r3, r3, #32
 8001aba:	2b00      	cmp	r3, #0
 8001abc:	d00a      	beq.n	8001ad4 <HAL_RCCEx_PeriphCLKConfig+0x230>
  {
    /* Check the parameters */
    assert_param(IS_RCC_LPUART1CLKSOURCE(PeriphClkInit->Lpuart1ClockSelection));

    /* Configure the LPUART1 clock source */
    __HAL_RCC_LPUART1_CONFIG(PeriphClkInit->Lpuart1ClockSelection);
 8001abe:	4b73      	ldr	r3, [pc, #460]	@ (8001c8c <HAL_RCCEx_PeriphCLKConfig+0x3e8>)
 8001ac0:	f8d3 3088 	ldr.w	r3, [r3, #136]	@ 0x88
 8001ac4:	f423 6240 	bic.w	r2, r3, #3072	@ 0xc00
 8001ac8:	687b      	ldr	r3, [r7, #4]
 8001aca:	6a9b      	ldr	r3, [r3, #40]	@ 0x28
 8001acc:	496f      	ldr	r1, [pc, #444]	@ (8001c8c <HAL_RCCEx_PeriphCLKConfig+0x3e8>)
 8001ace:	4313      	orrs	r3, r2
 8001ad0:	f8c1 3088 	str.w	r3, [r1, #136]	@ 0x88
  }

  /*-------------------------- LPTIM1 clock source configuration -------------------*/
  if(((PeriphClkInit->PeriphClockSelection) & RCC_PERIPHCLK_LPTIM1) == (RCC_PERIPHCLK_LPTIM1))
 8001ad4:	687b      	ldr	r3, [r7, #4]
 8001ad6:	681b      	ldr	r3, [r3, #0]
 8001ad8:	f403 7300 	and.w	r3, r3, #512	@ 0x200
 8001adc:	2b00      	cmp	r3, #0
 8001ade:	d00a      	beq.n	8001af6 <HAL_RCCEx_PeriphCLKConfig+0x252>
  {
    assert_param(IS_RCC_LPTIM1CLK(PeriphClkInit->Lptim1ClockSelection));
    __HAL_RCC_LPTIM1_CONFIG(PeriphClkInit->Lptim1ClockSelection);
 8001ae0:	4b6a      	ldr	r3, [pc, #424]	@ (8001c8c <HAL_RCCEx_PeriphCLKConfig+0x3e8>)
 8001ae2:	f8d3 3088 	ldr.w	r3, [r3, #136]	@ 0x88
 8001ae6:	f423 2240 	bic.w	r2, r3, #786432	@ 0xc0000
 8001aea:	687b      	ldr	r3, [r7, #4]
 8001aec:	6b5b      	ldr	r3, [r3, #52]	@ 0x34
 8001aee:	4967      	ldr	r1, [pc, #412]	@ (8001c8c <HAL_RCCEx_PeriphCLKConfig+0x3e8>)
 8001af0:	4313      	orrs	r3, r2
 8001af2:	f8c1 3088 	str.w	r3, [r1, #136]	@ 0x88
  }

  /*-------------------------- LPTIM2 clock source configuration -------------------*/
  if(((PeriphClkInit->PeriphClockSelection) & RCC_PERIPHCLK_LPTIM2) == (RCC_PERIPHCLK_LPTIM2))
 8001af6:	687b      	ldr	r3, [r7, #4]
 8001af8:	681b      	ldr	r3, [r3, #0]
 8001afa:	f403 6380 	and.w	r3, r3, #1024	@ 0x400
 8001afe:	2b00      	cmp	r3, #0
 8001b00:	d00a      	beq.n	8001b18 <HAL_RCCEx_PeriphCLKConfig+0x274>
  {
    assert_param(IS_RCC_LPTIM2CLK(PeriphClkInit->Lptim2ClockSelection));
    __HAL_RCC_LPTIM2_CONFIG(PeriphClkInit->Lptim2ClockSelection);
 8001b02:	4b62      	ldr	r3, [pc, #392]	@ (8001c8c <HAL_RCCEx_PeriphCLKConfig+0x3e8>)
 8001b04:	f8d3 3088 	ldr.w	r3, [r3, #136]	@ 0x88
 8001b08:	f423 1240 	bic.w	r2, r3, #3145728	@ 0x300000
 8001b0c:	687b      	ldr	r3, [r7, #4]
 8001b0e:	6b9b      	ldr	r3, [r3, #56]	@ 0x38
 8001b10:	495e      	ldr	r1, [pc, #376]	@ (8001c8c <HAL_RCCEx_PeriphCLKConfig+0x3e8>)
 8001b12:	4313      	orrs	r3, r2
 8001b14:	f8c1 3088 	str.w	r3, [r1, #136]	@ 0x88
  }

  /*-------------------------- I2C1 clock source configuration ---------------------*/
  if(((PeriphClkInit->PeriphClockSelection) & RCC_PERIPHCLK_I2C1) == RCC_PERIPHCLK_I2C1)
 8001b18:	687b      	ldr	r3, [r7, #4]
 8001b1a:	681b      	ldr	r3, [r3, #0]
 8001b1c:	f003 0340 	and.w	r3, r3, #64	@ 0x40
 8001b20:	2b00      	cmp	r3, #0
 8001b22:	d00a      	beq.n	8001b3a <HAL_RCCEx_PeriphCLKConfig+0x296>
  {
    /* Check the parameters */
    assert_param(IS_RCC_I2C1CLKSOURCE(PeriphClkInit->I2c1ClockSelection));

    /* Configure the I2C1 clock source */
    __HAL_RCC_I2C1_CONFIG(PeriphClkInit->I2c1ClockSelection);
 8001b24:	4b59      	ldr	r3, [pc, #356]	@ (8001c8c <HAL_RCCEx_PeriphCLKConfig+0x3e8>)
 8001b26:	f8d3 3088 	ldr.w	r3, [r3, #136]	@ 0x88
 8001b2a:	f423 5240 	bic.w	r2, r3, #12288	@ 0x3000
 8001b2e:	687b      	ldr	r3, [r7, #4]
 8001b30:	6adb      	ldr	r3, [r3, #44]	@ 0x2c
 8001b32:	4956      	ldr	r1, [pc, #344]	@ (8001c8c <HAL_RCCEx_PeriphCLKConfig+0x3e8>)
 8001b34:	4313      	orrs	r3, r2
 8001b36:	f8c1 3088 	str.w	r3, [r1, #136]	@ 0x88
  }

#endif /* I2C2 */

  /*-------------------------- I2C3 clock source configuration ---------------------*/
  if(((PeriphClkInit->PeriphClockSelection) & RCC_PERIPHCLK_I2C3) == RCC_PERIPHCLK_I2C3)
 8001b3a:	687b      	ldr	r3, [r7, #4]
 8001b3c:	681b      	ldr	r3, [r3, #0]
 8001b3e:	f403 7380 	and.w	r3, r3, #256	@ 0x100
 8001b42:	2b00      	cmp	r3, #0
 8001b44:	d00a      	beq.n	8001b5c <HAL_RCCEx_PeriphCLKConfig+0x2b8>
  {
    /* Check the parameters */
    assert_param(IS_RCC_I2C3CLKSOURCE(PeriphClkInit->I2c3ClockSelection));

    /* Configure the I2C3 clock source */
    __HAL_RCC_I2C3_CONFIG(PeriphClkInit->I2c3ClockSelection);
 8001b46:	4b51      	ldr	r3, [pc, #324]	@ (8001c8c <HAL_RCCEx_PeriphCLKConfig+0x3e8>)
 8001b48:	f8d3 3088 	ldr.w	r3, [r3, #136]	@ 0x88
 8001b4c:	f423 3240 	bic.w	r2, r3, #196608	@ 0x30000
 8001b50:	687b      	ldr	r3, [r7, #4]
 8001b52:	6b1b      	ldr	r3, [r3, #48]	@ 0x30
 8001b54:	494d      	ldr	r1, [pc, #308]	@ (8001c8c <HAL_RCCEx_PeriphCLKConfig+0x3e8>)
 8001b56:	4313      	orrs	r3, r2
 8001b58:	f8c1 3088 	str.w	r3, [r1, #136]	@ 0x88
#endif /* I2C4 */

#if defined(USB_OTG_FS) || defined(USB)

  /*-------------------------- USB clock source configuration ----------------------*/
  if(((PeriphClkInit->PeriphClockSelection) & RCC_PERIPHCLK_USB) == (RCC_PERIPHCLK_USB))
 8001b5c:	687b      	ldr	r3, [r7, #4]
 8001b5e:	681b      	ldr	r3, [r3, #0]
 8001b60:	f403 5300 	and.w	r3, r3, #8192	@ 0x2000
 8001b64:	2b00      	cmp	r3, #0
 8001b66:	d028      	beq.n	8001bba <HAL_RCCEx_PeriphCLKConfig+0x316>
  {
    assert_param(IS_RCC_USBCLKSOURCE(PeriphClkInit->UsbClockSelection));
    __HAL_RCC_USB_CONFIG(PeriphClkInit->UsbClockSelection);
 8001b68:	4b48      	ldr	r3, [pc, #288]	@ (8001c8c <HAL_RCCEx_PeriphCLKConfig+0x3e8>)
 8001b6a:	f8d3 3088 	ldr.w	r3, [r3, #136]	@ 0x88
 8001b6e:	f023 6240 	bic.w	r2, r3, #201326592	@ 0xc000000
 8001b72:	687b      	ldr	r3, [r7, #4]
 8001b74:	6c1b      	ldr	r3, [r3, #64]	@ 0x40
 8001b76:	4945      	ldr	r1, [pc, #276]	@ (8001c8c <HAL_RCCEx_PeriphCLKConfig+0x3e8>)
 8001b78:	4313      	orrs	r3, r2
 8001b7a:	f8c1 3088 	str.w	r3, [r1, #136]	@ 0x88

    if(PeriphClkInit->UsbClockSelection == RCC_USBCLKSOURCE_PLL)
 8001b7e:	687b      	ldr	r3, [r7, #4]
 8001b80:	6c1b      	ldr	r3, [r3, #64]	@ 0x40
 8001b82:	f1b3 6f00 	cmp.w	r3, #134217728	@ 0x8000000
 8001b86:	d106      	bne.n	8001b96 <HAL_RCCEx_PeriphCLKConfig+0x2f2>
    {
      /* Enable PLL48M1CLK output clock */
      __HAL_RCC_PLLCLKOUT_ENABLE(RCC_PLL_48M1CLK);
 8001b88:	4b40      	ldr	r3, [pc, #256]	@ (8001c8c <HAL_RCCEx_PeriphCLKConfig+0x3e8>)
 8001b8a:	68db      	ldr	r3, [r3, #12]
 8001b8c:	4a3f      	ldr	r2, [pc, #252]	@ (8001c8c <HAL_RCCEx_PeriphCLKConfig+0x3e8>)
 8001b8e:	f443 1380 	orr.w	r3, r3, #1048576	@ 0x100000
 8001b92:	60d3      	str	r3, [r2, #12]
 8001b94:	e011      	b.n	8001bba <HAL_RCCEx_PeriphCLKConfig+0x316>
    }
    else
    {
#if defined(RCC_PLLSAI1_SUPPORT)
      if(PeriphClkInit->UsbClockSelection == RCC_USBCLKSOURCE_PLLSAI1)
 8001b96:	687b      	ldr	r3, [r7, #4]
 8001b98:	6c1b      	ldr	r3, [r3, #64]	@ 0x40
 8001b9a:	f1b3 6f80 	cmp.w	r3, #67108864	@ 0x4000000
 8001b9e:	d10c      	bne.n	8001bba <HAL_RCCEx_PeriphCLKConfig+0x316>
      {
        /* PLLSAI1 input clock, parameters M, N & Q configuration and clock output (PLLSAI1ClockOut) */
        ret = RCCEx_PLLSAI1_Config(&(PeriphClkInit->PLLSAI1), DIVIDER_Q_UPDATE);
 8001ba0:	687b      	ldr	r3, [r7, #4]
 8001ba2:	3304      	adds	r3, #4
 8001ba4:	2101      	movs	r1, #1
 8001ba6:	4618      	mov	r0, r3
 8001ba8:	f000 f872 	bl	8001c90 <RCCEx_PLLSAI1_Config>
 8001bac:	4603      	mov	r3, r0
 8001bae:	74fb      	strb	r3, [r7, #19]

        if(ret != HAL_OK)
 8001bb0:	7cfb      	ldrb	r3, [r7, #19]
 8001bb2:	2b00      	cmp	r3, #0
 8001bb4:	d001      	beq.n	8001bba <HAL_RCCEx_PeriphCLKConfig+0x316>
        {
          /* set overall return value */
          status = ret;
 8001bb6:	7cfb      	ldrb	r3, [r7, #19]
 8001bb8:	74bb      	strb	r3, [r7, #18]
  }

#endif /* SDMMC1 */

  /*-------------------------- RNG clock source configuration ----------------------*/
  if(((PeriphClkInit->PeriphClockSelection) & RCC_PERIPHCLK_RNG) == (RCC_PERIPHCLK_RNG))
 8001bba:	687b      	ldr	r3, [r7, #4]
 8001bbc:	681b      	ldr	r3, [r3, #0]
 8001bbe:	f403 2380 	and.w	r3, r3, #262144	@ 0x40000
 8001bc2:	2b00      	cmp	r3, #0
 8001bc4:	d028      	beq.n	8001c18 <HAL_RCCEx_PeriphCLKConfig+0x374>
  {
    assert_param(IS_RCC_RNGCLKSOURCE(PeriphClkInit->RngClockSelection));
    __HAL_RCC_RNG_CONFIG(PeriphClkInit->RngClockSelection);
 8001bc6:	4b31      	ldr	r3, [pc, #196]	@ (8001c8c <HAL_RCCEx_PeriphCLKConfig+0x3e8>)
 8001bc8:	f8d3 3088 	ldr.w	r3, [r3, #136]	@ 0x88
 8001bcc:	f023 6240 	bic.w	r2, r3, #201326592	@ 0xc000000
 8001bd0:	687b      	ldr	r3, [r7, #4]
 8001bd2:	6c5b      	ldr	r3, [r3, #68]	@ 0x44
 8001bd4:	492d      	ldr	r1, [pc, #180]	@ (8001c8c <HAL_RCCEx_PeriphCLKConfig+0x3e8>)
 8001bd6:	4313      	orrs	r3, r2
 8001bd8:	f8c1 3088 	str.w	r3, [r1, #136]	@ 0x88

    if(PeriphClkInit->RngClockSelection == RCC_RNGCLKSOURCE_PLL)
 8001bdc:	687b      	ldr	r3, [r7, #4]
 8001bde:	6c5b      	ldr	r3, [r3, #68]	@ 0x44
 8001be0:	f1b3 6f00 	cmp.w	r3, #134217728	@ 0x8000000
 8001be4:	d106      	bne.n	8001bf4 <HAL_RCCEx_PeriphCLKConfig+0x350>
    {
      /* Enable PLL48M1CLK output clock */
      __HAL_RCC_PLLCLKOUT_ENABLE(RCC_PLL_48M1CLK);
 8001be6:	4b29      	ldr	r3, [pc, #164]	@ (8001c8c <HAL_RCCEx_PeriphCLKConfig+0x3e8>)
 8001be8:	68db      	ldr	r3, [r3, #12]
 8001bea:	4a28      	ldr	r2, [pc, #160]	@ (8001c8c <HAL_RCCEx_PeriphCLKConfig+0x3e8>)
 8001bec:	f443 1380 	orr.w	r3, r3, #1048576	@ 0x100000
 8001bf0:	60d3      	str	r3, [r2, #12]
 8001bf2:	e011      	b.n	8001c18 <HAL_RCCEx_PeriphCLKConfig+0x374>
    }
#if defined(RCC_PLLSAI1_SUPPORT)
    else if(PeriphClkInit->RngClockSelection == RCC_RNGCLKSOURCE_PLLSAI1)
 8001bf4:	687b      	ldr	r3, [r7, #4]
 8001bf6:	6c5b      	ldr	r3, [r3, #68]	@ 0x44
 8001bf8:	f1b3 6f80 	cmp.w	r3, #67108864	@ 0x4000000
 8001bfc:	d10c      	bne.n	8001c18 <HAL_RCCEx_PeriphCLKConfig+0x374>
    {
      /* PLLSAI1 input clock, parameters M, N & Q configuration and clock output (PLLSAI1ClockOut) */
      ret = RCCEx_PLLSAI1_Config(&(PeriphClkInit->PLLSAI1), DIVIDER_Q_UPDATE);
 8001bfe:	687b      	ldr	r3, [r7, #4]
 8001c00:	3304      	adds	r3, #4
 8001c02:	2101      	movs	r1, #1
 8001c04:	4618      	mov	r0, r3
 8001c06:	f000 f843 	bl	8001c90 <RCCEx_PLLSAI1_Config>
 8001c0a:	4603      	mov	r3, r0
 8001c0c:	74fb      	strb	r3, [r7, #19]

      if(ret != HAL_OK)
 8001c0e:	7cfb      	ldrb	r3, [r7, #19]
 8001c10:	2b00      	cmp	r3, #0
 8001c12:	d001      	beq.n	8001c18 <HAL_RCCEx_PeriphCLKConfig+0x374>
      {
        /* set overall return value */
        status = ret;
 8001c14:	7cfb      	ldrb	r3, [r7, #19]
 8001c16:	74bb      	strb	r3, [r7, #18]
    }
  }

  /*-------------------------- ADC clock source configuration ----------------------*/
#if !defined(STM32L412xx) && !defined(STM32L422xx)
  if(((PeriphClkInit->PeriphClockSelection) & RCC_PERIPHCLK_ADC) == RCC_PERIPHCLK_ADC)
 8001c18:	687b      	ldr	r3, [r7, #4]
 8001c1a:	681b      	ldr	r3, [r3, #0]
 8001c1c:	f403 4380 	and.w	r3, r3, #16384	@ 0x4000
 8001c20:	2b00      	cmp	r3, #0
 8001c22:	d01c      	beq.n	8001c5e <HAL_RCCEx_PeriphCLKConfig+0x3ba>
  {
    /* Check the parameters */
    assert_param(IS_RCC_ADCCLKSOURCE(PeriphClkInit->AdcClockSelection));

    /* Configure the ADC interface clock source */
    __HAL_RCC_ADC_CONFIG(PeriphClkInit->AdcClockSelection);
 8001c24:	4b19      	ldr	r3, [pc, #100]	@ (8001c8c <HAL_RCCEx_PeriphCLKConfig+0x3e8>)
 8001c26:	f8d3 3088 	ldr.w	r3, [r3, #136]	@ 0x88
 8001c2a:	f023 5240 	bic.w	r2, r3, #805306368	@ 0x30000000
 8001c2e:	687b      	ldr	r3, [r7, #4]
 8001c30:	6c9b      	ldr	r3, [r3, #72]	@ 0x48
 8001c32:	4916      	ldr	r1, [pc, #88]	@ (8001c8c <HAL_RCCEx_PeriphCLKConfig+0x3e8>)
 8001c34:	4313      	orrs	r3, r2
 8001c36:	f8c1 3088 	str.w	r3, [r1, #136]	@ 0x88

#if defined(RCC_PLLSAI1_SUPPORT)
    if(PeriphClkInit->AdcClockSelection == RCC_ADCCLKSOURCE_PLLSAI1)
 8001c3a:	687b      	ldr	r3, [r7, #4]
 8001c3c:	6c9b      	ldr	r3, [r3, #72]	@ 0x48
 8001c3e:	f1b3 5f80 	cmp.w	r3, #268435456	@ 0x10000000
 8001c42:	d10c      	bne.n	8001c5e <HAL_RCCEx_PeriphCLKConfig+0x3ba>
    {
      /* PLLSAI1 input clock, parameters M, N & R configuration and clock output (PLLSAI1ClockOut) */
      ret = RCCEx_PLLSAI1_Config(&(PeriphClkInit->PLLSAI1), DIVIDER_R_UPDATE);
 8001c44:	687b      	ldr	r3, [r7, #4]
 8001c46:	3304      	adds	r3, #4
 8001c48:	2102      	movs	r1, #2
 8001c4a:	4618      	mov	r0, r3
 8001c4c:	f000 f820 	bl	8001c90 <RCCEx_PLLSAI1_Config>
 8001c50:	4603      	mov	r3, r0
 8001c52:	74fb      	strb	r3, [r7, #19]

      if(ret != HAL_OK)
 8001c54:	7cfb      	ldrb	r3, [r7, #19]
 8001c56:	2b00      	cmp	r3, #0
 8001c58:	d001      	beq.n	8001c5e <HAL_RCCEx_PeriphCLKConfig+0x3ba>
      {
        /* set overall return value */
        status = ret;
 8001c5a:	7cfb      	ldrb	r3, [r7, #19]
 8001c5c:	74bb      	strb	r3, [r7, #18]
#endif /* !STM32L412xx && !STM32L422xx */

#if defined(SWPMI1)

  /*-------------------------- SWPMI1 clock source configuration -------------------*/
  if(((PeriphClkInit->PeriphClockSelection) & RCC_PERIPHCLK_SWPMI1) == RCC_PERIPHCLK_SWPMI1)
 8001c5e:	687b      	ldr	r3, [r7, #4]
 8001c60:	681b      	ldr	r3, [r3, #0]
 8001c62:	f403 4300 	and.w	r3, r3, #32768	@ 0x8000
 8001c66:	2b00      	cmp	r3, #0
 8001c68:	d00a      	beq.n	8001c80 <HAL_RCCEx_PeriphCLKConfig+0x3dc>
  {
    /* Check the parameters */
    assert_param(IS_RCC_SWPMI1CLKSOURCE(PeriphClkInit->Swpmi1ClockSelection));

    /* Configure the SWPMI1 clock source */
    __HAL_RCC_SWPMI1_CONFIG(PeriphClkInit->Swpmi1ClockSelection);
 8001c6a:	4b08      	ldr	r3, [pc, #32]	@ (8001c8c <HAL_RCCEx_PeriphCLKConfig+0x3e8>)
 8001c6c:	f8d3 3088 	ldr.w	r3, [r3, #136]	@ 0x88
 8001c70:	f023 4280 	bic.w	r2, r3, #1073741824	@ 0x40000000
 8001c74:	687b      	ldr	r3, [r7, #4]
 8001c76:	6cdb      	ldr	r3, [r3, #76]	@ 0x4c
 8001c78:	4904      	ldr	r1, [pc, #16]	@ (8001c8c <HAL_RCCEx_PeriphCLKConfig+0x3e8>)
 8001c7a:	4313      	orrs	r3, r2
 8001c7c:	f8c1 3088 	str.w	r3, [r1, #136]	@ 0x88
    }
  }

#endif /* OCTOSPI1 || OCTOSPI2 */

  return status;
 8001c80:	7cbb      	ldrb	r3, [r7, #18]
}
 8001c82:	4618      	mov	r0, r3
 8001c84:	3718      	adds	r7, #24
 8001c86:	46bd      	mov	sp, r7
 8001c88:	bd80      	pop	{r7, pc}
 8001c8a:	bf00      	nop
 8001c8c:	40021000 	.word	0x40021000

08001c90 <RCCEx_PLLSAI1_Config>:
  * @note   PLLSAI1 is temporary disable to apply new parameters
  *
  * @retval HAL status
  */
static HAL_StatusTypeDef RCCEx_PLLSAI1_Config(RCC_PLLSAI1InitTypeDef *PllSai1, uint32_t Divider)
{
 8001c90:	b580      	push	{r7, lr}
 8001c92:	b084      	sub	sp, #16
 8001c94:	af00      	add	r7, sp, #0
 8001c96:	6078      	str	r0, [r7, #4]
 8001c98:	6039      	str	r1, [r7, #0]
  uint32_t tickstart;
  HAL_StatusTypeDef status = HAL_OK;
 8001c9a:	2300      	movs	r3, #0
 8001c9c:	73fb      	strb	r3, [r7, #15]
  assert_param(IS_RCC_PLLSAI1M_VALUE(PllSai1->PLLSAI1M));
  assert_param(IS_RCC_PLLSAI1N_VALUE(PllSai1->PLLSAI1N));
  assert_param(IS_RCC_PLLSAI1CLOCKOUT_VALUE(PllSai1->PLLSAI1ClockOut));

  /* Check that PLLSAI1 clock source and divider M can be applied */
  if(__HAL_RCC_GET_PLL_OSCSOURCE() != RCC_PLLSOURCE_NONE)
 8001c9e:	4b74      	ldr	r3, [pc, #464]	@ (8001e70 <RCCEx_PLLSAI1_Config+0x1e0>)
 8001ca0:	68db      	ldr	r3, [r3, #12]
 8001ca2:	f003 0303 	and.w	r3, r3, #3
 8001ca6:	2b00      	cmp	r3, #0
 8001ca8:	d018      	beq.n	8001cdc <RCCEx_PLLSAI1_Config+0x4c>
  {
    /* PLL clock source and divider M already set, check that no request for change  */
    if((__HAL_RCC_GET_PLL_OSCSOURCE() != PllSai1->PLLSAI1Source)
 8001caa:	4b71      	ldr	r3, [pc, #452]	@ (8001e70 <RCCEx_PLLSAI1_Config+0x1e0>)
 8001cac:	68db      	ldr	r3, [r3, #12]
 8001cae:	f003 0203 	and.w	r2, r3, #3
 8001cb2:	687b      	ldr	r3, [r7, #4]
 8001cb4:	681b      	ldr	r3, [r3, #0]
 8001cb6:	429a      	cmp	r2, r3
 8001cb8:	d10d      	bne.n	8001cd6 <RCCEx_PLLSAI1_Config+0x46>
       ||
       (PllSai1->PLLSAI1Source == RCC_PLLSOURCE_NONE)
 8001cba:	687b      	ldr	r3, [r7, #4]
 8001cbc:	681b      	ldr	r3, [r3, #0]
       ||
 8001cbe:	2b00      	cmp	r3, #0
 8001cc0:	d009      	beq.n	8001cd6 <RCCEx_PLLSAI1_Config+0x46>
#if !defined(RCC_PLLSAI1M_DIV_1_16_SUPPORT)
       ||
       (((READ_BIT(RCC->PLLCFGR, RCC_PLLCFGR_PLLM) >> RCC_PLLCFGR_PLLM_Pos) + 1U) != PllSai1->PLLSAI1M)
 8001cc2:	4b6b      	ldr	r3, [pc, #428]	@ (8001e70 <RCCEx_PLLSAI1_Config+0x1e0>)
 8001cc4:	68db      	ldr	r3, [r3, #12]
 8001cc6:	091b      	lsrs	r3, r3, #4
 8001cc8:	f003 0307 	and.w	r3, r3, #7
 8001ccc:	1c5a      	adds	r2, r3, #1
 8001cce:	687b      	ldr	r3, [r7, #4]
 8001cd0:	685b      	ldr	r3, [r3, #4]
       ||
 8001cd2:	429a      	cmp	r2, r3
 8001cd4:	d047      	beq.n	8001d66 <RCCEx_PLLSAI1_Config+0xd6>
#endif
      )
    {
      status = HAL_ERROR;
 8001cd6:	2301      	movs	r3, #1
 8001cd8:	73fb      	strb	r3, [r7, #15]
 8001cda:	e044      	b.n	8001d66 <RCCEx_PLLSAI1_Config+0xd6>
    }
  }
  else
  {
    /* Check PLLSAI1 clock source availability */
    switch(PllSai1->PLLSAI1Source)
 8001cdc:	687b      	ldr	r3, [r7, #4]
 8001cde:	681b      	ldr	r3, [r3, #0]
 8001ce0:	2b03      	cmp	r3, #3
 8001ce2:	d018      	beq.n	8001d16 <RCCEx_PLLSAI1_Config+0x86>
 8001ce4:	2b03      	cmp	r3, #3
 8001ce6:	d825      	bhi.n	8001d34 <RCCEx_PLLSAI1_Config+0xa4>
 8001ce8:	2b01      	cmp	r3, #1
 8001cea:	d002      	beq.n	8001cf2 <RCCEx_PLLSAI1_Config+0x62>
 8001cec:	2b02      	cmp	r3, #2
 8001cee:	d009      	beq.n	8001d04 <RCCEx_PLLSAI1_Config+0x74>
 8001cf0:	e020      	b.n	8001d34 <RCCEx_PLLSAI1_Config+0xa4>
    {
    case RCC_PLLSOURCE_MSI:
      if(HAL_IS_BIT_CLR(RCC->CR, RCC_CR_MSIRDY))
 8001cf2:	4b5f      	ldr	r3, [pc, #380]	@ (8001e70 <RCCEx_PLLSAI1_Config+0x1e0>)
 8001cf4:	681b      	ldr	r3, [r3, #0]
 8001cf6:	f003 0302 	and.w	r3, r3, #2
 8001cfa:	2b00      	cmp	r3, #0
 8001cfc:	d11d      	bne.n	8001d3a <RCCEx_PLLSAI1_Config+0xaa>
      {
        status = HAL_ERROR;
 8001cfe:	2301      	movs	r3, #1
 8001d00:	73fb      	strb	r3, [r7, #15]
      }
      break;
 8001d02:	e01a      	b.n	8001d3a <RCCEx_PLLSAI1_Config+0xaa>
    case RCC_PLLSOURCE_HSI:
      if(HAL_IS_BIT_CLR(RCC->CR, RCC_CR_HSIRDY))
 8001d04:	4b5a      	ldr	r3, [pc, #360]	@ (8001e70 <RCCEx_PLLSAI1_Config+0x1e0>)
 8001d06:	681b      	ldr	r3, [r3, #0]
 8001d08:	f403 6380 	and.w	r3, r3, #1024	@ 0x400
 8001d0c:	2b00      	cmp	r3, #0
 8001d0e:	d116      	bne.n	8001d3e <RCCEx_PLLSAI1_Config+0xae>
      {
        status = HAL_ERROR;
 8001d10:	2301      	movs	r3, #1
 8001d12:	73fb      	strb	r3, [r7, #15]
      }
      break;
 8001d14:	e013      	b.n	8001d3e <RCCEx_PLLSAI1_Config+0xae>
    case RCC_PLLSOURCE_HSE:
      if(HAL_IS_BIT_CLR(RCC->CR, RCC_CR_HSERDY))
 8001d16:	4b56      	ldr	r3, [pc, #344]	@ (8001e70 <RCCEx_PLLSAI1_Config+0x1e0>)
 8001d18:	681b      	ldr	r3, [r3, #0]
 8001d1a:	f403 3300 	and.w	r3, r3, #131072	@ 0x20000
 8001d1e:	2b00      	cmp	r3, #0
 8001d20:	d10f      	bne.n	8001d42 <RCCEx_PLLSAI1_Config+0xb2>
      {
        if(HAL_IS_BIT_CLR(RCC->CR, RCC_CR_HSEBYP))
 8001d22:	4b53      	ldr	r3, [pc, #332]	@ (8001e70 <RCCEx_PLLSAI1_Config+0x1e0>)
 8001d24:	681b      	ldr	r3, [r3, #0]
 8001d26:	f403 2380 	and.w	r3, r3, #262144	@ 0x40000
 8001d2a:	2b00      	cmp	r3, #0
 8001d2c:	d109      	bne.n	8001d42 <RCCEx_PLLSAI1_Config+0xb2>
        {
          status = HAL_ERROR;
 8001d2e:	2301      	movs	r3, #1
 8001d30:	73fb      	strb	r3, [r7, #15]
        }
      }
      break;
 8001d32:	e006      	b.n	8001d42 <RCCEx_PLLSAI1_Config+0xb2>
    default:
      status = HAL_ERROR;
 8001d34:	2301      	movs	r3, #1
 8001d36:	73fb      	strb	r3, [r7, #15]
      break;
 8001d38:	e004      	b.n	8001d44 <RCCEx_PLLSAI1_Config+0xb4>
      break;
 8001d3a:	bf00      	nop
 8001d3c:	e002      	b.n	8001d44 <RCCEx_PLLSAI1_Config+0xb4>
      break;
 8001d3e:	bf00      	nop
 8001d40:	e000      	b.n	8001d44 <RCCEx_PLLSAI1_Config+0xb4>
      break;
 8001d42:	bf00      	nop
    }

    if(status == HAL_OK)
 8001d44:	7bfb      	ldrb	r3, [r7, #15]
 8001d46:	2b00      	cmp	r3, #0
 8001d48:	d10d      	bne.n	8001d66 <RCCEx_PLLSAI1_Config+0xd6>
#if defined(RCC_PLLSAI1M_DIV_1_16_SUPPORT)
      /* Set PLLSAI1 clock source */
      MODIFY_REG(RCC->PLLCFGR, RCC_PLLCFGR_PLLSRC, PllSai1->PLLSAI1Source);
#else
      /* Set PLLSAI1 clock source and divider M */
      MODIFY_REG(RCC->PLLCFGR, RCC_PLLCFGR_PLLSRC | RCC_PLLCFGR_PLLM, PllSai1->PLLSAI1Source | (PllSai1->PLLSAI1M - 1U) << RCC_PLLCFGR_PLLM_Pos);
 8001d4a:	4b49      	ldr	r3, [pc, #292]	@ (8001e70 <RCCEx_PLLSAI1_Config+0x1e0>)
 8001d4c:	68db      	ldr	r3, [r3, #12]
 8001d4e:	f023 0273 	bic.w	r2, r3, #115	@ 0x73
 8001d52:	687b      	ldr	r3, [r7, #4]
 8001d54:	6819      	ldr	r1, [r3, #0]
 8001d56:	687b      	ldr	r3, [r7, #4]
 8001d58:	685b      	ldr	r3, [r3, #4]
 8001d5a:	3b01      	subs	r3, #1
 8001d5c:	011b      	lsls	r3, r3, #4
 8001d5e:	430b      	orrs	r3, r1
 8001d60:	4943      	ldr	r1, [pc, #268]	@ (8001e70 <RCCEx_PLLSAI1_Config+0x1e0>)
 8001d62:	4313      	orrs	r3, r2
 8001d64:	60cb      	str	r3, [r1, #12]
#endif
    }
  }

  if(status == HAL_OK)
 8001d66:	7bfb      	ldrb	r3, [r7, #15]
 8001d68:	2b00      	cmp	r3, #0
 8001d6a:	d17c      	bne.n	8001e66 <RCCEx_PLLSAI1_Config+0x1d6>
  {
    /* Disable the PLLSAI1 */
    __HAL_RCC_PLLSAI1_DISABLE();
 8001d6c:	4b40      	ldr	r3, [pc, #256]	@ (8001e70 <RCCEx_PLLSAI1_Config+0x1e0>)
 8001d6e:	681b      	ldr	r3, [r3, #0]
 8001d70:	4a3f      	ldr	r2, [pc, #252]	@ (8001e70 <RCCEx_PLLSAI1_Config+0x1e0>)
 8001d72:	f023 6380 	bic.w	r3, r3, #67108864	@ 0x4000000
 8001d76:	6013      	str	r3, [r2, #0]

    /* Get Start Tick*/
    tickstart = HAL_GetTick();
 8001d78:	f7fe fc78 	bl	800066c <HAL_GetTick>
 8001d7c:	60b8      	str	r0, [r7, #8]

    /* Wait till PLLSAI1 is ready to be updated */
    while(READ_BIT(RCC->CR, RCC_CR_PLLSAI1RDY) != 0U)
 8001d7e:	e009      	b.n	8001d94 <RCCEx_PLLSAI1_Config+0x104>
    {
      if((HAL_GetTick() - tickstart) > PLLSAI1_TIMEOUT_VALUE)
 8001d80:	f7fe fc74 	bl	800066c <HAL_GetTick>
 8001d84:	4602      	mov	r2, r0
 8001d86:	68bb      	ldr	r3, [r7, #8]
 8001d88:	1ad3      	subs	r3, r2, r3
 8001d8a:	2b02      	cmp	r3, #2
 8001d8c:	d902      	bls.n	8001d94 <RCCEx_PLLSAI1_Config+0x104>
      {
        status = HAL_TIMEOUT;
 8001d8e:	2303      	movs	r3, #3
 8001d90:	73fb      	strb	r3, [r7, #15]
        break;
 8001d92:	e005      	b.n	8001da0 <RCCEx_PLLSAI1_Config+0x110>
    while(READ_BIT(RCC->CR, RCC_CR_PLLSAI1RDY) != 0U)
 8001d94:	4b36      	ldr	r3, [pc, #216]	@ (8001e70 <RCCEx_PLLSAI1_Config+0x1e0>)
 8001d96:	681b      	ldr	r3, [r3, #0]
 8001d98:	f003 6300 	and.w	r3, r3, #134217728	@ 0x8000000
 8001d9c:	2b00      	cmp	r3, #0
 8001d9e:	d1ef      	bne.n	8001d80 <RCCEx_PLLSAI1_Config+0xf0>
      }
    }

    if(status == HAL_OK)
 8001da0:	7bfb      	ldrb	r3, [r7, #15]
 8001da2:	2b00      	cmp	r3, #0
 8001da4:	d15f      	bne.n	8001e66 <RCCEx_PLLSAI1_Config+0x1d6>
    {
      if(Divider == DIVIDER_P_UPDATE)
 8001da6:	683b      	ldr	r3, [r7, #0]
 8001da8:	2b00      	cmp	r3, #0
 8001daa:	d110      	bne.n	8001dce <RCCEx_PLLSAI1_Config+0x13e>
#endif /* RCC_PLLSAI1P_DIV_2_31_SUPPORT */

#else
        /* Configure the PLLSAI1 Division factor P and Multiplication factor N*/
#if defined(RCC_PLLSAI1P_DIV_2_31_SUPPORT)
        MODIFY_REG(RCC->PLLSAI1CFGR,
 8001dac:	4b30      	ldr	r3, [pc, #192]	@ (8001e70 <RCCEx_PLLSAI1_Config+0x1e0>)
 8001dae:	691b      	ldr	r3, [r3, #16]
 8001db0:	f023 4378 	bic.w	r3, r3, #4160749568	@ 0xf8000000
 8001db4:	f423 43fe 	bic.w	r3, r3, #32512	@ 0x7f00
 8001db8:	687a      	ldr	r2, [r7, #4]
 8001dba:	6892      	ldr	r2, [r2, #8]
 8001dbc:	0211      	lsls	r1, r2, #8
 8001dbe:	687a      	ldr	r2, [r7, #4]
 8001dc0:	68d2      	ldr	r2, [r2, #12]
 8001dc2:	06d2      	lsls	r2, r2, #27
 8001dc4:	430a      	orrs	r2, r1
 8001dc6:	492a      	ldr	r1, [pc, #168]	@ (8001e70 <RCCEx_PLLSAI1_Config+0x1e0>)
 8001dc8:	4313      	orrs	r3, r2
 8001dca:	610b      	str	r3, [r1, #16]
 8001dcc:	e027      	b.n	8001e1e <RCCEx_PLLSAI1_Config+0x18e>
                   ((PllSai1->PLLSAI1P >> 4U) << RCC_PLLSAI1CFGR_PLLSAI1P_Pos));
#endif /* RCC_PLLSAI1P_DIV_2_31_SUPPORT */

#endif /* RCC_PLLSAI1M_DIV_1_16_SUPPORT */
      }
      else if(Divider == DIVIDER_Q_UPDATE)
 8001dce:	683b      	ldr	r3, [r7, #0]
 8001dd0:	2b01      	cmp	r3, #1
 8001dd2:	d112      	bne.n	8001dfa <RCCEx_PLLSAI1_Config+0x16a>
                   (PllSai1->PLLSAI1N << RCC_PLLSAI1CFGR_PLLSAI1N_Pos) |
                   (((PllSai1->PLLSAI1Q >> 1U) - 1U) << RCC_PLLSAI1CFGR_PLLSAI1Q_Pos) |
                   ((PllSai1->PLLSAI1M - 1U) << RCC_PLLSAI1CFGR_PLLSAI1M_Pos));
#else
        /* Configure the PLLSAI1 Division factor Q and Multiplication factor N*/
        MODIFY_REG(RCC->PLLSAI1CFGR,
 8001dd4:	4b26      	ldr	r3, [pc, #152]	@ (8001e70 <RCCEx_PLLSAI1_Config+0x1e0>)
 8001dd6:	691b      	ldr	r3, [r3, #16]
 8001dd8:	f423 03c0 	bic.w	r3, r3, #6291456	@ 0x600000
 8001ddc:	f423 43fe 	bic.w	r3, r3, #32512	@ 0x7f00
 8001de0:	687a      	ldr	r2, [r7, #4]
 8001de2:	6892      	ldr	r2, [r2, #8]
 8001de4:	0211      	lsls	r1, r2, #8
 8001de6:	687a      	ldr	r2, [r7, #4]
 8001de8:	6912      	ldr	r2, [r2, #16]
 8001dea:	0852      	lsrs	r2, r2, #1
 8001dec:	3a01      	subs	r2, #1
 8001dee:	0552      	lsls	r2, r2, #21
 8001df0:	430a      	orrs	r2, r1
 8001df2:	491f      	ldr	r1, [pc, #124]	@ (8001e70 <RCCEx_PLLSAI1_Config+0x1e0>)
 8001df4:	4313      	orrs	r3, r2
 8001df6:	610b      	str	r3, [r1, #16]
 8001df8:	e011      	b.n	8001e1e <RCCEx_PLLSAI1_Config+0x18e>
                   (PllSai1->PLLSAI1N << RCC_PLLSAI1CFGR_PLLSAI1N_Pos) |
                   (((PllSai1->PLLSAI1R >> 1U) - 1U) << RCC_PLLSAI1CFGR_PLLSAI1R_Pos) |
                   ((PllSai1->PLLSAI1M - 1U) << RCC_PLLSAI1CFGR_PLLSAI1M_Pos));
#else
        /* Configure the PLLSAI1 Division factor R and Multiplication factor N*/
        MODIFY_REG(RCC->PLLSAI1CFGR,
 8001dfa:	4b1d      	ldr	r3, [pc, #116]	@ (8001e70 <RCCEx_PLLSAI1_Config+0x1e0>)
 8001dfc:	691b      	ldr	r3, [r3, #16]
 8001dfe:	f023 63c0 	bic.w	r3, r3, #100663296	@ 0x6000000
 8001e02:	f423 43fe 	bic.w	r3, r3, #32512	@ 0x7f00
 8001e06:	687a      	ldr	r2, [r7, #4]
 8001e08:	6892      	ldr	r2, [r2, #8]
 8001e0a:	0211      	lsls	r1, r2, #8
 8001e0c:	687a      	ldr	r2, [r7, #4]
 8001e0e:	6952      	ldr	r2, [r2, #20]
 8001e10:	0852      	lsrs	r2, r2, #1
 8001e12:	3a01      	subs	r2, #1
 8001e14:	0652      	lsls	r2, r2, #25
 8001e16:	430a      	orrs	r2, r1
 8001e18:	4915      	ldr	r1, [pc, #84]	@ (8001e70 <RCCEx_PLLSAI1_Config+0x1e0>)
 8001e1a:	4313      	orrs	r3, r2
 8001e1c:	610b      	str	r3, [r1, #16]
                   (((PllSai1->PLLSAI1R >> 1U) - 1U) << RCC_PLLSAI1CFGR_PLLSAI1R_Pos));
#endif /* RCC_PLLSAI1M_DIV_1_16_SUPPORT */
      }

      /* Enable the PLLSAI1 again by setting PLLSAI1ON to 1*/
      __HAL_RCC_PLLSAI1_ENABLE();
 8001e1e:	4b14      	ldr	r3, [pc, #80]	@ (8001e70 <RCCEx_PLLSAI1_Config+0x1e0>)
 8001e20:	681b      	ldr	r3, [r3, #0]
 8001e22:	4a13      	ldr	r2, [pc, #76]	@ (8001e70 <RCCEx_PLLSAI1_Config+0x1e0>)
 8001e24:	f043 6380 	orr.w	r3, r3, #67108864	@ 0x4000000
 8001e28:	6013      	str	r3, [r2, #0]

      /* Get Start Tick*/
      tickstart = HAL_GetTick();
 8001e2a:	f7fe fc1f 	bl	800066c <HAL_GetTick>
 8001e2e:	60b8      	str	r0, [r7, #8]

      /* Wait till PLLSAI1 is ready */
      while(READ_BIT(RCC->CR, RCC_CR_PLLSAI1RDY) == 0U)
 8001e30:	e009      	b.n	8001e46 <RCCEx_PLLSAI1_Config+0x1b6>
      {
        if((HAL_GetTick() - tickstart) > PLLSAI1_TIMEOUT_VALUE)
 8001e32:	f7fe fc1b 	bl	800066c <HAL_GetTick>
 8001e36:	4602      	mov	r2, r0
 8001e38:	68bb      	ldr	r3, [r7, #8]
 8001e3a:	1ad3      	subs	r3, r2, r3
 8001e3c:	2b02      	cmp	r3, #2
 8001e3e:	d902      	bls.n	8001e46 <RCCEx_PLLSAI1_Config+0x1b6>
        {
          status = HAL_TIMEOUT;
 8001e40:	2303      	movs	r3, #3
 8001e42:	73fb      	strb	r3, [r7, #15]
          break;
 8001e44:	e005      	b.n	8001e52 <RCCEx_PLLSAI1_Config+0x1c2>
      while(READ_BIT(RCC->CR, RCC_CR_PLLSAI1RDY) == 0U)
 8001e46:	4b0a      	ldr	r3, [pc, #40]	@ (8001e70 <RCCEx_PLLSAI1_Config+0x1e0>)
 8001e48:	681b      	ldr	r3, [r3, #0]
 8001e4a:	f003 6300 	and.w	r3, r3, #134217728	@ 0x8000000
 8001e4e:	2b00      	cmp	r3, #0
 8001e50:	d0ef      	beq.n	8001e32 <RCCEx_PLLSAI1_Config+0x1a2>
        }
      }

      if(status == HAL_OK)
 8001e52:	7bfb      	ldrb	r3, [r7, #15]
 8001e54:	2b00      	cmp	r3, #0
 8001e56:	d106      	bne.n	8001e66 <RCCEx_PLLSAI1_Config+0x1d6>
      {
        /* Configure the PLLSAI1 Clock output(s) */
        __HAL_RCC_PLLSAI1CLKOUT_ENABLE(PllSai1->PLLSAI1ClockOut);
 8001e58:	4b05      	ldr	r3, [pc, #20]	@ (8001e70 <RCCEx_PLLSAI1_Config+0x1e0>)
 8001e5a:	691a      	ldr	r2, [r3, #16]
 8001e5c:	687b      	ldr	r3, [r7, #4]
 8001e5e:	699b      	ldr	r3, [r3, #24]
 8001e60:	4903      	ldr	r1, [pc, #12]	@ (8001e70 <RCCEx_PLLSAI1_Config+0x1e0>)
 8001e62:	4313      	orrs	r3, r2
 8001e64:	610b      	str	r3, [r1, #16]
      }
    }
  }

  return status;
 8001e66:	7bfb      	ldrb	r3, [r7, #15]
}
 8001e68:	4618      	mov	r0, r3
 8001e6a:	3710      	adds	r7, #16
 8001e6c:	46bd      	mov	sp, r7
 8001e6e:	bd80      	pop	{r7, pc}
 8001e70:	40021000 	.word	0x40021000

08001e74 <HAL_UART_Init>:
  *        parameters in the UART_InitTypeDef and initialize the associated handle.
  * @param huart UART handle.
  * @retval HAL status
  */
HAL_StatusTypeDef HAL_UART_Init(UART_HandleTypeDef *huart)
{
 8001e74:	b580      	push	{r7, lr}
 8001e76:	b082      	sub	sp, #8
 8001e78:	af00      	add	r7, sp, #0
 8001e7a:	6078      	str	r0, [r7, #4]
  /* Check the UART handle allocation */
  if (huart == NULL)
 8001e7c:	687b      	ldr	r3, [r7, #4]
 8001e7e:	2b00      	cmp	r3, #0
 8001e80:	d101      	bne.n	8001e86 <HAL_UART_Init+0x12>
  {
    return HAL_ERROR;
 8001e82:	2301      	movs	r3, #1
 8001e84:	e040      	b.n	8001f08 <HAL_UART_Init+0x94>
  {
    /* Check the parameters */
    assert_param((IS_UART_INSTANCE(huart->Instance)) || (IS_LPUART_INSTANCE(huart->Instance)));
  }

  if (huart->gState == HAL_UART_STATE_RESET)
 8001e86:	687b      	ldr	r3, [r7, #4]
 8001e88:	6fdb      	ldr	r3, [r3, #124]	@ 0x7c
 8001e8a:	2b00      	cmp	r3, #0
 8001e8c:	d106      	bne.n	8001e9c <HAL_UART_Init+0x28>
  {
    /* Allocate lock resource and initialize it */
    huart->Lock = HAL_UNLOCKED;
 8001e8e:	687b      	ldr	r3, [r7, #4]
 8001e90:	2200      	movs	r2, #0
 8001e92:	f883 2078 	strb.w	r2, [r3, #120]	@ 0x78

    /* Init the low level hardware */
    huart->MspInitCallback(huart);
#else
    /* Init the low level hardware : GPIO, CLOCK */
    HAL_UART_MspInit(huart);
 8001e96:	6878      	ldr	r0, [r7, #4]
 8001e98:	f004 f936 	bl	8006108 <HAL_UART_MspInit>
#endif /* (USE_HAL_UART_REGISTER_CALLBACKS) */
  }

  huart->gState = HAL_UART_STATE_BUSY;
 8001e9c:	687b      	ldr	r3, [r7, #4]
 8001e9e:	2224      	movs	r2, #36	@ 0x24
 8001ea0:	67da      	str	r2, [r3, #124]	@ 0x7c

  __HAL_UART_DISABLE(huart);
 8001ea2:	687b      	ldr	r3, [r7, #4]
 8001ea4:	681b      	ldr	r3, [r3, #0]
 8001ea6:	681a      	ldr	r2, [r3, #0]
 8001ea8:	687b      	ldr	r3, [r7, #4]
 8001eaa:	681b      	ldr	r3, [r3, #0]
 8001eac:	f022 0201 	bic.w	r2, r2, #1
 8001eb0:	601a      	str	r2, [r3, #0]

  /* Perform advanced settings configuration */
  /* For some items, configuration requires to be done prior TE and RE bits are set */
  if (huart->AdvancedInit.AdvFeatureInit != UART_ADVFEATURE_NO_INIT)
 8001eb2:	687b      	ldr	r3, [r7, #4]
 8001eb4:	6a5b      	ldr	r3, [r3, #36]	@ 0x24
 8001eb6:	2b00      	cmp	r3, #0
 8001eb8:	d002      	beq.n	8001ec0 <HAL_UART_Init+0x4c>
  {
    UART_AdvFeatureConfig(huart);
 8001eba:	6878      	ldr	r0, [r7, #4]
 8001ebc:	f000 fae8 	bl	8002490 <UART_AdvFeatureConfig>
  }

  /* Set the UART Communication parameters */
  if (UART_SetConfig(huart) == HAL_ERROR)
 8001ec0:	6878      	ldr	r0, [r7, #4]
 8001ec2:	f000 f8b9 	bl	8002038 <UART_SetConfig>
 8001ec6:	4603      	mov	r3, r0
 8001ec8:	2b01      	cmp	r3, #1
 8001eca:	d101      	bne.n	8001ed0 <HAL_UART_Init+0x5c>
  {
    return HAL_ERROR;
 8001ecc:	2301      	movs	r3, #1
 8001ece:	e01b      	b.n	8001f08 <HAL_UART_Init+0x94>
  }

  /* In asynchronous mode, the following bits must be kept cleared:
  - LINEN and CLKEN bits in the USART_CR2 register,
  - SCEN, HDSEL and IREN  bits in the USART_CR3 register.*/
  CLEAR_BIT(huart->Instance->CR2, (USART_CR2_LINEN | USART_CR2_CLKEN));
 8001ed0:	687b      	ldr	r3, [r7, #4]
 8001ed2:	681b      	ldr	r3, [r3, #0]
 8001ed4:	685a      	ldr	r2, [r3, #4]
 8001ed6:	687b      	ldr	r3, [r7, #4]
 8001ed8:	681b      	ldr	r3, [r3, #0]
 8001eda:	f422 4290 	bic.w	r2, r2, #18432	@ 0x4800
 8001ede:	605a      	str	r2, [r3, #4]
  CLEAR_BIT(huart->Instance->CR3, (USART_CR3_SCEN | USART_CR3_HDSEL | USART_CR3_IREN));
 8001ee0:	687b      	ldr	r3, [r7, #4]
 8001ee2:	681b      	ldr	r3, [r3, #0]
 8001ee4:	689a      	ldr	r2, [r3, #8]
 8001ee6:	687b      	ldr	r3, [r7, #4]
 8001ee8:	681b      	ldr	r3, [r3, #0]
 8001eea:	f022 022a 	bic.w	r2, r2, #42	@ 0x2a
 8001eee:	609a      	str	r2, [r3, #8]

  __HAL_UART_ENABLE(huart);
 8001ef0:	687b      	ldr	r3, [r7, #4]
 8001ef2:	681b      	ldr	r3, [r3, #0]
 8001ef4:	681a      	ldr	r2, [r3, #0]
 8001ef6:	687b      	ldr	r3, [r7, #4]
 8001ef8:	681b      	ldr	r3, [r3, #0]
 8001efa:	f042 0201 	orr.w	r2, r2, #1
 8001efe:	601a      	str	r2, [r3, #0]

  /* TEACK and/or REACK to check before moving huart->gState and huart->RxState to Ready */
  return (UART_CheckIdleState(huart));
 8001f00:	6878      	ldr	r0, [r7, #4]
 8001f02:	f000 fb67 	bl	80025d4 <UART_CheckIdleState>
 8001f06:	4603      	mov	r3, r0
}
 8001f08:	4618      	mov	r0, r3
 8001f0a:	3708      	adds	r7, #8
 8001f0c:	46bd      	mov	sp, r7
 8001f0e:	bd80      	pop	{r7, pc}

08001f10 <HAL_UART_Transmit>:
  * @param Size    Amount of data elements (u8 or u16) to be sent.
  * @param Timeout Timeout duration.
  * @retval HAL status
  */
HAL_StatusTypeDef HAL_UART_Transmit(UART_HandleTypeDef *huart, const uint8_t *pData, uint16_t Size, uint32_t Timeout)
{
 8001f10:	b580      	push	{r7, lr}
 8001f12:	b08a      	sub	sp, #40	@ 0x28
 8001f14:	af02      	add	r7, sp, #8
 8001f16:	60f8      	str	r0, [r7, #12]
 8001f18:	60b9      	str	r1, [r7, #8]
 8001f1a:	603b      	str	r3, [r7, #0]
 8001f1c:	4613      	mov	r3, r2
 8001f1e:	80fb      	strh	r3, [r7, #6]
  const uint8_t  *pdata8bits;
  const uint16_t *pdata16bits;
  uint32_t tickstart;

  /* Check that a Tx process is not already ongoing */
  if (huart->gState == HAL_UART_STATE_READY)
 8001f20:	68fb      	ldr	r3, [r7, #12]
 8001f22:	6fdb      	ldr	r3, [r3, #124]	@ 0x7c
 8001f24:	2b20      	cmp	r3, #32
 8001f26:	f040 8081 	bne.w	800202c <HAL_UART_Transmit+0x11c>
  {
    if ((pData == NULL) || (Size == 0U))
 8001f2a:	68bb      	ldr	r3, [r7, #8]
 8001f2c:	2b00      	cmp	r3, #0
 8001f2e:	d002      	beq.n	8001f36 <HAL_UART_Transmit+0x26>
 8001f30:	88fb      	ldrh	r3, [r7, #6]
 8001f32:	2b00      	cmp	r3, #0
 8001f34:	d101      	bne.n	8001f3a <HAL_UART_Transmit+0x2a>
    {
      return  HAL_ERROR;
 8001f36:	2301      	movs	r3, #1
 8001f38:	e079      	b.n	800202e <HAL_UART_Transmit+0x11e>
    }

    huart->ErrorCode = HAL_UART_ERROR_NONE;
 8001f3a:	68fb      	ldr	r3, [r7, #12]
 8001f3c:	2200      	movs	r2, #0
 8001f3e:	f8c3 2084 	str.w	r2, [r3, #132]	@ 0x84
    huart->gState = HAL_UART_STATE_BUSY_TX;
 8001f42:	68fb      	ldr	r3, [r7, #12]
 8001f44:	2221      	movs	r2, #33	@ 0x21
 8001f46:	67da      	str	r2, [r3, #124]	@ 0x7c

    /* Init tickstart for timeout management */
    tickstart = HAL_GetTick();
 8001f48:	f7fe fb90 	bl	800066c <HAL_GetTick>
 8001f4c:	6178      	str	r0, [r7, #20]

    huart->TxXferSize  = Size;
 8001f4e:	68fb      	ldr	r3, [r7, #12]
 8001f50:	88fa      	ldrh	r2, [r7, #6]
 8001f52:	f8a3 2050 	strh.w	r2, [r3, #80]	@ 0x50
    huart->TxXferCount = Size;
 8001f56:	68fb      	ldr	r3, [r7, #12]
 8001f58:	88fa      	ldrh	r2, [r7, #6]
 8001f5a:	f8a3 2052 	strh.w	r2, [r3, #82]	@ 0x52

    /* In case of 9bits/No Parity transfer, pData needs to be handled as a uint16_t pointer */
    if ((huart->Init.WordLength == UART_WORDLENGTH_9B) && (huart->Init.Parity == UART_PARITY_NONE))
 8001f5e:	68fb      	ldr	r3, [r7, #12]
 8001f60:	689b      	ldr	r3, [r3, #8]
 8001f62:	f5b3 5f80 	cmp.w	r3, #4096	@ 0x1000
 8001f66:	d108      	bne.n	8001f7a <HAL_UART_Transmit+0x6a>
 8001f68:	68fb      	ldr	r3, [r7, #12]
 8001f6a:	691b      	ldr	r3, [r3, #16]
 8001f6c:	2b00      	cmp	r3, #0
 8001f6e:	d104      	bne.n	8001f7a <HAL_UART_Transmit+0x6a>
    {
      pdata8bits  = NULL;
 8001f70:	2300      	movs	r3, #0
 8001f72:	61fb      	str	r3, [r7, #28]
      pdata16bits = (const uint16_t *) pData;
 8001f74:	68bb      	ldr	r3, [r7, #8]
 8001f76:	61bb      	str	r3, [r7, #24]
 8001f78:	e003      	b.n	8001f82 <HAL_UART_Transmit+0x72>
    }
    else
    {
      pdata8bits  = pData;
 8001f7a:	68bb      	ldr	r3, [r7, #8]
 8001f7c:	61fb      	str	r3, [r7, #28]
      pdata16bits = NULL;
 8001f7e:	2300      	movs	r3, #0
 8001f80:	61bb      	str	r3, [r7, #24]
    }

    while (huart->TxXferCount > 0U)
 8001f82:	e038      	b.n	8001ff6 <HAL_UART_Transmit+0xe6>
    {
      if (UART_WaitOnFlagUntilTimeout(huart, UART_FLAG_TXE, RESET, tickstart, Timeout) != HAL_OK)
 8001f84:	683b      	ldr	r3, [r7, #0]
 8001f86:	9300      	str	r3, [sp, #0]
 8001f88:	697b      	ldr	r3, [r7, #20]
 8001f8a:	2200      	movs	r2, #0
 8001f8c:	2180      	movs	r1, #128	@ 0x80
 8001f8e:	68f8      	ldr	r0, [r7, #12]
 8001f90:	f000 fbc8 	bl	8002724 <UART_WaitOnFlagUntilTimeout>
 8001f94:	4603      	mov	r3, r0
 8001f96:	2b00      	cmp	r3, #0
 8001f98:	d004      	beq.n	8001fa4 <HAL_UART_Transmit+0x94>
      {

        huart->gState = HAL_UART_STATE_READY;
 8001f9a:	68fb      	ldr	r3, [r7, #12]
 8001f9c:	2220      	movs	r2, #32
 8001f9e:	67da      	str	r2, [r3, #124]	@ 0x7c

        return HAL_TIMEOUT;
 8001fa0:	2303      	movs	r3, #3
 8001fa2:	e044      	b.n	800202e <HAL_UART_Transmit+0x11e>
      }
      if (pdata8bits == NULL)
 8001fa4:	69fb      	ldr	r3, [r7, #28]
 8001fa6:	2b00      	cmp	r3, #0
 8001fa8:	d10b      	bne.n	8001fc2 <HAL_UART_Transmit+0xb2>
      {
        huart->Instance->TDR = (uint16_t)(*pdata16bits & 0x01FFU);
 8001faa:	69bb      	ldr	r3, [r7, #24]
 8001fac:	881b      	ldrh	r3, [r3, #0]
 8001fae:	461a      	mov	r2, r3
 8001fb0:	68fb      	ldr	r3, [r7, #12]
 8001fb2:	681b      	ldr	r3, [r3, #0]
 8001fb4:	f3c2 0208 	ubfx	r2, r2, #0, #9
 8001fb8:	629a      	str	r2, [r3, #40]	@ 0x28
        pdata16bits++;
 8001fba:	69bb      	ldr	r3, [r7, #24]
 8001fbc:	3302      	adds	r3, #2
 8001fbe:	61bb      	str	r3, [r7, #24]
 8001fc0:	e007      	b.n	8001fd2 <HAL_UART_Transmit+0xc2>
      }
      else
      {
        huart->Instance->TDR = (uint8_t)(*pdata8bits & 0xFFU);
 8001fc2:	69fb      	ldr	r3, [r7, #28]
 8001fc4:	781a      	ldrb	r2, [r3, #0]
 8001fc6:	68fb      	ldr	r3, [r7, #12]
 8001fc8:	681b      	ldr	r3, [r3, #0]
 8001fca:	629a      	str	r2, [r3, #40]	@ 0x28
        pdata8bits++;
 8001fcc:	69fb      	ldr	r3, [r7, #28]
 8001fce:	3301      	adds	r3, #1
 8001fd0:	61fb      	str	r3, [r7, #28]
      }
      if ((huart->gState & HAL_UART_STATE_BUSY_TX) == HAL_UART_STATE_BUSY_TX)
 8001fd2:	68fb      	ldr	r3, [r7, #12]
 8001fd4:	6fdb      	ldr	r3, [r3, #124]	@ 0x7c
 8001fd6:	f003 0321 	and.w	r3, r3, #33	@ 0x21
 8001fda:	2b21      	cmp	r3, #33	@ 0x21
 8001fdc:	d109      	bne.n	8001ff2 <HAL_UART_Transmit+0xe2>
      {
        huart->TxXferCount--;
 8001fde:	68fb      	ldr	r3, [r7, #12]
 8001fe0:	f8b3 3052 	ldrh.w	r3, [r3, #82]	@ 0x52
 8001fe4:	b29b      	uxth	r3, r3
 8001fe6:	3b01      	subs	r3, #1
 8001fe8:	b29a      	uxth	r2, r3
 8001fea:	68fb      	ldr	r3, [r7, #12]
 8001fec:	f8a3 2052 	strh.w	r2, [r3, #82]	@ 0x52
 8001ff0:	e001      	b.n	8001ff6 <HAL_UART_Transmit+0xe6>
      }
      else
      {
        /* Process was aborted during the transmission */
        return HAL_ERROR;
 8001ff2:	2301      	movs	r3, #1
 8001ff4:	e01b      	b.n	800202e <HAL_UART_Transmit+0x11e>
    while (huart->TxXferCount > 0U)
 8001ff6:	68fb      	ldr	r3, [r7, #12]
 8001ff8:	f8b3 3052 	ldrh.w	r3, [r3, #82]	@ 0x52
 8001ffc:	b29b      	uxth	r3, r3
 8001ffe:	2b00      	cmp	r3, #0
 8002000:	d1c0      	bne.n	8001f84 <HAL_UART_Transmit+0x74>
      }
    }

    if (UART_WaitOnFlagUntilTimeout(huart, UART_FLAG_TC, RESET, tickstart, Timeout) != HAL_OK)
 8002002:	683b      	ldr	r3, [r7, #0]
 8002004:	9300      	str	r3, [sp, #0]
 8002006:	697b      	ldr	r3, [r7, #20]
 8002008:	2200      	movs	r2, #0
 800200a:	2140      	movs	r1, #64	@ 0x40
 800200c:	68f8      	ldr	r0, [r7, #12]
 800200e:	f000 fb89 	bl	8002724 <UART_WaitOnFlagUntilTimeout>
 8002012:	4603      	mov	r3, r0
 8002014:	2b00      	cmp	r3, #0
 8002016:	d004      	beq.n	8002022 <HAL_UART_Transmit+0x112>
    {
      huart->gState = HAL_UART_STATE_READY;
 8002018:	68fb      	ldr	r3, [r7, #12]
 800201a:	2220      	movs	r2, #32
 800201c:	67da      	str	r2, [r3, #124]	@ 0x7c

      return HAL_TIMEOUT;
 800201e:	2303      	movs	r3, #3
 8002020:	e005      	b.n	800202e <HAL_UART_Transmit+0x11e>
    }

    /* At end of Tx process, restore huart->gState to Ready */
    huart->gState = HAL_UART_STATE_READY;
 8002022:	68fb      	ldr	r3, [r7, #12]
 8002024:	2220      	movs	r2, #32
 8002026:	67da      	str	r2, [r3, #124]	@ 0x7c

    return HAL_OK;
 8002028:	2300      	movs	r3, #0
 800202a:	e000      	b.n	800202e <HAL_UART_Transmit+0x11e>
  }
  else
  {
    return HAL_BUSY;
 800202c:	2302      	movs	r3, #2
  }
}
 800202e:	4618      	mov	r0, r3
 8002030:	3720      	adds	r7, #32
 8002032:	46bd      	mov	sp, r7
 8002034:	bd80      	pop	{r7, pc}
	...

08002038 <UART_SetConfig>:
  * @brief Configure the UART peripheral.
  * @param huart UART handle.
  * @retval HAL status
  */
HAL_StatusTypeDef UART_SetConfig(UART_HandleTypeDef *huart)
{
 8002038:	e92d 4fb0 	stmdb	sp!, {r4, r5, r7, r8, r9, sl, fp, lr}
 800203c:	b08a      	sub	sp, #40	@ 0x28
 800203e:	af00      	add	r7, sp, #0
 8002040:	60f8      	str	r0, [r7, #12]
  uint32_t tmpreg;
  uint16_t brrtemp;
  UART_ClockSourceTypeDef clocksource;
  uint32_t usartdiv;
  HAL_StatusTypeDef ret               = HAL_OK;
 8002042:	2300      	movs	r3, #0
 8002044:	f887 3022 	strb.w	r3, [r7, #34]	@ 0x22
  *  the UART Word Length, Parity, Mode and oversampling:
  *  set the M bits according to huart->Init.WordLength value
  *  set PCE and PS bits according to huart->Init.Parity value
  *  set TE and RE bits according to huart->Init.Mode value
  *  set OVER8 bit according to huart->Init.OverSampling value */
  tmpreg = (uint32_t)huart->Init.WordLength | huart->Init.Parity | huart->Init.Mode | huart->Init.OverSampling ;
 8002048:	68fb      	ldr	r3, [r7, #12]
 800204a:	689a      	ldr	r2, [r3, #8]
 800204c:	68fb      	ldr	r3, [r7, #12]
 800204e:	691b      	ldr	r3, [r3, #16]
 8002050:	431a      	orrs	r2, r3
 8002052:	68fb      	ldr	r3, [r7, #12]
 8002054:	695b      	ldr	r3, [r3, #20]
 8002056:	431a      	orrs	r2, r3
 8002058:	68fb      	ldr	r3, [r7, #12]
 800205a:	69db      	ldr	r3, [r3, #28]
 800205c:	4313      	orrs	r3, r2
 800205e:	627b      	str	r3, [r7, #36]	@ 0x24
  MODIFY_REG(huart->Instance->CR1, USART_CR1_FIELDS, tmpreg);
 8002060:	68fb      	ldr	r3, [r7, #12]
 8002062:	681b      	ldr	r3, [r3, #0]
 8002064:	681a      	ldr	r2, [r3, #0]
 8002066:	4bb4      	ldr	r3, [pc, #720]	@ (8002338 <UART_SetConfig+0x300>)
 8002068:	4013      	ands	r3, r2
 800206a:	68fa      	ldr	r2, [r7, #12]
 800206c:	6812      	ldr	r2, [r2, #0]
 800206e:	6a79      	ldr	r1, [r7, #36]	@ 0x24
 8002070:	430b      	orrs	r3, r1
 8002072:	6013      	str	r3, [r2, #0]

  /*-------------------------- USART CR2 Configuration -----------------------*/
  /* Configure the UART Stop Bits: Set STOP[13:12] bits according
  * to huart->Init.StopBits value */
  MODIFY_REG(huart->Instance->CR2, USART_CR2_STOP, huart->Init.StopBits);
 8002074:	68fb      	ldr	r3, [r7, #12]
 8002076:	681b      	ldr	r3, [r3, #0]
 8002078:	685b      	ldr	r3, [r3, #4]
 800207a:	f423 5140 	bic.w	r1, r3, #12288	@ 0x3000
 800207e:	68fb      	ldr	r3, [r7, #12]
 8002080:	68da      	ldr	r2, [r3, #12]
 8002082:	68fb      	ldr	r3, [r7, #12]
 8002084:	681b      	ldr	r3, [r3, #0]
 8002086:	430a      	orrs	r2, r1
 8002088:	605a      	str	r2, [r3, #4]
  /* Configure
  * - UART HardWare Flow Control: set CTSE and RTSE bits according
  *   to huart->Init.HwFlowCtl value
  * - one-bit sampling method versus three samples' majority rule according
  *   to huart->Init.OneBitSampling (not applicable to LPUART) */
  tmpreg = (uint32_t)huart->Init.HwFlowCtl;
 800208a:	68fb      	ldr	r3, [r7, #12]
 800208c:	699b      	ldr	r3, [r3, #24]
 800208e:	627b      	str	r3, [r7, #36]	@ 0x24

  if (!(UART_INSTANCE_LOWPOWER(huart)))
 8002090:	68fb      	ldr	r3, [r7, #12]
 8002092:	681b      	ldr	r3, [r3, #0]
 8002094:	4aa9      	ldr	r2, [pc, #676]	@ (800233c <UART_SetConfig+0x304>)
 8002096:	4293      	cmp	r3, r2
 8002098:	d004      	beq.n	80020a4 <UART_SetConfig+0x6c>
  {
    tmpreg |= huart->Init.OneBitSampling;
 800209a:	68fb      	ldr	r3, [r7, #12]
 800209c:	6a1b      	ldr	r3, [r3, #32]
 800209e:	6a7a      	ldr	r2, [r7, #36]	@ 0x24
 80020a0:	4313      	orrs	r3, r2
 80020a2:	627b      	str	r3, [r7, #36]	@ 0x24
  }
  MODIFY_REG(huart->Instance->CR3, USART_CR3_FIELDS, tmpreg);
 80020a4:	68fb      	ldr	r3, [r7, #12]
 80020a6:	681b      	ldr	r3, [r3, #0]
 80020a8:	689b      	ldr	r3, [r3, #8]
 80020aa:	f423 6130 	bic.w	r1, r3, #2816	@ 0xb00
 80020ae:	68fb      	ldr	r3, [r7, #12]
 80020b0:	681b      	ldr	r3, [r3, #0]
 80020b2:	6a7a      	ldr	r2, [r7, #36]	@ 0x24
 80020b4:	430a      	orrs	r2, r1
 80020b6:	609a      	str	r2, [r3, #8]
  * - UART Clock Prescaler : set PRESCALER according to huart->Init.ClockPrescaler value */
  MODIFY_REG(huart->Instance->PRESC, USART_PRESC_PRESCALER, huart->Init.ClockPrescaler);
#endif /* USART_PRESC_PRESCALER */

  /*-------------------------- USART BRR Configuration -----------------------*/
  UART_GETCLOCKSOURCE(huart, clocksource);
 80020b8:	68fb      	ldr	r3, [r7, #12]
 80020ba:	681b      	ldr	r3, [r3, #0]
 80020bc:	4aa0      	ldr	r2, [pc, #640]	@ (8002340 <UART_SetConfig+0x308>)
 80020be:	4293      	cmp	r3, r2
 80020c0:	d126      	bne.n	8002110 <UART_SetConfig+0xd8>
 80020c2:	4ba0      	ldr	r3, [pc, #640]	@ (8002344 <UART_SetConfig+0x30c>)
 80020c4:	f8d3 3088 	ldr.w	r3, [r3, #136]	@ 0x88
 80020c8:	f003 0303 	and.w	r3, r3, #3
 80020cc:	2b03      	cmp	r3, #3
 80020ce:	d81b      	bhi.n	8002108 <UART_SetConfig+0xd0>
 80020d0:	a201      	add	r2, pc, #4	@ (adr r2, 80020d8 <UART_SetConfig+0xa0>)
 80020d2:	f852 f023 	ldr.w	pc, [r2, r3, lsl #2]
 80020d6:	bf00      	nop
 80020d8:	080020e9 	.word	0x080020e9
 80020dc:	080020f9 	.word	0x080020f9
 80020e0:	080020f1 	.word	0x080020f1
 80020e4:	08002101 	.word	0x08002101
 80020e8:	2301      	movs	r3, #1
 80020ea:	f887 3023 	strb.w	r3, [r7, #35]	@ 0x23
 80020ee:	e080      	b.n	80021f2 <UART_SetConfig+0x1ba>
 80020f0:	2302      	movs	r3, #2
 80020f2:	f887 3023 	strb.w	r3, [r7, #35]	@ 0x23
 80020f6:	e07c      	b.n	80021f2 <UART_SetConfig+0x1ba>
 80020f8:	2304      	movs	r3, #4
 80020fa:	f887 3023 	strb.w	r3, [r7, #35]	@ 0x23
 80020fe:	e078      	b.n	80021f2 <UART_SetConfig+0x1ba>
 8002100:	2308      	movs	r3, #8
 8002102:	f887 3023 	strb.w	r3, [r7, #35]	@ 0x23
 8002106:	e074      	b.n	80021f2 <UART_SetConfig+0x1ba>
 8002108:	2310      	movs	r3, #16
 800210a:	f887 3023 	strb.w	r3, [r7, #35]	@ 0x23
 800210e:	e070      	b.n	80021f2 <UART_SetConfig+0x1ba>
 8002110:	68fb      	ldr	r3, [r7, #12]
 8002112:	681b      	ldr	r3, [r3, #0]
 8002114:	4a8c      	ldr	r2, [pc, #560]	@ (8002348 <UART_SetConfig+0x310>)
 8002116:	4293      	cmp	r3, r2
 8002118:	d138      	bne.n	800218c <UART_SetConfig+0x154>
 800211a:	4b8a      	ldr	r3, [pc, #552]	@ (8002344 <UART_SetConfig+0x30c>)
 800211c:	f8d3 3088 	ldr.w	r3, [r3, #136]	@ 0x88
 8002120:	f003 030c 	and.w	r3, r3, #12
 8002124:	2b0c      	cmp	r3, #12
 8002126:	d82d      	bhi.n	8002184 <UART_SetConfig+0x14c>
 8002128:	a201      	add	r2, pc, #4	@ (adr r2, 8002130 <UART_SetConfig+0xf8>)
 800212a:	f852 f023 	ldr.w	pc, [r2, r3, lsl #2]
 800212e:	bf00      	nop
 8002130:	08002165 	.word	0x08002165
 8002134:	08002185 	.word	0x08002185
 8002138:	08002185 	.word	0x08002185
 800213c:	08002185 	.word	0x08002185
 8002140:	08002175 	.word	0x08002175
 8002144:	08002185 	.word	0x08002185
 8002148:	08002185 	.word	0x08002185
 800214c:	08002185 	.word	0x08002185
 8002150:	0800216d 	.word	0x0800216d
 8002154:	08002185 	.word	0x08002185
 8002158:	08002185 	.word	0x08002185
 800215c:	08002185 	.word	0x08002185
 8002160:	0800217d 	.word	0x0800217d
 8002164:	2300      	movs	r3, #0
 8002166:	f887 3023 	strb.w	r3, [r7, #35]	@ 0x23
 800216a:	e042      	b.n	80021f2 <UART_SetConfig+0x1ba>
 800216c:	2302      	movs	r3, #2
 800216e:	f887 3023 	strb.w	r3, [r7, #35]	@ 0x23
 8002172:	e03e      	b.n	80021f2 <UART_SetConfig+0x1ba>
 8002174:	2304      	movs	r3, #4
 8002176:	f887 3023 	strb.w	r3, [r7, #35]	@ 0x23
 800217a:	e03a      	b.n	80021f2 <UART_SetConfig+0x1ba>
 800217c:	2308      	movs	r3, #8
 800217e:	f887 3023 	strb.w	r3, [r7, #35]	@ 0x23
 8002182:	e036      	b.n	80021f2 <UART_SetConfig+0x1ba>
 8002184:	2310      	movs	r3, #16
 8002186:	f887 3023 	strb.w	r3, [r7, #35]	@ 0x23
 800218a:	e032      	b.n	80021f2 <UART_SetConfig+0x1ba>
 800218c:	68fb      	ldr	r3, [r7, #12]
 800218e:	681b      	ldr	r3, [r3, #0]
 8002190:	4a6a      	ldr	r2, [pc, #424]	@ (800233c <UART_SetConfig+0x304>)
 8002192:	4293      	cmp	r3, r2
 8002194:	d12a      	bne.n	80021ec <UART_SetConfig+0x1b4>
 8002196:	4b6b      	ldr	r3, [pc, #428]	@ (8002344 <UART_SetConfig+0x30c>)
 8002198:	f8d3 3088 	ldr.w	r3, [r3, #136]	@ 0x88
 800219c:	f403 6340 	and.w	r3, r3, #3072	@ 0xc00
 80021a0:	f5b3 6f40 	cmp.w	r3, #3072	@ 0xc00
 80021a4:	d01a      	beq.n	80021dc <UART_SetConfig+0x1a4>
 80021a6:	f5b3 6f40 	cmp.w	r3, #3072	@ 0xc00
 80021aa:	d81b      	bhi.n	80021e4 <UART_SetConfig+0x1ac>
 80021ac:	f5b3 6f00 	cmp.w	r3, #2048	@ 0x800
 80021b0:	d00c      	beq.n	80021cc <UART_SetConfig+0x194>
 80021b2:	f5b3 6f00 	cmp.w	r3, #2048	@ 0x800
 80021b6:	d815      	bhi.n	80021e4 <UART_SetConfig+0x1ac>
 80021b8:	2b00      	cmp	r3, #0
 80021ba:	d003      	beq.n	80021c4 <UART_SetConfig+0x18c>
 80021bc:	f5b3 6f80 	cmp.w	r3, #1024	@ 0x400
 80021c0:	d008      	beq.n	80021d4 <UART_SetConfig+0x19c>
 80021c2:	e00f      	b.n	80021e4 <UART_SetConfig+0x1ac>
 80021c4:	2300      	movs	r3, #0
 80021c6:	f887 3023 	strb.w	r3, [r7, #35]	@ 0x23
 80021ca:	e012      	b.n	80021f2 <UART_SetConfig+0x1ba>
 80021cc:	2302      	movs	r3, #2
 80021ce:	f887 3023 	strb.w	r3, [r7, #35]	@ 0x23
 80021d2:	e00e      	b.n	80021f2 <UART_SetConfig+0x1ba>
 80021d4:	2304      	movs	r3, #4
 80021d6:	f887 3023 	strb.w	r3, [r7, #35]	@ 0x23
 80021da:	e00a      	b.n	80021f2 <UART_SetConfig+0x1ba>
 80021dc:	2308      	movs	r3, #8
 80021de:	f887 3023 	strb.w	r3, [r7, #35]	@ 0x23
 80021e2:	e006      	b.n	80021f2 <UART_SetConfig+0x1ba>
 80021e4:	2310      	movs	r3, #16
 80021e6:	f887 3023 	strb.w	r3, [r7, #35]	@ 0x23
 80021ea:	e002      	b.n	80021f2 <UART_SetConfig+0x1ba>
 80021ec:	2310      	movs	r3, #16
 80021ee:	f887 3023 	strb.w	r3, [r7, #35]	@ 0x23

  /* Check LPUART instance */
  if (UART_INSTANCE_LOWPOWER(huart))
 80021f2:	68fb      	ldr	r3, [r7, #12]
 80021f4:	681b      	ldr	r3, [r3, #0]
 80021f6:	4a51      	ldr	r2, [pc, #324]	@ (800233c <UART_SetConfig+0x304>)
 80021f8:	4293      	cmp	r3, r2
 80021fa:	d17a      	bne.n	80022f2 <UART_SetConfig+0x2ba>
  {
    /* Retrieve frequency clock */
    switch (clocksource)
 80021fc:	f897 3023 	ldrb.w	r3, [r7, #35]	@ 0x23
 8002200:	2b08      	cmp	r3, #8
 8002202:	d824      	bhi.n	800224e <UART_SetConfig+0x216>
 8002204:	a201      	add	r2, pc, #4	@ (adr r2, 800220c <UART_SetConfig+0x1d4>)
 8002206:	f852 f023 	ldr.w	pc, [r2, r3, lsl #2]
 800220a:	bf00      	nop
 800220c:	08002231 	.word	0x08002231
 8002210:	0800224f 	.word	0x0800224f
 8002214:	08002239 	.word	0x08002239
 8002218:	0800224f 	.word	0x0800224f
 800221c:	0800223f 	.word	0x0800223f
 8002220:	0800224f 	.word	0x0800224f
 8002224:	0800224f 	.word	0x0800224f
 8002228:	0800224f 	.word	0x0800224f
 800222c:	08002247 	.word	0x08002247
    {
      case UART_CLOCKSOURCE_PCLK1:
        pclk = HAL_RCC_GetPCLK1Freq();
 8002230:	f7ff faac 	bl	800178c <HAL_RCC_GetPCLK1Freq>
 8002234:	61f8      	str	r0, [r7, #28]
        break;
 8002236:	e010      	b.n	800225a <UART_SetConfig+0x222>
      case UART_CLOCKSOURCE_HSI:
        pclk = (uint32_t) HSI_VALUE;
 8002238:	4b44      	ldr	r3, [pc, #272]	@ (800234c <UART_SetConfig+0x314>)
 800223a:	61fb      	str	r3, [r7, #28]
        break;
 800223c:	e00d      	b.n	800225a <UART_SetConfig+0x222>
      case UART_CLOCKSOURCE_SYSCLK:
        pclk = HAL_RCC_GetSysClockFreq();
 800223e:	f7ff fa0d 	bl	800165c <HAL_RCC_GetSysClockFreq>
 8002242:	61f8      	str	r0, [r7, #28]
        break;
 8002244:	e009      	b.n	800225a <UART_SetConfig+0x222>
      case UART_CLOCKSOURCE_LSE:
        pclk = (uint32_t) LSE_VALUE;
 8002246:	f44f 4300 	mov.w	r3, #32768	@ 0x8000
 800224a:	61fb      	str	r3, [r7, #28]
        break;
 800224c:	e005      	b.n	800225a <UART_SetConfig+0x222>
      default:
        pclk = 0U;
 800224e:	2300      	movs	r3, #0
 8002250:	61fb      	str	r3, [r7, #28]
        ret = HAL_ERROR;
 8002252:	2301      	movs	r3, #1
 8002254:	f887 3022 	strb.w	r3, [r7, #34]	@ 0x22
        break;
 8002258:	bf00      	nop
    }

    /* If proper clock source reported */
    if (pclk != 0U)
 800225a:	69fb      	ldr	r3, [r7, #28]
 800225c:	2b00      	cmp	r3, #0
 800225e:	f000 8107 	beq.w	8002470 <UART_SetConfig+0x438>
      } /* if ( (lpuart_ker_ck_pres < (3 * huart->Init.BaudRate) ) ||
                (lpuart_ker_ck_pres > (4096 * huart->Init.BaudRate) )) */
#else
      /* No Prescaler applicable */
      /* Ensure that Frequency clock is in the range [3 * baudrate, 4096 * baudrate] */
      if ((pclk < (3U * huart->Init.BaudRate)) ||
 8002262:	68fb      	ldr	r3, [r7, #12]
 8002264:	685a      	ldr	r2, [r3, #4]
 8002266:	4613      	mov	r3, r2
 8002268:	005b      	lsls	r3, r3, #1
 800226a:	4413      	add	r3, r2
 800226c:	69fa      	ldr	r2, [r7, #28]
 800226e:	429a      	cmp	r2, r3
 8002270:	d305      	bcc.n	800227e <UART_SetConfig+0x246>
          (pclk > (4096U * huart->Init.BaudRate)))
 8002272:	68fb      	ldr	r3, [r7, #12]
 8002274:	685b      	ldr	r3, [r3, #4]
 8002276:	031b      	lsls	r3, r3, #12
      if ((pclk < (3U * huart->Init.BaudRate)) ||
 8002278:	69fa      	ldr	r2, [r7, #28]
 800227a:	429a      	cmp	r2, r3
 800227c:	d903      	bls.n	8002286 <UART_SetConfig+0x24e>
      {
        ret = HAL_ERROR;
 800227e:	2301      	movs	r3, #1
 8002280:	f887 3022 	strb.w	r3, [r7, #34]	@ 0x22
 8002284:	e0f4      	b.n	8002470 <UART_SetConfig+0x438>
      }
      else
      {
        usartdiv = (uint32_t)(UART_DIV_LPUART(pclk, huart->Init.BaudRate));
 8002286:	69fb      	ldr	r3, [r7, #28]
 8002288:	2200      	movs	r2, #0
 800228a:	461c      	mov	r4, r3
 800228c:	4615      	mov	r5, r2
 800228e:	f04f 0200 	mov.w	r2, #0
 8002292:	f04f 0300 	mov.w	r3, #0
 8002296:	022b      	lsls	r3, r5, #8
 8002298:	ea43 6314 	orr.w	r3, r3, r4, lsr #24
 800229c:	0222      	lsls	r2, r4, #8
 800229e:	68f9      	ldr	r1, [r7, #12]
 80022a0:	6849      	ldr	r1, [r1, #4]
 80022a2:	0849      	lsrs	r1, r1, #1
 80022a4:	2000      	movs	r0, #0
 80022a6:	4688      	mov	r8, r1
 80022a8:	4681      	mov	r9, r0
 80022aa:	eb12 0a08 	adds.w	sl, r2, r8
 80022ae:	eb43 0b09 	adc.w	fp, r3, r9
 80022b2:	68fb      	ldr	r3, [r7, #12]
 80022b4:	685b      	ldr	r3, [r3, #4]
 80022b6:	2200      	movs	r2, #0
 80022b8:	603b      	str	r3, [r7, #0]
 80022ba:	607a      	str	r2, [r7, #4]
 80022bc:	e9d7 2300 	ldrd	r2, r3, [r7]
 80022c0:	4650      	mov	r0, sl
 80022c2:	4659      	mov	r1, fp
 80022c4:	f7fd ffd4 	bl	8000270 <__aeabi_uldivmod>
 80022c8:	4602      	mov	r2, r0
 80022ca:	460b      	mov	r3, r1
 80022cc:	4613      	mov	r3, r2
 80022ce:	61bb      	str	r3, [r7, #24]
        if ((usartdiv >= LPUART_BRR_MIN) && (usartdiv <= LPUART_BRR_MAX))
 80022d0:	69bb      	ldr	r3, [r7, #24]
 80022d2:	f5b3 7f40 	cmp.w	r3, #768	@ 0x300
 80022d6:	d308      	bcc.n	80022ea <UART_SetConfig+0x2b2>
 80022d8:	69bb      	ldr	r3, [r7, #24]
 80022da:	f5b3 1f80 	cmp.w	r3, #1048576	@ 0x100000
 80022de:	d204      	bcs.n	80022ea <UART_SetConfig+0x2b2>
        {
          huart->Instance->BRR = usartdiv;
 80022e0:	68fb      	ldr	r3, [r7, #12]
 80022e2:	681b      	ldr	r3, [r3, #0]
 80022e4:	69ba      	ldr	r2, [r7, #24]
 80022e6:	60da      	str	r2, [r3, #12]
 80022e8:	e0c2      	b.n	8002470 <UART_SetConfig+0x438>
        }
        else
        {
          ret = HAL_ERROR;
 80022ea:	2301      	movs	r3, #1
 80022ec:	f887 3022 	strb.w	r3, [r7, #34]	@ 0x22
 80022f0:	e0be      	b.n	8002470 <UART_SetConfig+0x438>
      } /* if ( (pclk < (3 * huart->Init.BaudRate) ) || (pclk > (4096 * huart->Init.BaudRate) )) */
#endif /* USART_PRESC_PRESCALER */
    } /* if (pclk != 0) */
  }
  /* Check UART Over Sampling to set Baud Rate Register */
  else if (huart->Init.OverSampling == UART_OVERSAMPLING_8)
 80022f2:	68fb      	ldr	r3, [r7, #12]
 80022f4:	69db      	ldr	r3, [r3, #28]
 80022f6:	f5b3 4f00 	cmp.w	r3, #32768	@ 0x8000
 80022fa:	d16a      	bne.n	80023d2 <UART_SetConfig+0x39a>
  {
    switch (clocksource)
 80022fc:	f897 3023 	ldrb.w	r3, [r7, #35]	@ 0x23
 8002300:	2b08      	cmp	r3, #8
 8002302:	d834      	bhi.n	800236e <UART_SetConfig+0x336>
 8002304:	a201      	add	r2, pc, #4	@ (adr r2, 800230c <UART_SetConfig+0x2d4>)
 8002306:	f852 f023 	ldr.w	pc, [r2, r3, lsl #2]
 800230a:	bf00      	nop
 800230c:	08002331 	.word	0x08002331
 8002310:	08002351 	.word	0x08002351
 8002314:	08002359 	.word	0x08002359
 8002318:	0800236f 	.word	0x0800236f
 800231c:	0800235f 	.word	0x0800235f
 8002320:	0800236f 	.word	0x0800236f
 8002324:	0800236f 	.word	0x0800236f
 8002328:	0800236f 	.word	0x0800236f
 800232c:	08002367 	.word	0x08002367
    {
      case UART_CLOCKSOURCE_PCLK1:
        pclk = HAL_RCC_GetPCLK1Freq();
 8002330:	f7ff fa2c 	bl	800178c <HAL_RCC_GetPCLK1Freq>
 8002334:	61f8      	str	r0, [r7, #28]
        break;
 8002336:	e020      	b.n	800237a <UART_SetConfig+0x342>
 8002338:	efff69f3 	.word	0xefff69f3
 800233c:	40008000 	.word	0x40008000
 8002340:	40013800 	.word	0x40013800
 8002344:	40021000 	.word	0x40021000
 8002348:	40004400 	.word	0x40004400
 800234c:	00f42400 	.word	0x00f42400
      case UART_CLOCKSOURCE_PCLK2:
        pclk = HAL_RCC_GetPCLK2Freq();
 8002350:	f7ff fa32 	bl	80017b8 <HAL_RCC_GetPCLK2Freq>
 8002354:	61f8      	str	r0, [r7, #28]
        break;
 8002356:	e010      	b.n	800237a <UART_SetConfig+0x342>
      case UART_CLOCKSOURCE_HSI:
        pclk = (uint32_t) HSI_VALUE;
 8002358:	4b4c      	ldr	r3, [pc, #304]	@ (800248c <UART_SetConfig+0x454>)
 800235a:	61fb      	str	r3, [r7, #28]
        break;
 800235c:	e00d      	b.n	800237a <UART_SetConfig+0x342>
      case UART_CLOCKSOURCE_SYSCLK:
        pclk = HAL_RCC_GetSysClockFreq();
 800235e:	f7ff f97d 	bl	800165c <HAL_RCC_GetSysClockFreq>
 8002362:	61f8      	str	r0, [r7, #28]
        break;
 8002364:	e009      	b.n	800237a <UART_SetConfig+0x342>
      case UART_CLOCKSOURCE_LSE:
        pclk = (uint32_t) LSE_VALUE;
 8002366:	f44f 4300 	mov.w	r3, #32768	@ 0x8000
 800236a:	61fb      	str	r3, [r7, #28]
        break;
 800236c:	e005      	b.n	800237a <UART_SetConfig+0x342>
      default:
        pclk = 0U;
 800236e:	2300      	movs	r3, #0
 8002370:	61fb      	str	r3, [r7, #28]
        ret = HAL_ERROR;
 8002372:	2301      	movs	r3, #1
 8002374:	f887 3022 	strb.w	r3, [r7, #34]	@ 0x22
        break;
 8002378:	bf00      	nop
    }

    /* USARTDIV must be greater than or equal to 0d16 */
    if (pclk != 0U)
 800237a:	69fb      	ldr	r3, [r7, #28]
 800237c:	2b00      	cmp	r3, #0
 800237e:	d077      	beq.n	8002470 <UART_SetConfig+0x438>
    {
#if defined(USART_PRESC_PRESCALER)
      usartdiv = (uint32_t)(UART_DIV_SAMPLING8(pclk, huart->Init.BaudRate, huart->Init.ClockPrescaler));
#else
      usartdiv = (uint32_t)(UART_DIV_SAMPLING8(pclk, huart->Init.BaudRate));
 8002380:	69fb      	ldr	r3, [r7, #28]
 8002382:	005a      	lsls	r2, r3, #1
 8002384:	68fb      	ldr	r3, [r7, #12]
 8002386:	685b      	ldr	r3, [r3, #4]
 8002388:	085b      	lsrs	r3, r3, #1
 800238a:	441a      	add	r2, r3
 800238c:	68fb      	ldr	r3, [r7, #12]
 800238e:	685b      	ldr	r3, [r3, #4]
 8002390:	fbb2 f3f3 	udiv	r3, r2, r3
 8002394:	61bb      	str	r3, [r7, #24]
#endif /* USART_PRESC_PRESCALER */
      if ((usartdiv >= UART_BRR_MIN) && (usartdiv <= UART_BRR_MAX))
 8002396:	69bb      	ldr	r3, [r7, #24]
 8002398:	2b0f      	cmp	r3, #15
 800239a:	d916      	bls.n	80023ca <UART_SetConfig+0x392>
 800239c:	69bb      	ldr	r3, [r7, #24]
 800239e:	f5b3 3f80 	cmp.w	r3, #65536	@ 0x10000
 80023a2:	d212      	bcs.n	80023ca <UART_SetConfig+0x392>
      {
        brrtemp = (uint16_t)(usartdiv & 0xFFF0U);
 80023a4:	69bb      	ldr	r3, [r7, #24]
 80023a6:	b29b      	uxth	r3, r3
 80023a8:	f023 030f 	bic.w	r3, r3, #15
 80023ac:	82fb      	strh	r3, [r7, #22]
        brrtemp |= (uint16_t)((usartdiv & (uint16_t)0x000FU) >> 1U);
 80023ae:	69bb      	ldr	r3, [r7, #24]
 80023b0:	085b      	lsrs	r3, r3, #1
 80023b2:	b29b      	uxth	r3, r3
 80023b4:	f003 0307 	and.w	r3, r3, #7
 80023b8:	b29a      	uxth	r2, r3
 80023ba:	8afb      	ldrh	r3, [r7, #22]
 80023bc:	4313      	orrs	r3, r2
 80023be:	82fb      	strh	r3, [r7, #22]
        huart->Instance->BRR = brrtemp;
 80023c0:	68fb      	ldr	r3, [r7, #12]
 80023c2:	681b      	ldr	r3, [r3, #0]
 80023c4:	8afa      	ldrh	r2, [r7, #22]
 80023c6:	60da      	str	r2, [r3, #12]
 80023c8:	e052      	b.n	8002470 <UART_SetConfig+0x438>
      }
      else
      {
        ret = HAL_ERROR;
 80023ca:	2301      	movs	r3, #1
 80023cc:	f887 3022 	strb.w	r3, [r7, #34]	@ 0x22
 80023d0:	e04e      	b.n	8002470 <UART_SetConfig+0x438>
      }
    }
  }
  else
  {
    switch (clocksource)
 80023d2:	f897 3023 	ldrb.w	r3, [r7, #35]	@ 0x23
 80023d6:	2b08      	cmp	r3, #8
 80023d8:	d827      	bhi.n	800242a <UART_SetConfig+0x3f2>
 80023da:	a201      	add	r2, pc, #4	@ (adr r2, 80023e0 <UART_SetConfig+0x3a8>)
 80023dc:	f852 f023 	ldr.w	pc, [r2, r3, lsl #2]
 80023e0:	08002405 	.word	0x08002405
 80023e4:	0800240d 	.word	0x0800240d
 80023e8:	08002415 	.word	0x08002415
 80023ec:	0800242b 	.word	0x0800242b
 80023f0:	0800241b 	.word	0x0800241b
 80023f4:	0800242b 	.word	0x0800242b
 80023f8:	0800242b 	.word	0x0800242b
 80023fc:	0800242b 	.word	0x0800242b
 8002400:	08002423 	.word	0x08002423
    {
      case UART_CLOCKSOURCE_PCLK1:
        pclk = HAL_RCC_GetPCLK1Freq();
 8002404:	f7ff f9c2 	bl	800178c <HAL_RCC_GetPCLK1Freq>
 8002408:	61f8      	str	r0, [r7, #28]
        break;
 800240a:	e014      	b.n	8002436 <UART_SetConfig+0x3fe>
      case UART_CLOCKSOURCE_PCLK2:
        pclk = HAL_RCC_GetPCLK2Freq();
 800240c:	f7ff f9d4 	bl	80017b8 <HAL_RCC_GetPCLK2Freq>
 8002410:	61f8      	str	r0, [r7, #28]
        break;
 8002412:	e010      	b.n	8002436 <UART_SetConfig+0x3fe>
      case UART_CLOCKSOURCE_HSI:
        pclk = (uint32_t) HSI_VALUE;
 8002414:	4b1d      	ldr	r3, [pc, #116]	@ (800248c <UART_SetConfig+0x454>)
 8002416:	61fb      	str	r3, [r7, #28]
        break;
 8002418:	e00d      	b.n	8002436 <UART_SetConfig+0x3fe>
      case UART_CLOCKSOURCE_SYSCLK:
        pclk = HAL_RCC_GetSysClockFreq();
 800241a:	f7ff f91f 	bl	800165c <HAL_RCC_GetSysClockFreq>
 800241e:	61f8      	str	r0, [r7, #28]
        break;
 8002420:	e009      	b.n	8002436 <UART_SetConfig+0x3fe>
      case UART_CLOCKSOURCE_LSE:
        pclk = (uint32_t) LSE_VALUE;
 8002422:	f44f 4300 	mov.w	r3, #32768	@ 0x8000
 8002426:	61fb      	str	r3, [r7, #28]
        break;
 8002428:	e005      	b.n	8002436 <UART_SetConfig+0x3fe>
      default:
        pclk = 0U;
 800242a:	2300      	movs	r3, #0
 800242c:	61fb      	str	r3, [r7, #28]
        ret = HAL_ERROR;
 800242e:	2301      	movs	r3, #1
 8002430:	f887 3022 	strb.w	r3, [r7, #34]	@ 0x22
        break;
 8002434:	bf00      	nop
    }

    if (pclk != 0U)
 8002436:	69fb      	ldr	r3, [r7, #28]
 8002438:	2b00      	cmp	r3, #0
 800243a:	d019      	beq.n	8002470 <UART_SetConfig+0x438>
    {
      /* USARTDIV must be greater than or equal to 0d16 */
#if defined(USART_PRESC_PRESCALER)
      usartdiv = (uint32_t)(UART_DIV_SAMPLING16(pclk, huart->Init.BaudRate, huart->Init.ClockPrescaler));
#else
      usartdiv = (uint32_t)(UART_DIV_SAMPLING16(pclk, huart->Init.BaudRate));
 800243c:	68fb      	ldr	r3, [r7, #12]
 800243e:	685b      	ldr	r3, [r3, #4]
 8002440:	085a      	lsrs	r2, r3, #1
 8002442:	69fb      	ldr	r3, [r7, #28]
 8002444:	441a      	add	r2, r3
 8002446:	68fb      	ldr	r3, [r7, #12]
 8002448:	685b      	ldr	r3, [r3, #4]
 800244a:	fbb2 f3f3 	udiv	r3, r2, r3
 800244e:	61bb      	str	r3, [r7, #24]
#endif /* USART_PRESC_PRESCALER */
      if ((usartdiv >= UART_BRR_MIN) && (usartdiv <= UART_BRR_MAX))
 8002450:	69bb      	ldr	r3, [r7, #24]
 8002452:	2b0f      	cmp	r3, #15
 8002454:	d909      	bls.n	800246a <UART_SetConfig+0x432>
 8002456:	69bb      	ldr	r3, [r7, #24]
 8002458:	f5b3 3f80 	cmp.w	r3, #65536	@ 0x10000
 800245c:	d205      	bcs.n	800246a <UART_SetConfig+0x432>
      {
        huart->Instance->BRR = (uint16_t)usartdiv;
 800245e:	69bb      	ldr	r3, [r7, #24]
 8002460:	b29a      	uxth	r2, r3
 8002462:	68fb      	ldr	r3, [r7, #12]
 8002464:	681b      	ldr	r3, [r3, #0]
 8002466:	60da      	str	r2, [r3, #12]
 8002468:	e002      	b.n	8002470 <UART_SetConfig+0x438>
      }
      else
      {
        ret = HAL_ERROR;
 800246a:	2301      	movs	r3, #1
 800246c:	f887 3022 	strb.w	r3, [r7, #34]	@ 0x22
  huart->NbTxDataToProcess = 1;
  huart->NbRxDataToProcess = 1;
#endif /* USART_CR1_FIFOEN */

  /* Clear ISR function pointers */
  huart->RxISR = NULL;
 8002470:	68fb      	ldr	r3, [r7, #12]
 8002472:	2200      	movs	r2, #0
 8002474:	669a      	str	r2, [r3, #104]	@ 0x68
  huart->TxISR = NULL;
 8002476:	68fb      	ldr	r3, [r7, #12]
 8002478:	2200      	movs	r2, #0
 800247a:	66da      	str	r2, [r3, #108]	@ 0x6c

  return ret;
 800247c:	f897 3022 	ldrb.w	r3, [r7, #34]	@ 0x22
}
 8002480:	4618      	mov	r0, r3
 8002482:	3728      	adds	r7, #40	@ 0x28
 8002484:	46bd      	mov	sp, r7
 8002486:	e8bd 8fb0 	ldmia.w	sp!, {r4, r5, r7, r8, r9, sl, fp, pc}
 800248a:	bf00      	nop
 800248c:	00f42400 	.word	0x00f42400

08002490 <UART_AdvFeatureConfig>:
  * @brief Configure the UART peripheral advanced features.
  * @param huart UART handle.
  * @retval None
  */
void UART_AdvFeatureConfig(UART_HandleTypeDef *huart)
{
 8002490:	b480      	push	{r7}
 8002492:	b083      	sub	sp, #12
 8002494:	af00      	add	r7, sp, #0
 8002496:	6078      	str	r0, [r7, #4]
  /* Check whether the set of advanced features to configure is properly set */
  assert_param(IS_UART_ADVFEATURE_INIT(huart->AdvancedInit.AdvFeatureInit));

  /* if required, configure RX/TX pins swap */
  if (HAL_IS_BIT_SET(huart->AdvancedInit.AdvFeatureInit, UART_ADVFEATURE_SWAP_INIT))
 8002498:	687b      	ldr	r3, [r7, #4]
 800249a:	6a5b      	ldr	r3, [r3, #36]	@ 0x24
 800249c:	f003 0308 	and.w	r3, r3, #8
 80024a0:	2b00      	cmp	r3, #0
 80024a2:	d00a      	beq.n	80024ba <UART_AdvFeatureConfig+0x2a>
  {
    assert_param(IS_UART_ADVFEATURE_SWAP(huart->AdvancedInit.Swap));
    MODIFY_REG(huart->Instance->CR2, USART_CR2_SWAP, huart->AdvancedInit.Swap);
 80024a4:	687b      	ldr	r3, [r7, #4]
 80024a6:	681b      	ldr	r3, [r3, #0]
 80024a8:	685b      	ldr	r3, [r3, #4]
 80024aa:	f423 4100 	bic.w	r1, r3, #32768	@ 0x8000
 80024ae:	687b      	ldr	r3, [r7, #4]
 80024b0:	6b5a      	ldr	r2, [r3, #52]	@ 0x34
 80024b2:	687b      	ldr	r3, [r7, #4]
 80024b4:	681b      	ldr	r3, [r3, #0]
 80024b6:	430a      	orrs	r2, r1
 80024b8:	605a      	str	r2, [r3, #4]
  }

  /* if required, configure TX pin active level inversion */
  if (HAL_IS_BIT_SET(huart->AdvancedInit.AdvFeatureInit, UART_ADVFEATURE_TXINVERT_INIT))
 80024ba:	687b      	ldr	r3, [r7, #4]
 80024bc:	6a5b      	ldr	r3, [r3, #36]	@ 0x24
 80024be:	f003 0301 	and.w	r3, r3, #1
 80024c2:	2b00      	cmp	r3, #0
 80024c4:	d00a      	beq.n	80024dc <UART_AdvFeatureConfig+0x4c>
  {
    assert_param(IS_UART_ADVFEATURE_TXINV(huart->AdvancedInit.TxPinLevelInvert));
    MODIFY_REG(huart->Instance->CR2, USART_CR2_TXINV, huart->AdvancedInit.TxPinLevelInvert);
 80024c6:	687b      	ldr	r3, [r7, #4]
 80024c8:	681b      	ldr	r3, [r3, #0]
 80024ca:	685b      	ldr	r3, [r3, #4]
 80024cc:	f423 3100 	bic.w	r1, r3, #131072	@ 0x20000
 80024d0:	687b      	ldr	r3, [r7, #4]
 80024d2:	6a9a      	ldr	r2, [r3, #40]	@ 0x28
 80024d4:	687b      	ldr	r3, [r7, #4]
 80024d6:	681b      	ldr	r3, [r3, #0]
 80024d8:	430a      	orrs	r2, r1
 80024da:	605a      	str	r2, [r3, #4]
  }

  /* if required, configure RX pin active level inversion */
  if (HAL_IS_BIT_SET(huart->AdvancedInit.AdvFeatureInit, UART_ADVFEATURE_RXINVERT_INIT))
 80024dc:	687b      	ldr	r3, [r7, #4]
 80024de:	6a5b      	ldr	r3, [r3, #36]	@ 0x24
 80024e0:	f003 0302 	and.w	r3, r3, #2
 80024e4:	2b00      	cmp	r3, #0
 80024e6:	d00a      	beq.n	80024fe <UART_AdvFeatureConfig+0x6e>
  {
    assert_param(IS_UART_ADVFEATURE_RXINV(huart->AdvancedInit.RxPinLevelInvert));
    MODIFY_REG(huart->Instance->CR2, USART_CR2_RXINV, huart->AdvancedInit.RxPinLevelInvert);
 80024e8:	687b      	ldr	r3, [r7, #4]
 80024ea:	681b      	ldr	r3, [r3, #0]
 80024ec:	685b      	ldr	r3, [r3, #4]
 80024ee:	f423 3180 	bic.w	r1, r3, #65536	@ 0x10000
 80024f2:	687b      	ldr	r3, [r7, #4]
 80024f4:	6ada      	ldr	r2, [r3, #44]	@ 0x2c
 80024f6:	687b      	ldr	r3, [r7, #4]
 80024f8:	681b      	ldr	r3, [r3, #0]
 80024fa:	430a      	orrs	r2, r1
 80024fc:	605a      	str	r2, [r3, #4]
  }

  /* if required, configure data inversion */
  if (HAL_IS_BIT_SET(huart->AdvancedInit.AdvFeatureInit, UART_ADVFEATURE_DATAINVERT_INIT))
 80024fe:	687b      	ldr	r3, [r7, #4]
 8002500:	6a5b      	ldr	r3, [r3, #36]	@ 0x24
 8002502:	f003 0304 	and.w	r3, r3, #4
 8002506:	2b00      	cmp	r3, #0
 8002508:	d00a      	beq.n	8002520 <UART_AdvFeatureConfig+0x90>
  {
    assert_param(IS_UART_ADVFEATURE_DATAINV(huart->AdvancedInit.DataInvert));
    MODIFY_REG(huart->Instance->CR2, USART_CR2_DATAINV, huart->AdvancedInit.DataInvert);
 800250a:	687b      	ldr	r3, [r7, #4]
 800250c:	681b      	ldr	r3, [r3, #0]
 800250e:	685b      	ldr	r3, [r3, #4]
 8002510:	f423 2180 	bic.w	r1, r3, #262144	@ 0x40000
 8002514:	687b      	ldr	r3, [r7, #4]
 8002516:	6b1a      	ldr	r2, [r3, #48]	@ 0x30
 8002518:	687b      	ldr	r3, [r7, #4]
 800251a:	681b      	ldr	r3, [r3, #0]
 800251c:	430a      	orrs	r2, r1
 800251e:	605a      	str	r2, [r3, #4]
  }

  /* if required, configure RX overrun detection disabling */
  if (HAL_IS_BIT_SET(huart->AdvancedInit.AdvFeatureInit, UART_ADVFEATURE_RXOVERRUNDISABLE_INIT))
 8002520:	687b      	ldr	r3, [r7, #4]
 8002522:	6a5b      	ldr	r3, [r3, #36]	@ 0x24
 8002524:	f003 0310 	and.w	r3, r3, #16
 8002528:	2b00      	cmp	r3, #0
 800252a:	d00a      	beq.n	8002542 <UART_AdvFeatureConfig+0xb2>
  {
    assert_param(IS_UART_OVERRUN(huart->AdvancedInit.OverrunDisable));
    MODIFY_REG(huart->Instance->CR3, USART_CR3_OVRDIS, huart->AdvancedInit.OverrunDisable);
 800252c:	687b      	ldr	r3, [r7, #4]
 800252e:	681b      	ldr	r3, [r3, #0]
 8002530:	689b      	ldr	r3, [r3, #8]
 8002532:	f423 5180 	bic.w	r1, r3, #4096	@ 0x1000
 8002536:	687b      	ldr	r3, [r7, #4]
 8002538:	6b9a      	ldr	r2, [r3, #56]	@ 0x38
 800253a:	687b      	ldr	r3, [r7, #4]
 800253c:	681b      	ldr	r3, [r3, #0]
 800253e:	430a      	orrs	r2, r1
 8002540:	609a      	str	r2, [r3, #8]
  }

  /* if required, configure DMA disabling on reception error */
  if (HAL_IS_BIT_SET(huart->AdvancedInit.AdvFeatureInit, UART_ADVFEATURE_DMADISABLEONERROR_INIT))
 8002542:	687b      	ldr	r3, [r7, #4]
 8002544:	6a5b      	ldr	r3, [r3, #36]	@ 0x24
 8002546:	f003 0320 	and.w	r3, r3, #32
 800254a:	2b00      	cmp	r3, #0
 800254c:	d00a      	beq.n	8002564 <UART_AdvFeatureConfig+0xd4>
  {
    assert_param(IS_UART_ADVFEATURE_DMAONRXERROR(huart->AdvancedInit.DMADisableonRxError));
    MODIFY_REG(huart->Instance->CR3, USART_CR3_DDRE, huart->AdvancedInit.DMADisableonRxError);
 800254e:	687b      	ldr	r3, [r7, #4]
 8002550:	681b      	ldr	r3, [r3, #0]
 8002552:	689b      	ldr	r3, [r3, #8]
 8002554:	f423 5100 	bic.w	r1, r3, #8192	@ 0x2000
 8002558:	687b      	ldr	r3, [r7, #4]
 800255a:	6bda      	ldr	r2, [r3, #60]	@ 0x3c
 800255c:	687b      	ldr	r3, [r7, #4]
 800255e:	681b      	ldr	r3, [r3, #0]
 8002560:	430a      	orrs	r2, r1
 8002562:	609a      	str	r2, [r3, #8]
  }

  /* if required, configure auto Baud rate detection scheme */
  if (HAL_IS_BIT_SET(huart->AdvancedInit.AdvFeatureInit, UART_ADVFEATURE_AUTOBAUDRATE_INIT))
 8002564:	687b      	ldr	r3, [r7, #4]
 8002566:	6a5b      	ldr	r3, [r3, #36]	@ 0x24
 8002568:	f003 0340 	and.w	r3, r3, #64	@ 0x40
 800256c:	2b00      	cmp	r3, #0
 800256e:	d01a      	beq.n	80025a6 <UART_AdvFeatureConfig+0x116>
  {
    assert_param(IS_USART_AUTOBAUDRATE_DETECTION_INSTANCE(huart->Instance));
    assert_param(IS_UART_ADVFEATURE_AUTOBAUDRATE(huart->AdvancedInit.AutoBaudRateEnable));
    MODIFY_REG(huart->Instance->CR2, USART_CR2_ABREN, huart->AdvancedInit.AutoBaudRateEnable);
 8002570:	687b      	ldr	r3, [r7, #4]
 8002572:	681b      	ldr	r3, [r3, #0]
 8002574:	685b      	ldr	r3, [r3, #4]
 8002576:	f423 1180 	bic.w	r1, r3, #1048576	@ 0x100000
 800257a:	687b      	ldr	r3, [r7, #4]
 800257c:	6c1a      	ldr	r2, [r3, #64]	@ 0x40
 800257e:	687b      	ldr	r3, [r7, #4]
 8002580:	681b      	ldr	r3, [r3, #0]
 8002582:	430a      	orrs	r2, r1
 8002584:	605a      	str	r2, [r3, #4]
    /* set auto Baudrate detection parameters if detection is enabled */
    if (huart->AdvancedInit.AutoBaudRateEnable == UART_ADVFEATURE_AUTOBAUDRATE_ENABLE)
 8002586:	687b      	ldr	r3, [r7, #4]
 8002588:	6c1b      	ldr	r3, [r3, #64]	@ 0x40
 800258a:	f5b3 1f80 	cmp.w	r3, #1048576	@ 0x100000
 800258e:	d10a      	bne.n	80025a6 <UART_AdvFeatureConfig+0x116>
    {
      assert_param(IS_UART_ADVFEATURE_AUTOBAUDRATEMODE(huart->AdvancedInit.AutoBaudRateMode));
      MODIFY_REG(huart->Instance->CR2, USART_CR2_ABRMODE, huart->AdvancedInit.AutoBaudRateMode);
 8002590:	687b      	ldr	r3, [r7, #4]
 8002592:	681b      	ldr	r3, [r3, #0]
 8002594:	685b      	ldr	r3, [r3, #4]
 8002596:	f423 01c0 	bic.w	r1, r3, #6291456	@ 0x600000
 800259a:	687b      	ldr	r3, [r7, #4]
 800259c:	6c5a      	ldr	r2, [r3, #68]	@ 0x44
 800259e:	687b      	ldr	r3, [r7, #4]
 80025a0:	681b      	ldr	r3, [r3, #0]
 80025a2:	430a      	orrs	r2, r1
 80025a4:	605a      	str	r2, [r3, #4]
    }
  }

  /* if required, configure MSB first on communication line */
  if (HAL_IS_BIT_SET(huart->AdvancedInit.AdvFeatureInit, UART_ADVFEATURE_MSBFIRST_INIT))
 80025a6:	687b      	ldr	r3, [r7, #4]
 80025a8:	6a5b      	ldr	r3, [r3, #36]	@ 0x24
 80025aa:	f003 0380 	and.w	r3, r3, #128	@ 0x80
 80025ae:	2b00      	cmp	r3, #0
 80025b0:	d00a      	beq.n	80025c8 <UART_AdvFeatureConfig+0x138>
  {
    assert_param(IS_UART_ADVFEATURE_MSBFIRST(huart->AdvancedInit.MSBFirst));
    MODIFY_REG(huart->Instance->CR2, USART_CR2_MSBFIRST, huart->AdvancedInit.MSBFirst);
 80025b2:	687b      	ldr	r3, [r7, #4]
 80025b4:	681b      	ldr	r3, [r3, #0]
 80025b6:	685b      	ldr	r3, [r3, #4]
 80025b8:	f423 2100 	bic.w	r1, r3, #524288	@ 0x80000
 80025bc:	687b      	ldr	r3, [r7, #4]
 80025be:	6c9a      	ldr	r2, [r3, #72]	@ 0x48
 80025c0:	687b      	ldr	r3, [r7, #4]
 80025c2:	681b      	ldr	r3, [r3, #0]
 80025c4:	430a      	orrs	r2, r1
 80025c6:	605a      	str	r2, [r3, #4]
  }
}
 80025c8:	bf00      	nop
 80025ca:	370c      	adds	r7, #12
 80025cc:	46bd      	mov	sp, r7
 80025ce:	f85d 7b04 	ldr.w	r7, [sp], #4
 80025d2:	4770      	bx	lr

080025d4 <UART_CheckIdleState>:
  * @brief Check the UART Idle State.
  * @param huart UART handle.
  * @retval HAL status
  */
HAL_StatusTypeDef UART_CheckIdleState(UART_HandleTypeDef *huart)
{
 80025d4:	b580      	push	{r7, lr}
 80025d6:	b098      	sub	sp, #96	@ 0x60
 80025d8:	af02      	add	r7, sp, #8
 80025da:	6078      	str	r0, [r7, #4]
  uint32_t tickstart;

  /* Initialize the UART ErrorCode */
  huart->ErrorCode = HAL_UART_ERROR_NONE;
 80025dc:	687b      	ldr	r3, [r7, #4]
 80025de:	2200      	movs	r2, #0
 80025e0:	f8c3 2084 	str.w	r2, [r3, #132]	@ 0x84

  /* Init tickstart for timeout management */
  tickstart = HAL_GetTick();
 80025e4:	f7fe f842 	bl	800066c <HAL_GetTick>
 80025e8:	6578      	str	r0, [r7, #84]	@ 0x54

  /* Check if the Transmitter is enabled */
  if ((huart->Instance->CR1 & USART_CR1_TE) == USART_CR1_TE)
 80025ea:	687b      	ldr	r3, [r7, #4]
 80025ec:	681b      	ldr	r3, [r3, #0]
 80025ee:	681b      	ldr	r3, [r3, #0]
 80025f0:	f003 0308 	and.w	r3, r3, #8
 80025f4:	2b08      	cmp	r3, #8
 80025f6:	d12e      	bne.n	8002656 <UART_CheckIdleState+0x82>
  {
    /* Wait until TEACK flag is set */
    if (UART_WaitOnFlagUntilTimeout(huart, USART_ISR_TEACK, RESET, tickstart, HAL_UART_TIMEOUT_VALUE) != HAL_OK)
 80025f8:	f06f 437e 	mvn.w	r3, #4261412864	@ 0xfe000000
 80025fc:	9300      	str	r3, [sp, #0]
 80025fe:	6d7b      	ldr	r3, [r7, #84]	@ 0x54
 8002600:	2200      	movs	r2, #0
 8002602:	f44f 1100 	mov.w	r1, #2097152	@ 0x200000
 8002606:	6878      	ldr	r0, [r7, #4]
 8002608:	f000 f88c 	bl	8002724 <UART_WaitOnFlagUntilTimeout>
 800260c:	4603      	mov	r3, r0
 800260e:	2b00      	cmp	r3, #0
 8002610:	d021      	beq.n	8002656 <UART_CheckIdleState+0x82>
    {
      /* Disable TXE interrupt for the interrupt process */
#if defined(USART_CR1_FIFOEN)
      ATOMIC_CLEAR_BIT(huart->Instance->CR1, (USART_CR1_TXEIE_TXFNFIE));
#else
      ATOMIC_CLEAR_BIT(huart->Instance->CR1, (USART_CR1_TXEIE));
 8002612:	687b      	ldr	r3, [r7, #4]
 8002614:	681b      	ldr	r3, [r3, #0]
 8002616:	63bb      	str	r3, [r7, #56]	@ 0x38
 */
__STATIC_FORCEINLINE uint32_t __LDREXW(volatile uint32_t *addr)
{
    uint32_t result;

   __ASM volatile ("ldrex %0, %1" : "=r" (result) : "Q" (*addr) );
 8002618:	6bbb      	ldr	r3, [r7, #56]	@ 0x38
 800261a:	e853 3f00 	ldrex	r3, [r3]
 800261e:	637b      	str	r3, [r7, #52]	@ 0x34
   return(result);
 8002620:	6b7b      	ldr	r3, [r7, #52]	@ 0x34
 8002622:	f023 0380 	bic.w	r3, r3, #128	@ 0x80
 8002626:	653b      	str	r3, [r7, #80]	@ 0x50
 8002628:	687b      	ldr	r3, [r7, #4]
 800262a:	681b      	ldr	r3, [r3, #0]
 800262c:	461a      	mov	r2, r3
 800262e:	6d3b      	ldr	r3, [r7, #80]	@ 0x50
 8002630:	647b      	str	r3, [r7, #68]	@ 0x44
 8002632:	643a      	str	r2, [r7, #64]	@ 0x40
 */
__STATIC_FORCEINLINE uint32_t __STREXW(uint32_t value, volatile uint32_t *addr)
{
   uint32_t result;

   __ASM volatile ("strex %0, %2, %1" : "=&r" (result), "=Q" (*addr) : "r" (value) );
 8002634:	6c39      	ldr	r1, [r7, #64]	@ 0x40
 8002636:	6c7a      	ldr	r2, [r7, #68]	@ 0x44
 8002638:	e841 2300 	strex	r3, r2, [r1]
 800263c:	63fb      	str	r3, [r7, #60]	@ 0x3c
   return(result);
 800263e:	6bfb      	ldr	r3, [r7, #60]	@ 0x3c
 8002640:	2b00      	cmp	r3, #0
 8002642:	d1e6      	bne.n	8002612 <UART_CheckIdleState+0x3e>
#endif /* USART_CR1_FIFOEN */

      huart->gState = HAL_UART_STATE_READY;
 8002644:	687b      	ldr	r3, [r7, #4]
 8002646:	2220      	movs	r2, #32
 8002648:	67da      	str	r2, [r3, #124]	@ 0x7c

      __HAL_UNLOCK(huart);
 800264a:	687b      	ldr	r3, [r7, #4]
 800264c:	2200      	movs	r2, #0
 800264e:	f883 2078 	strb.w	r2, [r3, #120]	@ 0x78

      /* Timeout occurred */
      return HAL_TIMEOUT;
 8002652:	2303      	movs	r3, #3
 8002654:	e062      	b.n	800271c <UART_CheckIdleState+0x148>
    }
  }

  /* Check if the Receiver is enabled */
  if ((huart->Instance->CR1 & USART_CR1_RE) == USART_CR1_RE)
 8002656:	687b      	ldr	r3, [r7, #4]
 8002658:	681b      	ldr	r3, [r3, #0]
 800265a:	681b      	ldr	r3, [r3, #0]
 800265c:	f003 0304 	and.w	r3, r3, #4
 8002660:	2b04      	cmp	r3, #4
 8002662:	d149      	bne.n	80026f8 <UART_CheckIdleState+0x124>
  {
    /* Wait until REACK flag is set */
    if (UART_WaitOnFlagUntilTimeout(huart, USART_ISR_REACK, RESET, tickstart, HAL_UART_TIMEOUT_VALUE) != HAL_OK)
 8002664:	f06f 437e 	mvn.w	r3, #4261412864	@ 0xfe000000
 8002668:	9300      	str	r3, [sp, #0]
 800266a:	6d7b      	ldr	r3, [r7, #84]	@ 0x54
 800266c:	2200      	movs	r2, #0
 800266e:	f44f 0180 	mov.w	r1, #4194304	@ 0x400000
 8002672:	6878      	ldr	r0, [r7, #4]
 8002674:	f000 f856 	bl	8002724 <UART_WaitOnFlagUntilTimeout>
 8002678:	4603      	mov	r3, r0
 800267a:	2b00      	cmp	r3, #0
 800267c:	d03c      	beq.n	80026f8 <UART_CheckIdleState+0x124>
      /* Disable RXNE, PE and ERR (Frame error, noise error, overrun error)
      interrupts for the interrupt process */
#if defined(USART_CR1_FIFOEN)
      ATOMIC_CLEAR_BIT(huart->Instance->CR1, (USART_CR1_RXNEIE_RXFNEIE | USART_CR1_PEIE));
#else
      ATOMIC_CLEAR_BIT(huart->Instance->CR1, (USART_CR1_RXNEIE | USART_CR1_PEIE));
 800267e:	687b      	ldr	r3, [r7, #4]
 8002680:	681b      	ldr	r3, [r3, #0]
 8002682:	627b      	str	r3, [r7, #36]	@ 0x24
   __ASM volatile ("ldrex %0, %1" : "=r" (result) : "Q" (*addr) );
 8002684:	6a7b      	ldr	r3, [r7, #36]	@ 0x24
 8002686:	e853 3f00 	ldrex	r3, [r3]
 800268a:	623b      	str	r3, [r7, #32]
   return(result);
 800268c:	6a3b      	ldr	r3, [r7, #32]
 800268e:	f423 7390 	bic.w	r3, r3, #288	@ 0x120
 8002692:	64fb      	str	r3, [r7, #76]	@ 0x4c
 8002694:	687b      	ldr	r3, [r7, #4]
 8002696:	681b      	ldr	r3, [r3, #0]
 8002698:	461a      	mov	r2, r3
 800269a:	6cfb      	ldr	r3, [r7, #76]	@ 0x4c
 800269c:	633b      	str	r3, [r7, #48]	@ 0x30
 800269e:	62fa      	str	r2, [r7, #44]	@ 0x2c
   __ASM volatile ("strex %0, %2, %1" : "=&r" (result), "=Q" (*addr) : "r" (value) );
 80026a0:	6af9      	ldr	r1, [r7, #44]	@ 0x2c
 80026a2:	6b3a      	ldr	r2, [r7, #48]	@ 0x30
 80026a4:	e841 2300 	strex	r3, r2, [r1]
 80026a8:	62bb      	str	r3, [r7, #40]	@ 0x28
   return(result);
 80026aa:	6abb      	ldr	r3, [r7, #40]	@ 0x28
 80026ac:	2b00      	cmp	r3, #0
 80026ae:	d1e6      	bne.n	800267e <UART_CheckIdleState+0xaa>
#endif /* USART_CR1_FIFOEN */
      ATOMIC_CLEAR_BIT(huart->Instance->CR3, USART_CR3_EIE);
 80026b0:	687b      	ldr	r3, [r7, #4]
 80026b2:	681b      	ldr	r3, [r3, #0]
 80026b4:	3308      	adds	r3, #8
 80026b6:	613b      	str	r3, [r7, #16]
   __ASM volatile ("ldrex %0, %1" : "=r" (result) : "Q" (*addr) );
 80026b8:	693b      	ldr	r3, [r7, #16]
 80026ba:	e853 3f00 	ldrex	r3, [r3]
 80026be:	60fb      	str	r3, [r7, #12]
   return(result);
 80026c0:	68fb      	ldr	r3, [r7, #12]
 80026c2:	f023 0301 	bic.w	r3, r3, #1
 80026c6:	64bb      	str	r3, [r7, #72]	@ 0x48
 80026c8:	687b      	ldr	r3, [r7, #4]
 80026ca:	681b      	ldr	r3, [r3, #0]
 80026cc:	3308      	adds	r3, #8
 80026ce:	6cba      	ldr	r2, [r7, #72]	@ 0x48
 80026d0:	61fa      	str	r2, [r7, #28]
 80026d2:	61bb      	str	r3, [r7, #24]
   __ASM volatile ("strex %0, %2, %1" : "=&r" (result), "=Q" (*addr) : "r" (value) );
 80026d4:	69b9      	ldr	r1, [r7, #24]
 80026d6:	69fa      	ldr	r2, [r7, #28]
 80026d8:	e841 2300 	strex	r3, r2, [r1]
 80026dc:	617b      	str	r3, [r7, #20]
   return(result);
 80026de:	697b      	ldr	r3, [r7, #20]
 80026e0:	2b00      	cmp	r3, #0
 80026e2:	d1e5      	bne.n	80026b0 <UART_CheckIdleState+0xdc>

      huart->RxState = HAL_UART_STATE_READY;
 80026e4:	687b      	ldr	r3, [r7, #4]
 80026e6:	2220      	movs	r2, #32
 80026e8:	f8c3 2080 	str.w	r2, [r3, #128]	@ 0x80

      __HAL_UNLOCK(huart);
 80026ec:	687b      	ldr	r3, [r7, #4]
 80026ee:	2200      	movs	r2, #0
 80026f0:	f883 2078 	strb.w	r2, [r3, #120]	@ 0x78

      /* Timeout occurred */
      return HAL_TIMEOUT;
 80026f4:	2303      	movs	r3, #3
 80026f6:	e011      	b.n	800271c <UART_CheckIdleState+0x148>
    }
  }

  /* Initialize the UART State */
  huart->gState = HAL_UART_STATE_READY;
 80026f8:	687b      	ldr	r3, [r7, #4]
 80026fa:	2220      	movs	r2, #32
 80026fc:	67da      	str	r2, [r3, #124]	@ 0x7c
  huart->RxState = HAL_UART_STATE_READY;
 80026fe:	687b      	ldr	r3, [r7, #4]
 8002700:	2220      	movs	r2, #32
 8002702:	f8c3 2080 	str.w	r2, [r3, #128]	@ 0x80
  huart->ReceptionType = HAL_UART_RECEPTION_STANDARD;
 8002706:	687b      	ldr	r3, [r7, #4]
 8002708:	2200      	movs	r2, #0
 800270a:	661a      	str	r2, [r3, #96]	@ 0x60
  huart->RxEventType = HAL_UART_RXEVENT_TC;
 800270c:	687b      	ldr	r3, [r7, #4]
 800270e:	2200      	movs	r2, #0
 8002710:	665a      	str	r2, [r3, #100]	@ 0x64

  __HAL_UNLOCK(huart);
 8002712:	687b      	ldr	r3, [r7, #4]
 8002714:	2200      	movs	r2, #0
 8002716:	f883 2078 	strb.w	r2, [r3, #120]	@ 0x78

  return HAL_OK;
 800271a:	2300      	movs	r3, #0
}
 800271c:	4618      	mov	r0, r3
 800271e:	3758      	adds	r7, #88	@ 0x58
 8002720:	46bd      	mov	sp, r7
 8002722:	bd80      	pop	{r7, pc}

08002724 <UART_WaitOnFlagUntilTimeout>:
  * @param Timeout   Timeout duration
  * @retval HAL status
  */
HAL_StatusTypeDef UART_WaitOnFlagUntilTimeout(UART_HandleTypeDef *huart, uint32_t Flag, FlagStatus Status,
                                              uint32_t Tickstart, uint32_t Timeout)
{
 8002724:	b580      	push	{r7, lr}
 8002726:	b084      	sub	sp, #16
 8002728:	af00      	add	r7, sp, #0
 800272a:	60f8      	str	r0, [r7, #12]
 800272c:	60b9      	str	r1, [r7, #8]
 800272e:	603b      	str	r3, [r7, #0]
 8002730:	4613      	mov	r3, r2
 8002732:	71fb      	strb	r3, [r7, #7]
  /* Wait until flag is set */
  while ((__HAL_UART_GET_FLAG(huart, Flag) ? SET : RESET) == Status)
 8002734:	e04f      	b.n	80027d6 <UART_WaitOnFlagUntilTimeout+0xb2>
  {
    /* Check for the Timeout */
    if (Timeout != HAL_MAX_DELAY)
 8002736:	69bb      	ldr	r3, [r7, #24]
 8002738:	f1b3 3fff 	cmp.w	r3, #4294967295
 800273c:	d04b      	beq.n	80027d6 <UART_WaitOnFlagUntilTimeout+0xb2>
    {
      if (((HAL_GetTick() - Tickstart) > Timeout) || (Timeout == 0U))
 800273e:	f7fd ff95 	bl	800066c <HAL_GetTick>
 8002742:	4602      	mov	r2, r0
 8002744:	683b      	ldr	r3, [r7, #0]
 8002746:	1ad3      	subs	r3, r2, r3
 8002748:	69ba      	ldr	r2, [r7, #24]
 800274a:	429a      	cmp	r2, r3
 800274c:	d302      	bcc.n	8002754 <UART_WaitOnFlagUntilTimeout+0x30>
 800274e:	69bb      	ldr	r3, [r7, #24]
 8002750:	2b00      	cmp	r3, #0
 8002752:	d101      	bne.n	8002758 <UART_WaitOnFlagUntilTimeout+0x34>
      {

        return HAL_TIMEOUT;
 8002754:	2303      	movs	r3, #3
 8002756:	e04e      	b.n	80027f6 <UART_WaitOnFlagUntilTimeout+0xd2>
      }

      if ((READ_BIT(huart->Instance->CR1, USART_CR1_RE) != 0U) && (Flag != UART_FLAG_TXE) && (Flag != UART_FLAG_TC))
 8002758:	68fb      	ldr	r3, [r7, #12]
 800275a:	681b      	ldr	r3, [r3, #0]
 800275c:	681b      	ldr	r3, [r3, #0]
 800275e:	f003 0304 	and.w	r3, r3, #4
 8002762:	2b00      	cmp	r3, #0
 8002764:	d037      	beq.n	80027d6 <UART_WaitOnFlagUntilTimeout+0xb2>
 8002766:	68bb      	ldr	r3, [r7, #8]
 8002768:	2b80      	cmp	r3, #128	@ 0x80
 800276a:	d034      	beq.n	80027d6 <UART_WaitOnFlagUntilTimeout+0xb2>
 800276c:	68bb      	ldr	r3, [r7, #8]
 800276e:	2b40      	cmp	r3, #64	@ 0x40
 8002770:	d031      	beq.n	80027d6 <UART_WaitOnFlagUntilTimeout+0xb2>
      {
        if (__HAL_UART_GET_FLAG(huart, UART_FLAG_ORE) == SET)
 8002772:	68fb      	ldr	r3, [r7, #12]
 8002774:	681b      	ldr	r3, [r3, #0]
 8002776:	69db      	ldr	r3, [r3, #28]
 8002778:	f003 0308 	and.w	r3, r3, #8
 800277c:	2b08      	cmp	r3, #8
 800277e:	d110      	bne.n	80027a2 <UART_WaitOnFlagUntilTimeout+0x7e>
        {
          /* Clear Overrun Error flag*/
          __HAL_UART_CLEAR_FLAG(huart, UART_CLEAR_OREF);
 8002780:	68fb      	ldr	r3, [r7, #12]
 8002782:	681b      	ldr	r3, [r3, #0]
 8002784:	2208      	movs	r2, #8
 8002786:	621a      	str	r2, [r3, #32]

          /* Blocking error : transfer is aborted
          Set the UART state ready to be able to start again the process,
          Disable Rx Interrupts if ongoing */
          UART_EndRxTransfer(huart);
 8002788:	68f8      	ldr	r0, [r7, #12]
 800278a:	f000 f838 	bl	80027fe <UART_EndRxTransfer>

          huart->ErrorCode = HAL_UART_ERROR_ORE;
 800278e:	68fb      	ldr	r3, [r7, #12]
 8002790:	2208      	movs	r2, #8
 8002792:	f8c3 2084 	str.w	r2, [r3, #132]	@ 0x84

          /* Process Unlocked */
          __HAL_UNLOCK(huart);
 8002796:	68fb      	ldr	r3, [r7, #12]
 8002798:	2200      	movs	r2, #0
 800279a:	f883 2078 	strb.w	r2, [r3, #120]	@ 0x78

          return HAL_ERROR;
 800279e:	2301      	movs	r3, #1
 80027a0:	e029      	b.n	80027f6 <UART_WaitOnFlagUntilTimeout+0xd2>
        }
        if (__HAL_UART_GET_FLAG(huart, UART_FLAG_RTOF) == SET)
 80027a2:	68fb      	ldr	r3, [r7, #12]
 80027a4:	681b      	ldr	r3, [r3, #0]
 80027a6:	69db      	ldr	r3, [r3, #28]
 80027a8:	f403 6300 	and.w	r3, r3, #2048	@ 0x800
 80027ac:	f5b3 6f00 	cmp.w	r3, #2048	@ 0x800
 80027b0:	d111      	bne.n	80027d6 <UART_WaitOnFlagUntilTimeout+0xb2>
        {
          /* Clear Receiver Timeout flag*/
          __HAL_UART_CLEAR_FLAG(huart, UART_CLEAR_RTOF);
 80027b2:	68fb      	ldr	r3, [r7, #12]
 80027b4:	681b      	ldr	r3, [r3, #0]
 80027b6:	f44f 6200 	mov.w	r2, #2048	@ 0x800
 80027ba:	621a      	str	r2, [r3, #32]

          /* Blocking error : transfer is aborted
          Set the UART state ready to be able to start again the process,
          Disable Rx Interrupts if ongoing */
          UART_EndRxTransfer(huart);
 80027bc:	68f8      	ldr	r0, [r7, #12]
 80027be:	f000 f81e 	bl	80027fe <UART_EndRxTransfer>

          huart->ErrorCode = HAL_UART_ERROR_RTO;
 80027c2:	68fb      	ldr	r3, [r7, #12]
 80027c4:	2220      	movs	r2, #32
 80027c6:	f8c3 2084 	str.w	r2, [r3, #132]	@ 0x84

          /* Process Unlocked */
          __HAL_UNLOCK(huart);
 80027ca:	68fb      	ldr	r3, [r7, #12]
 80027cc:	2200      	movs	r2, #0
 80027ce:	f883 2078 	strb.w	r2, [r3, #120]	@ 0x78

          return HAL_TIMEOUT;
 80027d2:	2303      	movs	r3, #3
 80027d4:	e00f      	b.n	80027f6 <UART_WaitOnFlagUntilTimeout+0xd2>
  while ((__HAL_UART_GET_FLAG(huart, Flag) ? SET : RESET) == Status)
 80027d6:	68fb      	ldr	r3, [r7, #12]
 80027d8:	681b      	ldr	r3, [r3, #0]
 80027da:	69da      	ldr	r2, [r3, #28]
 80027dc:	68bb      	ldr	r3, [r7, #8]
 80027de:	4013      	ands	r3, r2
 80027e0:	68ba      	ldr	r2, [r7, #8]
 80027e2:	429a      	cmp	r2, r3
 80027e4:	bf0c      	ite	eq
 80027e6:	2301      	moveq	r3, #1
 80027e8:	2300      	movne	r3, #0
 80027ea:	b2db      	uxtb	r3, r3
 80027ec:	461a      	mov	r2, r3
 80027ee:	79fb      	ldrb	r3, [r7, #7]
 80027f0:	429a      	cmp	r2, r3
 80027f2:	d0a0      	beq.n	8002736 <UART_WaitOnFlagUntilTimeout+0x12>
        }
      }
    }
  }
  return HAL_OK;
 80027f4:	2300      	movs	r3, #0
}
 80027f6:	4618      	mov	r0, r3
 80027f8:	3710      	adds	r7, #16
 80027fa:	46bd      	mov	sp, r7
 80027fc:	bd80      	pop	{r7, pc}

080027fe <UART_EndRxTransfer>:
  * @brief  End ongoing Rx transfer on UART peripheral (following error detection or Reception completion).
  * @param  huart UART handle.
  * @retval None
  */
static void UART_EndRxTransfer(UART_HandleTypeDef *huart)
{
 80027fe:	b480      	push	{r7}
 8002800:	b095      	sub	sp, #84	@ 0x54
 8002802:	af00      	add	r7, sp, #0
 8002804:	6078      	str	r0, [r7, #4]
  /* Disable RXNE, PE and ERR (Frame error, noise error, overrun error) interrupts */
#if defined(USART_CR1_FIFOEN)
  ATOMIC_CLEAR_BIT(huart->Instance->CR1, (USART_CR1_RXNEIE_RXFNEIE | USART_CR1_PEIE));
  ATOMIC_CLEAR_BIT(huart->Instance->CR3, (USART_CR3_EIE | USART_CR3_RXFTIE));
#else
  ATOMIC_CLEAR_BIT(huart->Instance->CR1, (USART_CR1_RXNEIE | USART_CR1_PEIE));
 8002806:	687b      	ldr	r3, [r7, #4]
 8002808:	681b      	ldr	r3, [r3, #0]
 800280a:	637b      	str	r3, [r7, #52]	@ 0x34
   __ASM volatile ("ldrex %0, %1" : "=r" (result) : "Q" (*addr) );
 800280c:	6b7b      	ldr	r3, [r7, #52]	@ 0x34
 800280e:	e853 3f00 	ldrex	r3, [r3]
 8002812:	633b      	str	r3, [r7, #48]	@ 0x30
   return(result);
 8002814:	6b3b      	ldr	r3, [r7, #48]	@ 0x30
 8002816:	f423 7390 	bic.w	r3, r3, #288	@ 0x120
 800281a:	64fb      	str	r3, [r7, #76]	@ 0x4c
 800281c:	687b      	ldr	r3, [r7, #4]
 800281e:	681b      	ldr	r3, [r3, #0]
 8002820:	461a      	mov	r2, r3
 8002822:	6cfb      	ldr	r3, [r7, #76]	@ 0x4c
 8002824:	643b      	str	r3, [r7, #64]	@ 0x40
 8002826:	63fa      	str	r2, [r7, #60]	@ 0x3c
   __ASM volatile ("strex %0, %2, %1" : "=&r" (result), "=Q" (*addr) : "r" (value) );
 8002828:	6bf9      	ldr	r1, [r7, #60]	@ 0x3c
 800282a:	6c3a      	ldr	r2, [r7, #64]	@ 0x40
 800282c:	e841 2300 	strex	r3, r2, [r1]
 8002830:	63bb      	str	r3, [r7, #56]	@ 0x38
   return(result);
 8002832:	6bbb      	ldr	r3, [r7, #56]	@ 0x38
 8002834:	2b00      	cmp	r3, #0
 8002836:	d1e6      	bne.n	8002806 <UART_EndRxTransfer+0x8>
  ATOMIC_CLEAR_BIT(huart->Instance->CR3, USART_CR3_EIE);
 8002838:	687b      	ldr	r3, [r7, #4]
 800283a:	681b      	ldr	r3, [r3, #0]
 800283c:	3308      	adds	r3, #8
 800283e:	623b      	str	r3, [r7, #32]
   __ASM volatile ("ldrex %0, %1" : "=r" (result) : "Q" (*addr) );
 8002840:	6a3b      	ldr	r3, [r7, #32]
 8002842:	e853 3f00 	ldrex	r3, [r3]
 8002846:	61fb      	str	r3, [r7, #28]
   return(result);
 8002848:	69fb      	ldr	r3, [r7, #28]
 800284a:	f023 0301 	bic.w	r3, r3, #1
 800284e:	64bb      	str	r3, [r7, #72]	@ 0x48
 8002850:	687b      	ldr	r3, [r7, #4]
 8002852:	681b      	ldr	r3, [r3, #0]
 8002854:	3308      	adds	r3, #8
 8002856:	6cba      	ldr	r2, [r7, #72]	@ 0x48
 8002858:	62fa      	str	r2, [r7, #44]	@ 0x2c
 800285a:	62bb      	str	r3, [r7, #40]	@ 0x28
   __ASM volatile ("strex %0, %2, %1" : "=&r" (result), "=Q" (*addr) : "r" (value) );
 800285c:	6ab9      	ldr	r1, [r7, #40]	@ 0x28
 800285e:	6afa      	ldr	r2, [r7, #44]	@ 0x2c
 8002860:	e841 2300 	strex	r3, r2, [r1]
 8002864:	627b      	str	r3, [r7, #36]	@ 0x24
   return(result);
 8002866:	6a7b      	ldr	r3, [r7, #36]	@ 0x24
 8002868:	2b00      	cmp	r3, #0
 800286a:	d1e5      	bne.n	8002838 <UART_EndRxTransfer+0x3a>
#endif /* USART_CR1_FIFOEN */

  /* In case of reception waiting for IDLE event, disable also the IDLE IE interrupt source */
  if (huart->ReceptionType == HAL_UART_RECEPTION_TOIDLE)
 800286c:	687b      	ldr	r3, [r7, #4]
 800286e:	6e1b      	ldr	r3, [r3, #96]	@ 0x60
 8002870:	2b01      	cmp	r3, #1
 8002872:	d118      	bne.n	80028a6 <UART_EndRxTransfer+0xa8>
  {
    ATOMIC_CLEAR_BIT(huart->Instance->CR1, USART_CR1_IDLEIE);
 8002874:	687b      	ldr	r3, [r7, #4]
 8002876:	681b      	ldr	r3, [r3, #0]
 8002878:	60fb      	str	r3, [r7, #12]
   __ASM volatile ("ldrex %0, %1" : "=r" (result) : "Q" (*addr) );
 800287a:	68fb      	ldr	r3, [r7, #12]
 800287c:	e853 3f00 	ldrex	r3, [r3]
 8002880:	60bb      	str	r3, [r7, #8]
   return(result);
 8002882:	68bb      	ldr	r3, [r7, #8]
 8002884:	f023 0310 	bic.w	r3, r3, #16
 8002888:	647b      	str	r3, [r7, #68]	@ 0x44
 800288a:	687b      	ldr	r3, [r7, #4]
 800288c:	681b      	ldr	r3, [r3, #0]
 800288e:	461a      	mov	r2, r3
 8002890:	6c7b      	ldr	r3, [r7, #68]	@ 0x44
 8002892:	61bb      	str	r3, [r7, #24]
 8002894:	617a      	str	r2, [r7, #20]
   __ASM volatile ("strex %0, %2, %1" : "=&r" (result), "=Q" (*addr) : "r" (value) );
 8002896:	6979      	ldr	r1, [r7, #20]
 8002898:	69ba      	ldr	r2, [r7, #24]
 800289a:	e841 2300 	strex	r3, r2, [r1]
 800289e:	613b      	str	r3, [r7, #16]
   return(result);
 80028a0:	693b      	ldr	r3, [r7, #16]
 80028a2:	2b00      	cmp	r3, #0
 80028a4:	d1e6      	bne.n	8002874 <UART_EndRxTransfer+0x76>
  }

  /* At end of Rx process, restore huart->RxState to Ready */
  huart->RxState = HAL_UART_STATE_READY;
 80028a6:	687b      	ldr	r3, [r7, #4]
 80028a8:	2220      	movs	r2, #32
 80028aa:	f8c3 2080 	str.w	r2, [r3, #128]	@ 0x80
  huart->ReceptionType = HAL_UART_RECEPTION_STANDARD;
 80028ae:	687b      	ldr	r3, [r7, #4]
 80028b0:	2200      	movs	r2, #0
 80028b2:	661a      	str	r2, [r3, #96]	@ 0x60

  /* Reset RxIsr function pointer */
  huart->RxISR = NULL;
 80028b4:	687b      	ldr	r3, [r7, #4]
 80028b6:	2200      	movs	r2, #0
 80028b8:	669a      	str	r2, [r3, #104]	@ 0x68
}
 80028ba:	bf00      	nop
 80028bc:	3754      	adds	r7, #84	@ 0x54
 80028be:	46bd      	mov	sp, r7
 80028c0:	f85d 7b04 	ldr.w	r7, [sp], #4
 80028c4:	4770      	bx	lr
	...

080028c8 <KeyExpansion>:
*/
#define getSBoxValue(num) (sbox[(num)])

// This function produces Nb(Nr+1) round keys. The round keys are used in each round to decrypt the states. 
static void KeyExpansion(uint8_t* RoundKey, const uint8_t* Key)
{
 80028c8:	b480      	push	{r7}
 80028ca:	b089      	sub	sp, #36	@ 0x24
 80028cc:	af00      	add	r7, sp, #0
 80028ce:	6078      	str	r0, [r7, #4]
 80028d0:	6039      	str	r1, [r7, #0]
  unsigned i, j, k;
  uint8_t tempa[4]; // Used for the column/row operations
  
  // The first round key is the key itself.
  for (i = 0; i < Nk; ++i)
 80028d2:	2300      	movs	r3, #0
 80028d4:	61fb      	str	r3, [r7, #28]
 80028d6:	e030      	b.n	800293a <KeyExpansion+0x72>
  {
    RoundKey[(i * 4) + 0] = Key[(i * 4) + 0];
 80028d8:	69fb      	ldr	r3, [r7, #28]
 80028da:	009b      	lsls	r3, r3, #2
 80028dc:	683a      	ldr	r2, [r7, #0]
 80028de:	441a      	add	r2, r3
 80028e0:	69fb      	ldr	r3, [r7, #28]
 80028e2:	009b      	lsls	r3, r3, #2
 80028e4:	6879      	ldr	r1, [r7, #4]
 80028e6:	440b      	add	r3, r1
 80028e8:	7812      	ldrb	r2, [r2, #0]
 80028ea:	701a      	strb	r2, [r3, #0]
    RoundKey[(i * 4) + 1] = Key[(i * 4) + 1];
 80028ec:	69fb      	ldr	r3, [r7, #28]
 80028ee:	009b      	lsls	r3, r3, #2
 80028f0:	3301      	adds	r3, #1
 80028f2:	683a      	ldr	r2, [r7, #0]
 80028f4:	441a      	add	r2, r3
 80028f6:	69fb      	ldr	r3, [r7, #28]
 80028f8:	009b      	lsls	r3, r3, #2
 80028fa:	3301      	adds	r3, #1
 80028fc:	6879      	ldr	r1, [r7, #4]
 80028fe:	440b      	add	r3, r1
 8002900:	7812      	ldrb	r2, [r2, #0]
 8002902:	701a      	strb	r2, [r3, #0]
    RoundKey[(i * 4) + 2] = Key[(i * 4) + 2];
 8002904:	69fb      	ldr	r3, [r7, #28]
 8002906:	009b      	lsls	r3, r3, #2
 8002908:	3302      	adds	r3, #2
 800290a:	683a      	ldr	r2, [r7, #0]
 800290c:	441a      	add	r2, r3
 800290e:	69fb      	ldr	r3, [r7, #28]
 8002910:	009b      	lsls	r3, r3, #2
 8002912:	3302      	adds	r3, #2
 8002914:	6879      	ldr	r1, [r7, #4]
 8002916:	440b      	add	r3, r1
 8002918:	7812      	ldrb	r2, [r2, #0]
 800291a:	701a      	strb	r2, [r3, #0]
    RoundKey[(i * 4) + 3] = Key[(i * 4) + 3];
 800291c:	69fb      	ldr	r3, [r7, #28]
 800291e:	009b      	lsls	r3, r3, #2
 8002920:	3303      	adds	r3, #3
 8002922:	683a      	ldr	r2, [r7, #0]
 8002924:	441a      	add	r2, r3
 8002926:	69fb      	ldr	r3, [r7, #28]
 8002928:	009b      	lsls	r3, r3, #2
 800292a:	3303      	adds	r3, #3
 800292c:	6879      	ldr	r1, [r7, #4]
 800292e:	440b      	add	r3, r1
 8002930:	7812      	ldrb	r2, [r2, #0]
 8002932:	701a      	strb	r2, [r3, #0]
  for (i = 0; i < Nk; ++i)
 8002934:	69fb      	ldr	r3, [r7, #28]
 8002936:	3301      	adds	r3, #1
 8002938:	61fb      	str	r3, [r7, #28]
 800293a:	69fb      	ldr	r3, [r7, #28]
 800293c:	2b03      	cmp	r3, #3
 800293e:	d9cb      	bls.n	80028d8 <KeyExpansion+0x10>
  }

  // All other round keys are found from the previous round keys.
  for (i = Nk; i < Nb * (Nr + 1); ++i)
 8002940:	2304      	movs	r3, #4
 8002942:	61fb      	str	r3, [r7, #28]
 8002944:	e081      	b.n	8002a4a <KeyExpansion+0x182>
  {
    {
      k = (i - 1) * 4;
 8002946:	69fb      	ldr	r3, [r7, #28]
 8002948:	3b01      	subs	r3, #1
 800294a:	009b      	lsls	r3, r3, #2
 800294c:	61bb      	str	r3, [r7, #24]
      tempa[0]=RoundKey[k + 0];
 800294e:	687a      	ldr	r2, [r7, #4]
 8002950:	69bb      	ldr	r3, [r7, #24]
 8002952:	4413      	add	r3, r2
 8002954:	781b      	ldrb	r3, [r3, #0]
 8002956:	733b      	strb	r3, [r7, #12]
      tempa[1]=RoundKey[k + 1];
 8002958:	69bb      	ldr	r3, [r7, #24]
 800295a:	3301      	adds	r3, #1
 800295c:	687a      	ldr	r2, [r7, #4]
 800295e:	4413      	add	r3, r2
 8002960:	781b      	ldrb	r3, [r3, #0]
 8002962:	737b      	strb	r3, [r7, #13]
      tempa[2]=RoundKey[k + 2];
 8002964:	69bb      	ldr	r3, [r7, #24]
 8002966:	3302      	adds	r3, #2
 8002968:	687a      	ldr	r2, [r7, #4]
 800296a:	4413      	add	r3, r2
 800296c:	781b      	ldrb	r3, [r3, #0]
 800296e:	73bb      	strb	r3, [r7, #14]
      tempa[3]=RoundKey[k + 3];
 8002970:	69bb      	ldr	r3, [r7, #24]
 8002972:	3303      	adds	r3, #3
 8002974:	687a      	ldr	r2, [r7, #4]
 8002976:	4413      	add	r3, r2
 8002978:	781b      	ldrb	r3, [r3, #0]
 800297a:	73fb      	strb	r3, [r7, #15]

    }

    if (i % Nk == 0)
 800297c:	69fb      	ldr	r3, [r7, #28]
 800297e:	f003 0303 	and.w	r3, r3, #3
 8002982:	2b00      	cmp	r3, #0
 8002984:	d125      	bne.n	80029d2 <KeyExpansion+0x10a>
      // This function shifts the 4 bytes in a word to the left once.
      // [a0,a1,a2,a3] becomes [a1,a2,a3,a0]

      // Function RotWord()
      {
        const uint8_t u8tmp = tempa[0];
 8002986:	7b3b      	ldrb	r3, [r7, #12]
 8002988:	75fb      	strb	r3, [r7, #23]
        tempa[0] = tempa[1];
 800298a:	7b7b      	ldrb	r3, [r7, #13]
 800298c:	733b      	strb	r3, [r7, #12]
        tempa[1] = tempa[2];
 800298e:	7bbb      	ldrb	r3, [r7, #14]
 8002990:	737b      	strb	r3, [r7, #13]
        tempa[2] = tempa[3];
 8002992:	7bfb      	ldrb	r3, [r7, #15]
 8002994:	73bb      	strb	r3, [r7, #14]
        tempa[3] = u8tmp;
 8002996:	7dfb      	ldrb	r3, [r7, #23]
 8002998:	73fb      	strb	r3, [r7, #15]
      // SubWord() is a function that takes a four-byte input word and 
      // applies the S-box to each of the four bytes to produce an output word.

      // Function Subword()
      {
        tempa[0] = getSBoxValue(tempa[0]);
 800299a:	7b3b      	ldrb	r3, [r7, #12]
 800299c:	461a      	mov	r2, r3
 800299e:	4b30      	ldr	r3, [pc, #192]	@ (8002a60 <KeyExpansion+0x198>)
 80029a0:	5c9b      	ldrb	r3, [r3, r2]
 80029a2:	733b      	strb	r3, [r7, #12]
        tempa[1] = getSBoxValue(tempa[1]);
 80029a4:	7b7b      	ldrb	r3, [r7, #13]
 80029a6:	461a      	mov	r2, r3
 80029a8:	4b2d      	ldr	r3, [pc, #180]	@ (8002a60 <KeyExpansion+0x198>)
 80029aa:	5c9b      	ldrb	r3, [r3, r2]
 80029ac:	737b      	strb	r3, [r7, #13]
        tempa[2] = getSBoxValue(tempa[2]);
 80029ae:	7bbb      	ldrb	r3, [r7, #14]
 80029b0:	461a      	mov	r2, r3
 80029b2:	4b2b      	ldr	r3, [pc, #172]	@ (8002a60 <KeyExpansion+0x198>)
 80029b4:	5c9b      	ldrb	r3, [r3, r2]
 80029b6:	73bb      	strb	r3, [r7, #14]
        tempa[3] = getSBoxValue(tempa[3]);
 80029b8:	7bfb      	ldrb	r3, [r7, #15]
 80029ba:	461a      	mov	r2, r3
 80029bc:	4b28      	ldr	r3, [pc, #160]	@ (8002a60 <KeyExpansion+0x198>)
 80029be:	5c9b      	ldrb	r3, [r3, r2]
 80029c0:	73fb      	strb	r3, [r7, #15]
      }

      tempa[0] = tempa[0] ^ Rcon[i/Nk];
 80029c2:	7b3a      	ldrb	r2, [r7, #12]
 80029c4:	69fb      	ldr	r3, [r7, #28]
 80029c6:	089b      	lsrs	r3, r3, #2
 80029c8:	4926      	ldr	r1, [pc, #152]	@ (8002a64 <KeyExpansion+0x19c>)
 80029ca:	5ccb      	ldrb	r3, [r1, r3]
 80029cc:	4053      	eors	r3, r2
 80029ce:	b2db      	uxtb	r3, r3
 80029d0:	733b      	strb	r3, [r7, #12]
        tempa[2] = getSBoxValue(tempa[2]);
        tempa[3] = getSBoxValue(tempa[3]);
      }
    }
#endif
    j = i * 4; k=(i - Nk) * 4;
 80029d2:	69fb      	ldr	r3, [r7, #28]
 80029d4:	009b      	lsls	r3, r3, #2
 80029d6:	613b      	str	r3, [r7, #16]
 80029d8:	69fb      	ldr	r3, [r7, #28]
 80029da:	3b04      	subs	r3, #4
 80029dc:	009b      	lsls	r3, r3, #2
 80029de:	61bb      	str	r3, [r7, #24]
    RoundKey[j + 0] = RoundKey[k + 0] ^ tempa[0];
 80029e0:	687a      	ldr	r2, [r7, #4]
 80029e2:	69bb      	ldr	r3, [r7, #24]
 80029e4:	4413      	add	r3, r2
 80029e6:	7819      	ldrb	r1, [r3, #0]
 80029e8:	7b3a      	ldrb	r2, [r7, #12]
 80029ea:	6878      	ldr	r0, [r7, #4]
 80029ec:	693b      	ldr	r3, [r7, #16]
 80029ee:	4403      	add	r3, r0
 80029f0:	404a      	eors	r2, r1
 80029f2:	b2d2      	uxtb	r2, r2
 80029f4:	701a      	strb	r2, [r3, #0]
    RoundKey[j + 1] = RoundKey[k + 1] ^ tempa[1];
 80029f6:	69bb      	ldr	r3, [r7, #24]
 80029f8:	3301      	adds	r3, #1
 80029fa:	687a      	ldr	r2, [r7, #4]
 80029fc:	4413      	add	r3, r2
 80029fe:	7819      	ldrb	r1, [r3, #0]
 8002a00:	7b7a      	ldrb	r2, [r7, #13]
 8002a02:	693b      	ldr	r3, [r7, #16]
 8002a04:	3301      	adds	r3, #1
 8002a06:	6878      	ldr	r0, [r7, #4]
 8002a08:	4403      	add	r3, r0
 8002a0a:	404a      	eors	r2, r1
 8002a0c:	b2d2      	uxtb	r2, r2
 8002a0e:	701a      	strb	r2, [r3, #0]
    RoundKey[j + 2] = RoundKey[k + 2] ^ tempa[2];
 8002a10:	69bb      	ldr	r3, [r7, #24]
 8002a12:	3302      	adds	r3, #2
 8002a14:	687a      	ldr	r2, [r7, #4]
 8002a16:	4413      	add	r3, r2
 8002a18:	7819      	ldrb	r1, [r3, #0]
 8002a1a:	7bba      	ldrb	r2, [r7, #14]
 8002a1c:	693b      	ldr	r3, [r7, #16]
 8002a1e:	3302      	adds	r3, #2
 8002a20:	6878      	ldr	r0, [r7, #4]
 8002a22:	4403      	add	r3, r0
 8002a24:	404a      	eors	r2, r1
 8002a26:	b2d2      	uxtb	r2, r2
 8002a28:	701a      	strb	r2, [r3, #0]
    RoundKey[j + 3] = RoundKey[k + 3] ^ tempa[3];
 8002a2a:	69bb      	ldr	r3, [r7, #24]
 8002a2c:	3303      	adds	r3, #3
 8002a2e:	687a      	ldr	r2, [r7, #4]
 8002a30:	4413      	add	r3, r2
 8002a32:	7819      	ldrb	r1, [r3, #0]
 8002a34:	7bfa      	ldrb	r2, [r7, #15]
 8002a36:	693b      	ldr	r3, [r7, #16]
 8002a38:	3303      	adds	r3, #3
 8002a3a:	6878      	ldr	r0, [r7, #4]
 8002a3c:	4403      	add	r3, r0
 8002a3e:	404a      	eors	r2, r1
 8002a40:	b2d2      	uxtb	r2, r2
 8002a42:	701a      	strb	r2, [r3, #0]
  for (i = Nk; i < Nb * (Nr + 1); ++i)
 8002a44:	69fb      	ldr	r3, [r7, #28]
 8002a46:	3301      	adds	r3, #1
 8002a48:	61fb      	str	r3, [r7, #28]
 8002a4a:	69fb      	ldr	r3, [r7, #28]
 8002a4c:	2b2b      	cmp	r3, #43	@ 0x2b
 8002a4e:	f67f af7a 	bls.w	8002946 <KeyExpansion+0x7e>
  }
}
 8002a52:	bf00      	nop
 8002a54:	bf00      	nop
 8002a56:	3724      	adds	r7, #36	@ 0x24
 8002a58:	46bd      	mov	sp, r7
 8002a5a:	f85d 7b04 	ldr.w	r7, [sp], #4
 8002a5e:	4770      	bx	lr
 8002a60:	08007368 	.word	0x08007368
 8002a64:	08007568 	.word	0x08007568

08002a68 <AES_init_ctx>:

void AES_init_ctx(struct AES_ctx* ctx, const uint8_t* key)
{
 8002a68:	b580      	push	{r7, lr}
 8002a6a:	b082      	sub	sp, #8
 8002a6c:	af00      	add	r7, sp, #0
 8002a6e:	6078      	str	r0, [r7, #4]
 8002a70:	6039      	str	r1, [r7, #0]
  KeyExpansion(ctx->RoundKey, key);
 8002a72:	687b      	ldr	r3, [r7, #4]
 8002a74:	6839      	ldr	r1, [r7, #0]
 8002a76:	4618      	mov	r0, r3
 8002a78:	f7ff ff26 	bl	80028c8 <KeyExpansion>
}
 8002a7c:	bf00      	nop
 8002a7e:	3708      	adds	r7, #8
 8002a80:	46bd      	mov	sp, r7
 8002a82:	bd80      	pop	{r7, pc}

08002a84 <AddRoundKey>:
#endif

// This function adds the round key to state.
// The round key is added to the state by an XOR function.
static void AddRoundKey(uint8_t round, state_t* state, const uint8_t* RoundKey)
{
 8002a84:	b480      	push	{r7}
 8002a86:	b087      	sub	sp, #28
 8002a88:	af00      	add	r7, sp, #0
 8002a8a:	4603      	mov	r3, r0
 8002a8c:	60b9      	str	r1, [r7, #8]
 8002a8e:	607a      	str	r2, [r7, #4]
 8002a90:	73fb      	strb	r3, [r7, #15]
  uint8_t i,j;
  for (i = 0; i < 4; ++i)
 8002a92:	2300      	movs	r3, #0
 8002a94:	75fb      	strb	r3, [r7, #23]
 8002a96:	e027      	b.n	8002ae8 <AddRoundKey+0x64>
  {
    for (j = 0; j < 4; ++j)
 8002a98:	2300      	movs	r3, #0
 8002a9a:	75bb      	strb	r3, [r7, #22]
 8002a9c:	e01e      	b.n	8002adc <AddRoundKey+0x58>
    {
      (*state)[i][j] ^= RoundKey[(round * Nb * 4) + (i * Nb) + j];
 8002a9e:	7dfa      	ldrb	r2, [r7, #23]
 8002aa0:	7dbb      	ldrb	r3, [r7, #22]
 8002aa2:	68b9      	ldr	r1, [r7, #8]
 8002aa4:	0092      	lsls	r2, r2, #2
 8002aa6:	440a      	add	r2, r1
 8002aa8:	4413      	add	r3, r2
 8002aaa:	7818      	ldrb	r0, [r3, #0]
 8002aac:	7bfb      	ldrb	r3, [r7, #15]
 8002aae:	009a      	lsls	r2, r3, #2
 8002ab0:	7dfb      	ldrb	r3, [r7, #23]
 8002ab2:	4413      	add	r3, r2
 8002ab4:	009a      	lsls	r2, r3, #2
 8002ab6:	7dbb      	ldrb	r3, [r7, #22]
 8002ab8:	4413      	add	r3, r2
 8002aba:	461a      	mov	r2, r3
 8002abc:	687b      	ldr	r3, [r7, #4]
 8002abe:	4413      	add	r3, r2
 8002ac0:	7819      	ldrb	r1, [r3, #0]
 8002ac2:	7dfa      	ldrb	r2, [r7, #23]
 8002ac4:	7dbb      	ldrb	r3, [r7, #22]
 8002ac6:	4041      	eors	r1, r0
 8002ac8:	b2c8      	uxtb	r0, r1
 8002aca:	68b9      	ldr	r1, [r7, #8]
 8002acc:	0092      	lsls	r2, r2, #2
 8002ace:	440a      	add	r2, r1
 8002ad0:	4413      	add	r3, r2
 8002ad2:	4602      	mov	r2, r0
 8002ad4:	701a      	strb	r2, [r3, #0]
    for (j = 0; j < 4; ++j)
 8002ad6:	7dbb      	ldrb	r3, [r7, #22]
 8002ad8:	3301      	adds	r3, #1
 8002ada:	75bb      	strb	r3, [r7, #22]
 8002adc:	7dbb      	ldrb	r3, [r7, #22]
 8002ade:	2b03      	cmp	r3, #3
 8002ae0:	d9dd      	bls.n	8002a9e <AddRoundKey+0x1a>
  for (i = 0; i < 4; ++i)
 8002ae2:	7dfb      	ldrb	r3, [r7, #23]
 8002ae4:	3301      	adds	r3, #1
 8002ae6:	75fb      	strb	r3, [r7, #23]
 8002ae8:	7dfb      	ldrb	r3, [r7, #23]
 8002aea:	2b03      	cmp	r3, #3
 8002aec:	d9d4      	bls.n	8002a98 <AddRoundKey+0x14>
    }
  }
}
 8002aee:	bf00      	nop
 8002af0:	bf00      	nop
 8002af2:	371c      	adds	r7, #28
 8002af4:	46bd      	mov	sp, r7
 8002af6:	f85d 7b04 	ldr.w	r7, [sp], #4
 8002afa:	4770      	bx	lr

08002afc <SubBytes>:

// The SubBytes Function Substitutes the values in the
// state matrix with values in an S-box.
static void SubBytes(state_t* state)
{
 8002afc:	b480      	push	{r7}
 8002afe:	b085      	sub	sp, #20
 8002b00:	af00      	add	r7, sp, #0
 8002b02:	6078      	str	r0, [r7, #4]
  uint8_t i, j;
  for (i = 0; i < 4; ++i)
 8002b04:	2300      	movs	r3, #0
 8002b06:	73fb      	strb	r3, [r7, #15]
 8002b08:	e01d      	b.n	8002b46 <SubBytes+0x4a>
  {
    for (j = 0; j < 4; ++j)
 8002b0a:	2300      	movs	r3, #0
 8002b0c:	73bb      	strb	r3, [r7, #14]
 8002b0e:	e014      	b.n	8002b3a <SubBytes+0x3e>
    {
      (*state)[j][i] = getSBoxValue((*state)[j][i]);
 8002b10:	7bba      	ldrb	r2, [r7, #14]
 8002b12:	7bfb      	ldrb	r3, [r7, #15]
 8002b14:	6879      	ldr	r1, [r7, #4]
 8002b16:	0092      	lsls	r2, r2, #2
 8002b18:	440a      	add	r2, r1
 8002b1a:	4413      	add	r3, r2
 8002b1c:	781b      	ldrb	r3, [r3, #0]
 8002b1e:	4618      	mov	r0, r3
 8002b20:	7bba      	ldrb	r2, [r7, #14]
 8002b22:	7bfb      	ldrb	r3, [r7, #15]
 8002b24:	490d      	ldr	r1, [pc, #52]	@ (8002b5c <SubBytes+0x60>)
 8002b26:	5c08      	ldrb	r0, [r1, r0]
 8002b28:	6879      	ldr	r1, [r7, #4]
 8002b2a:	0092      	lsls	r2, r2, #2
 8002b2c:	440a      	add	r2, r1
 8002b2e:	4413      	add	r3, r2
 8002b30:	4602      	mov	r2, r0
 8002b32:	701a      	strb	r2, [r3, #0]
    for (j = 0; j < 4; ++j)
 8002b34:	7bbb      	ldrb	r3, [r7, #14]
 8002b36:	3301      	adds	r3, #1
 8002b38:	73bb      	strb	r3, [r7, #14]
 8002b3a:	7bbb      	ldrb	r3, [r7, #14]
 8002b3c:	2b03      	cmp	r3, #3
 8002b3e:	d9e7      	bls.n	8002b10 <SubBytes+0x14>
  for (i = 0; i < 4; ++i)
 8002b40:	7bfb      	ldrb	r3, [r7, #15]
 8002b42:	3301      	adds	r3, #1
 8002b44:	73fb      	strb	r3, [r7, #15]
 8002b46:	7bfb      	ldrb	r3, [r7, #15]
 8002b48:	2b03      	cmp	r3, #3
 8002b4a:	d9de      	bls.n	8002b0a <SubBytes+0xe>
    }
  }
}
 8002b4c:	bf00      	nop
 8002b4e:	bf00      	nop
 8002b50:	3714      	adds	r7, #20
 8002b52:	46bd      	mov	sp, r7
 8002b54:	f85d 7b04 	ldr.w	r7, [sp], #4
 8002b58:	4770      	bx	lr
 8002b5a:	bf00      	nop
 8002b5c:	08007368 	.word	0x08007368

08002b60 <ShiftRows>:

// The ShiftRows() function shifts the rows in the state to the left.
// Each row is shifted with different offset.
// Offset = Row number. So the first row is not shifted.
static void ShiftRows(state_t* state)
{
 8002b60:	b480      	push	{r7}
 8002b62:	b085      	sub	sp, #20
 8002b64:	af00      	add	r7, sp, #0
 8002b66:	6078      	str	r0, [r7, #4]
  uint8_t temp;

  // Rotate first row 1 columns to left  
  temp           = (*state)[0][1];
 8002b68:	687b      	ldr	r3, [r7, #4]
 8002b6a:	785b      	ldrb	r3, [r3, #1]
 8002b6c:	73fb      	strb	r3, [r7, #15]
  (*state)[0][1] = (*state)[1][1];
 8002b6e:	687b      	ldr	r3, [r7, #4]
 8002b70:	795a      	ldrb	r2, [r3, #5]
 8002b72:	687b      	ldr	r3, [r7, #4]
 8002b74:	705a      	strb	r2, [r3, #1]
  (*state)[1][1] = (*state)[2][1];
 8002b76:	687b      	ldr	r3, [r7, #4]
 8002b78:	7a5a      	ldrb	r2, [r3, #9]
 8002b7a:	687b      	ldr	r3, [r7, #4]
 8002b7c:	715a      	strb	r2, [r3, #5]
  (*state)[2][1] = (*state)[3][1];
 8002b7e:	687b      	ldr	r3, [r7, #4]
 8002b80:	7b5a      	ldrb	r2, [r3, #13]
 8002b82:	687b      	ldr	r3, [r7, #4]
 8002b84:	725a      	strb	r2, [r3, #9]
  (*state)[3][1] = temp;
 8002b86:	687b      	ldr	r3, [r7, #4]
 8002b88:	7bfa      	ldrb	r2, [r7, #15]
 8002b8a:	735a      	strb	r2, [r3, #13]

  // Rotate second row 2 columns to left  
  temp           = (*state)[0][2];
 8002b8c:	687b      	ldr	r3, [r7, #4]
 8002b8e:	789b      	ldrb	r3, [r3, #2]
 8002b90:	73fb      	strb	r3, [r7, #15]
  (*state)[0][2] = (*state)[2][2];
 8002b92:	687b      	ldr	r3, [r7, #4]
 8002b94:	7a9a      	ldrb	r2, [r3, #10]
 8002b96:	687b      	ldr	r3, [r7, #4]
 8002b98:	709a      	strb	r2, [r3, #2]
  (*state)[2][2] = temp;
 8002b9a:	687b      	ldr	r3, [r7, #4]
 8002b9c:	7bfa      	ldrb	r2, [r7, #15]
 8002b9e:	729a      	strb	r2, [r3, #10]

  temp           = (*state)[1][2];
 8002ba0:	687b      	ldr	r3, [r7, #4]
 8002ba2:	799b      	ldrb	r3, [r3, #6]
 8002ba4:	73fb      	strb	r3, [r7, #15]
  (*state)[1][2] = (*state)[3][2];
 8002ba6:	687b      	ldr	r3, [r7, #4]
 8002ba8:	7b9a      	ldrb	r2, [r3, #14]
 8002baa:	687b      	ldr	r3, [r7, #4]
 8002bac:	719a      	strb	r2, [r3, #6]
  (*state)[3][2] = temp;
 8002bae:	687b      	ldr	r3, [r7, #4]
 8002bb0:	7bfa      	ldrb	r2, [r7, #15]
 8002bb2:	739a      	strb	r2, [r3, #14]

  // Rotate third row 3 columns to left
  temp           = (*state)[0][3];
 8002bb4:	687b      	ldr	r3, [r7, #4]
 8002bb6:	78db      	ldrb	r3, [r3, #3]
 8002bb8:	73fb      	strb	r3, [r7, #15]
  (*state)[0][3] = (*state)[3][3];
 8002bba:	687b      	ldr	r3, [r7, #4]
 8002bbc:	7bda      	ldrb	r2, [r3, #15]
 8002bbe:	687b      	ldr	r3, [r7, #4]
 8002bc0:	70da      	strb	r2, [r3, #3]
  (*state)[3][3] = (*state)[2][3];
 8002bc2:	687b      	ldr	r3, [r7, #4]
 8002bc4:	7ada      	ldrb	r2, [r3, #11]
 8002bc6:	687b      	ldr	r3, [r7, #4]
 8002bc8:	73da      	strb	r2, [r3, #15]
  (*state)[2][3] = (*state)[1][3];
 8002bca:	687b      	ldr	r3, [r7, #4]
 8002bcc:	79da      	ldrb	r2, [r3, #7]
 8002bce:	687b      	ldr	r3, [r7, #4]
 8002bd0:	72da      	strb	r2, [r3, #11]
  (*state)[1][3] = temp;
 8002bd2:	687b      	ldr	r3, [r7, #4]
 8002bd4:	7bfa      	ldrb	r2, [r7, #15]
 8002bd6:	71da      	strb	r2, [r3, #7]
}
 8002bd8:	bf00      	nop
 8002bda:	3714      	adds	r7, #20
 8002bdc:	46bd      	mov	sp, r7
 8002bde:	f85d 7b04 	ldr.w	r7, [sp], #4
 8002be2:	4770      	bx	lr

08002be4 <xtime>:

static uint8_t xtime(uint8_t x)
{
 8002be4:	b480      	push	{r7}
 8002be6:	b083      	sub	sp, #12
 8002be8:	af00      	add	r7, sp, #0
 8002bea:	4603      	mov	r3, r0
 8002bec:	71fb      	strb	r3, [r7, #7]
  return ((x<<1) ^ (((x>>7) & 1) * 0x1b));
 8002bee:	f997 3007 	ldrsb.w	r3, [r7, #7]
 8002bf2:	005b      	lsls	r3, r3, #1
 8002bf4:	b25a      	sxtb	r2, r3
 8002bf6:	79fb      	ldrb	r3, [r7, #7]
 8002bf8:	09db      	lsrs	r3, r3, #7
 8002bfa:	b2db      	uxtb	r3, r3
 8002bfc:	b25b      	sxtb	r3, r3
 8002bfe:	4619      	mov	r1, r3
 8002c00:	0049      	lsls	r1, r1, #1
 8002c02:	440b      	add	r3, r1
 8002c04:	4619      	mov	r1, r3
 8002c06:	00c8      	lsls	r0, r1, #3
 8002c08:	4619      	mov	r1, r3
 8002c0a:	4603      	mov	r3, r0
 8002c0c:	440b      	add	r3, r1
 8002c0e:	b25b      	sxtb	r3, r3
 8002c10:	4053      	eors	r3, r2
 8002c12:	b25b      	sxtb	r3, r3
 8002c14:	b2db      	uxtb	r3, r3
}
 8002c16:	4618      	mov	r0, r3
 8002c18:	370c      	adds	r7, #12
 8002c1a:	46bd      	mov	sp, r7
 8002c1c:	f85d 7b04 	ldr.w	r7, [sp], #4
 8002c20:	4770      	bx	lr

08002c22 <MixColumns>:

// MixColumns function mixes the columns of the state matrix
static void MixColumns(state_t* state)
{
 8002c22:	b580      	push	{r7, lr}
 8002c24:	b084      	sub	sp, #16
 8002c26:	af00      	add	r7, sp, #0
 8002c28:	6078      	str	r0, [r7, #4]
  uint8_t i;
  uint8_t Tmp, Tm, t;
  for (i = 0; i < 4; ++i)
 8002c2a:	2300      	movs	r3, #0
 8002c2c:	73fb      	strb	r3, [r7, #15]
 8002c2e:	e0a4      	b.n	8002d7a <MixColumns+0x158>
  {  
    t   = (*state)[i][0];
 8002c30:	7bfa      	ldrb	r2, [r7, #15]
 8002c32:	687b      	ldr	r3, [r7, #4]
 8002c34:	f813 3022 	ldrb.w	r3, [r3, r2, lsl #2]
 8002c38:	73bb      	strb	r3, [r7, #14]
    Tmp = (*state)[i][0] ^ (*state)[i][1] ^ (*state)[i][2] ^ (*state)[i][3] ;
 8002c3a:	7bfa      	ldrb	r2, [r7, #15]
 8002c3c:	687b      	ldr	r3, [r7, #4]
 8002c3e:	f813 2022 	ldrb.w	r2, [r3, r2, lsl #2]
 8002c42:	7bfb      	ldrb	r3, [r7, #15]
 8002c44:	6879      	ldr	r1, [r7, #4]
 8002c46:	009b      	lsls	r3, r3, #2
 8002c48:	440b      	add	r3, r1
 8002c4a:	785b      	ldrb	r3, [r3, #1]
 8002c4c:	4053      	eors	r3, r2
 8002c4e:	b2da      	uxtb	r2, r3
 8002c50:	7bfb      	ldrb	r3, [r7, #15]
 8002c52:	6879      	ldr	r1, [r7, #4]
 8002c54:	009b      	lsls	r3, r3, #2
 8002c56:	440b      	add	r3, r1
 8002c58:	789b      	ldrb	r3, [r3, #2]
 8002c5a:	4053      	eors	r3, r2
 8002c5c:	b2da      	uxtb	r2, r3
 8002c5e:	7bfb      	ldrb	r3, [r7, #15]
 8002c60:	6879      	ldr	r1, [r7, #4]
 8002c62:	009b      	lsls	r3, r3, #2
 8002c64:	440b      	add	r3, r1
 8002c66:	78db      	ldrb	r3, [r3, #3]
 8002c68:	4053      	eors	r3, r2
 8002c6a:	737b      	strb	r3, [r7, #13]
    Tm  = (*state)[i][0] ^ (*state)[i][1] ; Tm = xtime(Tm);  (*state)[i][0] ^= Tm ^ Tmp ;
 8002c6c:	7bfa      	ldrb	r2, [r7, #15]
 8002c6e:	687b      	ldr	r3, [r7, #4]
 8002c70:	f813 2022 	ldrb.w	r2, [r3, r2, lsl #2]
 8002c74:	7bfb      	ldrb	r3, [r7, #15]
 8002c76:	6879      	ldr	r1, [r7, #4]
 8002c78:	009b      	lsls	r3, r3, #2
 8002c7a:	440b      	add	r3, r1
 8002c7c:	785b      	ldrb	r3, [r3, #1]
 8002c7e:	4053      	eors	r3, r2
 8002c80:	733b      	strb	r3, [r7, #12]
 8002c82:	7b3b      	ldrb	r3, [r7, #12]
 8002c84:	4618      	mov	r0, r3
 8002c86:	f7ff ffad 	bl	8002be4 <xtime>
 8002c8a:	4603      	mov	r3, r0
 8002c8c:	733b      	strb	r3, [r7, #12]
 8002c8e:	7bfa      	ldrb	r2, [r7, #15]
 8002c90:	687b      	ldr	r3, [r7, #4]
 8002c92:	f813 1022 	ldrb.w	r1, [r3, r2, lsl #2]
 8002c96:	7b3a      	ldrb	r2, [r7, #12]
 8002c98:	7b7b      	ldrb	r3, [r7, #13]
 8002c9a:	4053      	eors	r3, r2
 8002c9c:	b2db      	uxtb	r3, r3
 8002c9e:	7bfa      	ldrb	r2, [r7, #15]
 8002ca0:	404b      	eors	r3, r1
 8002ca2:	b2d9      	uxtb	r1, r3
 8002ca4:	687b      	ldr	r3, [r7, #4]
 8002ca6:	f803 1022 	strb.w	r1, [r3, r2, lsl #2]
    Tm  = (*state)[i][1] ^ (*state)[i][2] ; Tm = xtime(Tm);  (*state)[i][1] ^= Tm ^ Tmp ;
 8002caa:	7bfb      	ldrb	r3, [r7, #15]
 8002cac:	687a      	ldr	r2, [r7, #4]
 8002cae:	009b      	lsls	r3, r3, #2
 8002cb0:	4413      	add	r3, r2
 8002cb2:	785a      	ldrb	r2, [r3, #1]
 8002cb4:	7bfb      	ldrb	r3, [r7, #15]
 8002cb6:	6879      	ldr	r1, [r7, #4]
 8002cb8:	009b      	lsls	r3, r3, #2
 8002cba:	440b      	add	r3, r1
 8002cbc:	789b      	ldrb	r3, [r3, #2]
 8002cbe:	4053      	eors	r3, r2
 8002cc0:	733b      	strb	r3, [r7, #12]
 8002cc2:	7b3b      	ldrb	r3, [r7, #12]
 8002cc4:	4618      	mov	r0, r3
 8002cc6:	f7ff ff8d 	bl	8002be4 <xtime>
 8002cca:	4603      	mov	r3, r0
 8002ccc:	733b      	strb	r3, [r7, #12]
 8002cce:	7bfb      	ldrb	r3, [r7, #15]
 8002cd0:	687a      	ldr	r2, [r7, #4]
 8002cd2:	009b      	lsls	r3, r3, #2
 8002cd4:	4413      	add	r3, r2
 8002cd6:	7859      	ldrb	r1, [r3, #1]
 8002cd8:	7b3a      	ldrb	r2, [r7, #12]
 8002cda:	7b7b      	ldrb	r3, [r7, #13]
 8002cdc:	4053      	eors	r3, r2
 8002cde:	b2da      	uxtb	r2, r3
 8002ce0:	7bfb      	ldrb	r3, [r7, #15]
 8002ce2:	404a      	eors	r2, r1
 8002ce4:	b2d1      	uxtb	r1, r2
 8002ce6:	687a      	ldr	r2, [r7, #4]
 8002ce8:	009b      	lsls	r3, r3, #2
 8002cea:	4413      	add	r3, r2
 8002cec:	460a      	mov	r2, r1
 8002cee:	705a      	strb	r2, [r3, #1]
    Tm  = (*state)[i][2] ^ (*state)[i][3] ; Tm = xtime(Tm);  (*state)[i][2] ^= Tm ^ Tmp ;
 8002cf0:	7bfb      	ldrb	r3, [r7, #15]
 8002cf2:	687a      	ldr	r2, [r7, #4]
 8002cf4:	009b      	lsls	r3, r3, #2
 8002cf6:	4413      	add	r3, r2
 8002cf8:	789a      	ldrb	r2, [r3, #2]
 8002cfa:	7bfb      	ldrb	r3, [r7, #15]
 8002cfc:	6879      	ldr	r1, [r7, #4]
 8002cfe:	009b      	lsls	r3, r3, #2
 8002d00:	440b      	add	r3, r1
 8002d02:	78db      	ldrb	r3, [r3, #3]
 8002d04:	4053      	eors	r3, r2
 8002d06:	733b      	strb	r3, [r7, #12]
 8002d08:	7b3b      	ldrb	r3, [r7, #12]
 8002d0a:	4618      	mov	r0, r3
 8002d0c:	f7ff ff6a 	bl	8002be4 <xtime>
 8002d10:	4603      	mov	r3, r0
 8002d12:	733b      	strb	r3, [r7, #12]
 8002d14:	7bfb      	ldrb	r3, [r7, #15]
 8002d16:	687a      	ldr	r2, [r7, #4]
 8002d18:	009b      	lsls	r3, r3, #2
 8002d1a:	4413      	add	r3, r2
 8002d1c:	7899      	ldrb	r1, [r3, #2]
 8002d1e:	7b3a      	ldrb	r2, [r7, #12]
 8002d20:	7b7b      	ldrb	r3, [r7, #13]
 8002d22:	4053      	eors	r3, r2
 8002d24:	b2da      	uxtb	r2, r3
 8002d26:	7bfb      	ldrb	r3, [r7, #15]
 8002d28:	404a      	eors	r2, r1
 8002d2a:	b2d1      	uxtb	r1, r2
 8002d2c:	687a      	ldr	r2, [r7, #4]
 8002d2e:	009b      	lsls	r3, r3, #2
 8002d30:	4413      	add	r3, r2
 8002d32:	460a      	mov	r2, r1
 8002d34:	709a      	strb	r2, [r3, #2]
    Tm  = (*state)[i][3] ^ t ;              Tm = xtime(Tm);  (*state)[i][3] ^= Tm ^ Tmp ;
 8002d36:	7bfb      	ldrb	r3, [r7, #15]
 8002d38:	687a      	ldr	r2, [r7, #4]
 8002d3a:	009b      	lsls	r3, r3, #2
 8002d3c:	4413      	add	r3, r2
 8002d3e:	78da      	ldrb	r2, [r3, #3]
 8002d40:	7bbb      	ldrb	r3, [r7, #14]
 8002d42:	4053      	eors	r3, r2
 8002d44:	733b      	strb	r3, [r7, #12]
 8002d46:	7b3b      	ldrb	r3, [r7, #12]
 8002d48:	4618      	mov	r0, r3
 8002d4a:	f7ff ff4b 	bl	8002be4 <xtime>
 8002d4e:	4603      	mov	r3, r0
 8002d50:	733b      	strb	r3, [r7, #12]
 8002d52:	7bfb      	ldrb	r3, [r7, #15]
 8002d54:	687a      	ldr	r2, [r7, #4]
 8002d56:	009b      	lsls	r3, r3, #2
 8002d58:	4413      	add	r3, r2
 8002d5a:	78d9      	ldrb	r1, [r3, #3]
 8002d5c:	7b3a      	ldrb	r2, [r7, #12]
 8002d5e:	7b7b      	ldrb	r3, [r7, #13]
 8002d60:	4053      	eors	r3, r2
 8002d62:	b2da      	uxtb	r2, r3
 8002d64:	7bfb      	ldrb	r3, [r7, #15]
 8002d66:	404a      	eors	r2, r1
 8002d68:	b2d1      	uxtb	r1, r2
 8002d6a:	687a      	ldr	r2, [r7, #4]
 8002d6c:	009b      	lsls	r3, r3, #2
 8002d6e:	4413      	add	r3, r2
 8002d70:	460a      	mov	r2, r1
 8002d72:	70da      	strb	r2, [r3, #3]
  for (i = 0; i < 4; ++i)
 8002d74:	7bfb      	ldrb	r3, [r7, #15]
 8002d76:	3301      	adds	r3, #1
 8002d78:	73fb      	strb	r3, [r7, #15]
 8002d7a:	7bfb      	ldrb	r3, [r7, #15]
 8002d7c:	2b03      	cmp	r3, #3
 8002d7e:	f67f af57 	bls.w	8002c30 <MixColumns+0xe>
  }
}
 8002d82:	bf00      	nop
 8002d84:	bf00      	nop
 8002d86:	3710      	adds	r7, #16
 8002d88:	46bd      	mov	sp, r7
 8002d8a:	bd80      	pop	{r7, pc}

08002d8c <InvMixColumns>:

// MixColumns function mixes the columns of the state matrix.
// The method used to multiply may be difficult to understand for the inexperienced.
// Please use the references to gain more information.
static void InvMixColumns(state_t* state)
{
 8002d8c:	b5b0      	push	{r4, r5, r7, lr}
 8002d8e:	b084      	sub	sp, #16
 8002d90:	af00      	add	r7, sp, #0
 8002d92:	6078      	str	r0, [r7, #4]
  int i;
  uint8_t a, b, c, d;
  for (i = 0; i < 4; ++i)
 8002d94:	2300      	movs	r3, #0
 8002d96:	60fb      	str	r3, [r7, #12]
 8002d98:	e33b      	b.n	8003412 <InvMixColumns+0x686>
  { 
    a = (*state)[i][0];
 8002d9a:	687b      	ldr	r3, [r7, #4]
 8002d9c:	68fa      	ldr	r2, [r7, #12]
 8002d9e:	f813 3022 	ldrb.w	r3, [r3, r2, lsl #2]
 8002da2:	72fb      	strb	r3, [r7, #11]
    b = (*state)[i][1];
 8002da4:	687a      	ldr	r2, [r7, #4]
 8002da6:	68fb      	ldr	r3, [r7, #12]
 8002da8:	009b      	lsls	r3, r3, #2
 8002daa:	4413      	add	r3, r2
 8002dac:	785b      	ldrb	r3, [r3, #1]
 8002dae:	72bb      	strb	r3, [r7, #10]
    c = (*state)[i][2];
 8002db0:	687a      	ldr	r2, [r7, #4]
 8002db2:	68fb      	ldr	r3, [r7, #12]
 8002db4:	009b      	lsls	r3, r3, #2
 8002db6:	4413      	add	r3, r2
 8002db8:	789b      	ldrb	r3, [r3, #2]
 8002dba:	727b      	strb	r3, [r7, #9]
    d = (*state)[i][3];
 8002dbc:	687a      	ldr	r2, [r7, #4]
 8002dbe:	68fb      	ldr	r3, [r7, #12]
 8002dc0:	009b      	lsls	r3, r3, #2
 8002dc2:	4413      	add	r3, r2
 8002dc4:	78db      	ldrb	r3, [r3, #3]
 8002dc6:	723b      	strb	r3, [r7, #8]

    (*state)[i][0] = Multiply(a, 0x0e) ^ Multiply(b, 0x0b) ^ Multiply(c, 0x0d) ^ Multiply(d, 0x09);
 8002dc8:	7afb      	ldrb	r3, [r7, #11]
 8002dca:	4618      	mov	r0, r3
 8002dcc:	f7ff ff0a 	bl	8002be4 <xtime>
 8002dd0:	4603      	mov	r3, r0
 8002dd2:	4618      	mov	r0, r3
 8002dd4:	f7ff ff06 	bl	8002be4 <xtime>
 8002dd8:	4603      	mov	r3, r0
 8002dda:	4618      	mov	r0, r3
 8002ddc:	f7ff ff02 	bl	8002be4 <xtime>
 8002de0:	4603      	mov	r3, r0
 8002de2:	4618      	mov	r0, r3
 8002de4:	f7ff fefe 	bl	8002be4 <xtime>
 8002de8:	7abb      	ldrb	r3, [r7, #10]
 8002dea:	4618      	mov	r0, r3
 8002dec:	f7ff fefa 	bl	8002be4 <xtime>
 8002df0:	4603      	mov	r3, r0
 8002df2:	4618      	mov	r0, r3
 8002df4:	f7ff fef6 	bl	8002be4 <xtime>
 8002df8:	7abb      	ldrb	r3, [r7, #10]
 8002dfa:	4618      	mov	r0, r3
 8002dfc:	f7ff fef2 	bl	8002be4 <xtime>
 8002e00:	4603      	mov	r3, r0
 8002e02:	4618      	mov	r0, r3
 8002e04:	f7ff feee 	bl	8002be4 <xtime>
 8002e08:	4603      	mov	r3, r0
 8002e0a:	4618      	mov	r0, r3
 8002e0c:	f7ff feea 	bl	8002be4 <xtime>
 8002e10:	4603      	mov	r3, r0
 8002e12:	4618      	mov	r0, r3
 8002e14:	f7ff fee6 	bl	8002be4 <xtime>
 8002e18:	7a7b      	ldrb	r3, [r7, #9]
 8002e1a:	4618      	mov	r0, r3
 8002e1c:	f7ff fee2 	bl	8002be4 <xtime>
 8002e20:	7a7b      	ldrb	r3, [r7, #9]
 8002e22:	4618      	mov	r0, r3
 8002e24:	f7ff fede 	bl	8002be4 <xtime>
 8002e28:	4603      	mov	r3, r0
 8002e2a:	4618      	mov	r0, r3
 8002e2c:	f7ff feda 	bl	8002be4 <xtime>
 8002e30:	4603      	mov	r3, r0
 8002e32:	4618      	mov	r0, r3
 8002e34:	f7ff fed6 	bl	8002be4 <xtime>
 8002e38:	4603      	mov	r3, r0
 8002e3a:	4618      	mov	r0, r3
 8002e3c:	f7ff fed2 	bl	8002be4 <xtime>
 8002e40:	7a3b      	ldrb	r3, [r7, #8]
 8002e42:	4618      	mov	r0, r3
 8002e44:	f7ff fece 	bl	8002be4 <xtime>
 8002e48:	7a3b      	ldrb	r3, [r7, #8]
 8002e4a:	4618      	mov	r0, r3
 8002e4c:	f7ff feca 	bl	8002be4 <xtime>
 8002e50:	4603      	mov	r3, r0
 8002e52:	4618      	mov	r0, r3
 8002e54:	f7ff fec6 	bl	8002be4 <xtime>
 8002e58:	7a3b      	ldrb	r3, [r7, #8]
 8002e5a:	4618      	mov	r0, r3
 8002e5c:	f7ff fec2 	bl	8002be4 <xtime>
 8002e60:	4603      	mov	r3, r0
 8002e62:	4618      	mov	r0, r3
 8002e64:	f7ff febe 	bl	8002be4 <xtime>
 8002e68:	4603      	mov	r3, r0
 8002e6a:	4618      	mov	r0, r3
 8002e6c:	f7ff feba 	bl	8002be4 <xtime>
 8002e70:	4603      	mov	r3, r0
 8002e72:	4618      	mov	r0, r3
 8002e74:	f7ff feb6 	bl	8002be4 <xtime>
 8002e78:	7afb      	ldrb	r3, [r7, #11]
 8002e7a:	4618      	mov	r0, r3
 8002e7c:	f7ff feb2 	bl	8002be4 <xtime>
 8002e80:	4603      	mov	r3, r0
 8002e82:	461c      	mov	r4, r3
 8002e84:	7afb      	ldrb	r3, [r7, #11]
 8002e86:	4618      	mov	r0, r3
 8002e88:	f7ff feac 	bl	8002be4 <xtime>
 8002e8c:	4603      	mov	r3, r0
 8002e8e:	4618      	mov	r0, r3
 8002e90:	f7ff fea8 	bl	8002be4 <xtime>
 8002e94:	4603      	mov	r3, r0
 8002e96:	4063      	eors	r3, r4
 8002e98:	b2dc      	uxtb	r4, r3
 8002e9a:	7afb      	ldrb	r3, [r7, #11]
 8002e9c:	4618      	mov	r0, r3
 8002e9e:	f7ff fea1 	bl	8002be4 <xtime>
 8002ea2:	4603      	mov	r3, r0
 8002ea4:	4618      	mov	r0, r3
 8002ea6:	f7ff fe9d 	bl	8002be4 <xtime>
 8002eaa:	4603      	mov	r3, r0
 8002eac:	4618      	mov	r0, r3
 8002eae:	f7ff fe99 	bl	8002be4 <xtime>
 8002eb2:	4603      	mov	r3, r0
 8002eb4:	4063      	eors	r3, r4
 8002eb6:	b2dc      	uxtb	r4, r3
 8002eb8:	7abb      	ldrb	r3, [r7, #10]
 8002eba:	4618      	mov	r0, r3
 8002ebc:	f7ff fe92 	bl	8002be4 <xtime>
 8002ec0:	4603      	mov	r3, r0
 8002ec2:	461a      	mov	r2, r3
 8002ec4:	7abb      	ldrb	r3, [r7, #10]
 8002ec6:	4053      	eors	r3, r2
 8002ec8:	b2dd      	uxtb	r5, r3
 8002eca:	7abb      	ldrb	r3, [r7, #10]
 8002ecc:	4618      	mov	r0, r3
 8002ece:	f7ff fe89 	bl	8002be4 <xtime>
 8002ed2:	4603      	mov	r3, r0
 8002ed4:	4618      	mov	r0, r3
 8002ed6:	f7ff fe85 	bl	8002be4 <xtime>
 8002eda:	4603      	mov	r3, r0
 8002edc:	4618      	mov	r0, r3
 8002ede:	f7ff fe81 	bl	8002be4 <xtime>
 8002ee2:	4603      	mov	r3, r0
 8002ee4:	406b      	eors	r3, r5
 8002ee6:	b2db      	uxtb	r3, r3
 8002ee8:	4063      	eors	r3, r4
 8002eea:	b2dc      	uxtb	r4, r3
 8002eec:	7a7b      	ldrb	r3, [r7, #9]
 8002eee:	4618      	mov	r0, r3
 8002ef0:	f7ff fe78 	bl	8002be4 <xtime>
 8002ef4:	4603      	mov	r3, r0
 8002ef6:	4618      	mov	r0, r3
 8002ef8:	f7ff fe74 	bl	8002be4 <xtime>
 8002efc:	4603      	mov	r3, r0
 8002efe:	461a      	mov	r2, r3
 8002f00:	7a7b      	ldrb	r3, [r7, #9]
 8002f02:	4053      	eors	r3, r2
 8002f04:	b2dd      	uxtb	r5, r3
 8002f06:	7a7b      	ldrb	r3, [r7, #9]
 8002f08:	4618      	mov	r0, r3
 8002f0a:	f7ff fe6b 	bl	8002be4 <xtime>
 8002f0e:	4603      	mov	r3, r0
 8002f10:	4618      	mov	r0, r3
 8002f12:	f7ff fe67 	bl	8002be4 <xtime>
 8002f16:	4603      	mov	r3, r0
 8002f18:	4618      	mov	r0, r3
 8002f1a:	f7ff fe63 	bl	8002be4 <xtime>
 8002f1e:	4603      	mov	r3, r0
 8002f20:	406b      	eors	r3, r5
 8002f22:	b2db      	uxtb	r3, r3
 8002f24:	4063      	eors	r3, r4
 8002f26:	b2dc      	uxtb	r4, r3
 8002f28:	7a3b      	ldrb	r3, [r7, #8]
 8002f2a:	4618      	mov	r0, r3
 8002f2c:	f7ff fe5a 	bl	8002be4 <xtime>
 8002f30:	4603      	mov	r3, r0
 8002f32:	4618      	mov	r0, r3
 8002f34:	f7ff fe56 	bl	8002be4 <xtime>
 8002f38:	4603      	mov	r3, r0
 8002f3a:	4618      	mov	r0, r3
 8002f3c:	f7ff fe52 	bl	8002be4 <xtime>
 8002f40:	4603      	mov	r3, r0
 8002f42:	461a      	mov	r2, r3
 8002f44:	7a3b      	ldrb	r3, [r7, #8]
 8002f46:	4053      	eors	r3, r2
 8002f48:	b2db      	uxtb	r3, r3
 8002f4a:	4063      	eors	r3, r4
 8002f4c:	b2d9      	uxtb	r1, r3
 8002f4e:	687b      	ldr	r3, [r7, #4]
 8002f50:	68fa      	ldr	r2, [r7, #12]
 8002f52:	f803 1022 	strb.w	r1, [r3, r2, lsl #2]
    (*state)[i][1] = Multiply(a, 0x09) ^ Multiply(b, 0x0e) ^ Multiply(c, 0x0b) ^ Multiply(d, 0x0d);
 8002f56:	7afb      	ldrb	r3, [r7, #11]
 8002f58:	4618      	mov	r0, r3
 8002f5a:	f7ff fe43 	bl	8002be4 <xtime>
 8002f5e:	7afb      	ldrb	r3, [r7, #11]
 8002f60:	4618      	mov	r0, r3
 8002f62:	f7ff fe3f 	bl	8002be4 <xtime>
 8002f66:	4603      	mov	r3, r0
 8002f68:	4618      	mov	r0, r3
 8002f6a:	f7ff fe3b 	bl	8002be4 <xtime>
 8002f6e:	7afb      	ldrb	r3, [r7, #11]
 8002f70:	4618      	mov	r0, r3
 8002f72:	f7ff fe37 	bl	8002be4 <xtime>
 8002f76:	4603      	mov	r3, r0
 8002f78:	4618      	mov	r0, r3
 8002f7a:	f7ff fe33 	bl	8002be4 <xtime>
 8002f7e:	4603      	mov	r3, r0
 8002f80:	4618      	mov	r0, r3
 8002f82:	f7ff fe2f 	bl	8002be4 <xtime>
 8002f86:	4603      	mov	r3, r0
 8002f88:	4618      	mov	r0, r3
 8002f8a:	f7ff fe2b 	bl	8002be4 <xtime>
 8002f8e:	7abb      	ldrb	r3, [r7, #10]
 8002f90:	4618      	mov	r0, r3
 8002f92:	f7ff fe27 	bl	8002be4 <xtime>
 8002f96:	4603      	mov	r3, r0
 8002f98:	4618      	mov	r0, r3
 8002f9a:	f7ff fe23 	bl	8002be4 <xtime>
 8002f9e:	4603      	mov	r3, r0
 8002fa0:	4618      	mov	r0, r3
 8002fa2:	f7ff fe1f 	bl	8002be4 <xtime>
 8002fa6:	4603      	mov	r3, r0
 8002fa8:	4618      	mov	r0, r3
 8002faa:	f7ff fe1b 	bl	8002be4 <xtime>
 8002fae:	7a7b      	ldrb	r3, [r7, #9]
 8002fb0:	4618      	mov	r0, r3
 8002fb2:	f7ff fe17 	bl	8002be4 <xtime>
 8002fb6:	4603      	mov	r3, r0
 8002fb8:	4618      	mov	r0, r3
 8002fba:	f7ff fe13 	bl	8002be4 <xtime>
 8002fbe:	7a7b      	ldrb	r3, [r7, #9]
 8002fc0:	4618      	mov	r0, r3
 8002fc2:	f7ff fe0f 	bl	8002be4 <xtime>
 8002fc6:	4603      	mov	r3, r0
 8002fc8:	4618      	mov	r0, r3
 8002fca:	f7ff fe0b 	bl	8002be4 <xtime>
 8002fce:	4603      	mov	r3, r0
 8002fd0:	4618      	mov	r0, r3
 8002fd2:	f7ff fe07 	bl	8002be4 <xtime>
 8002fd6:	4603      	mov	r3, r0
 8002fd8:	4618      	mov	r0, r3
 8002fda:	f7ff fe03 	bl	8002be4 <xtime>
 8002fde:	7a3b      	ldrb	r3, [r7, #8]
 8002fe0:	4618      	mov	r0, r3
 8002fe2:	f7ff fdff 	bl	8002be4 <xtime>
 8002fe6:	7a3b      	ldrb	r3, [r7, #8]
 8002fe8:	4618      	mov	r0, r3
 8002fea:	f7ff fdfb 	bl	8002be4 <xtime>
 8002fee:	4603      	mov	r3, r0
 8002ff0:	4618      	mov	r0, r3
 8002ff2:	f7ff fdf7 	bl	8002be4 <xtime>
 8002ff6:	4603      	mov	r3, r0
 8002ff8:	4618      	mov	r0, r3
 8002ffa:	f7ff fdf3 	bl	8002be4 <xtime>
 8002ffe:	4603      	mov	r3, r0
 8003000:	4618      	mov	r0, r3
 8003002:	f7ff fdef 	bl	8002be4 <xtime>
 8003006:	7afb      	ldrb	r3, [r7, #11]
 8003008:	4618      	mov	r0, r3
 800300a:	f7ff fdeb 	bl	8002be4 <xtime>
 800300e:	4603      	mov	r3, r0
 8003010:	4618      	mov	r0, r3
 8003012:	f7ff fde7 	bl	8002be4 <xtime>
 8003016:	4603      	mov	r3, r0
 8003018:	4618      	mov	r0, r3
 800301a:	f7ff fde3 	bl	8002be4 <xtime>
 800301e:	4603      	mov	r3, r0
 8003020:	461a      	mov	r2, r3
 8003022:	7afb      	ldrb	r3, [r7, #11]
 8003024:	4053      	eors	r3, r2
 8003026:	b2dc      	uxtb	r4, r3
 8003028:	7abb      	ldrb	r3, [r7, #10]
 800302a:	4618      	mov	r0, r3
 800302c:	f7ff fdda 	bl	8002be4 <xtime>
 8003030:	4603      	mov	r3, r0
 8003032:	461d      	mov	r5, r3
 8003034:	7abb      	ldrb	r3, [r7, #10]
 8003036:	4618      	mov	r0, r3
 8003038:	f7ff fdd4 	bl	8002be4 <xtime>
 800303c:	4603      	mov	r3, r0
 800303e:	4618      	mov	r0, r3
 8003040:	f7ff fdd0 	bl	8002be4 <xtime>
 8003044:	4603      	mov	r3, r0
 8003046:	406b      	eors	r3, r5
 8003048:	b2dd      	uxtb	r5, r3
 800304a:	7abb      	ldrb	r3, [r7, #10]
 800304c:	4618      	mov	r0, r3
 800304e:	f7ff fdc9 	bl	8002be4 <xtime>
 8003052:	4603      	mov	r3, r0
 8003054:	4618      	mov	r0, r3
 8003056:	f7ff fdc5 	bl	8002be4 <xtime>
 800305a:	4603      	mov	r3, r0
 800305c:	4618      	mov	r0, r3
 800305e:	f7ff fdc1 	bl	8002be4 <xtime>
 8003062:	4603      	mov	r3, r0
 8003064:	406b      	eors	r3, r5
 8003066:	b2db      	uxtb	r3, r3
 8003068:	4063      	eors	r3, r4
 800306a:	b2dc      	uxtb	r4, r3
 800306c:	7a7b      	ldrb	r3, [r7, #9]
 800306e:	4618      	mov	r0, r3
 8003070:	f7ff fdb8 	bl	8002be4 <xtime>
 8003074:	4603      	mov	r3, r0
 8003076:	461a      	mov	r2, r3
 8003078:	7a7b      	ldrb	r3, [r7, #9]
 800307a:	4053      	eors	r3, r2
 800307c:	b2dd      	uxtb	r5, r3
 800307e:	7a7b      	ldrb	r3, [r7, #9]
 8003080:	4618      	mov	r0, r3
 8003082:	f7ff fdaf 	bl	8002be4 <xtime>
 8003086:	4603      	mov	r3, r0
 8003088:	4618      	mov	r0, r3
 800308a:	f7ff fdab 	bl	8002be4 <xtime>
 800308e:	4603      	mov	r3, r0
 8003090:	4618      	mov	r0, r3
 8003092:	f7ff fda7 	bl	8002be4 <xtime>
 8003096:	4603      	mov	r3, r0
 8003098:	406b      	eors	r3, r5
 800309a:	b2db      	uxtb	r3, r3
 800309c:	4063      	eors	r3, r4
 800309e:	b2dc      	uxtb	r4, r3
 80030a0:	7a3b      	ldrb	r3, [r7, #8]
 80030a2:	4618      	mov	r0, r3
 80030a4:	f7ff fd9e 	bl	8002be4 <xtime>
 80030a8:	4603      	mov	r3, r0
 80030aa:	4618      	mov	r0, r3
 80030ac:	f7ff fd9a 	bl	8002be4 <xtime>
 80030b0:	4603      	mov	r3, r0
 80030b2:	461a      	mov	r2, r3
 80030b4:	7a3b      	ldrb	r3, [r7, #8]
 80030b6:	4053      	eors	r3, r2
 80030b8:	b2dd      	uxtb	r5, r3
 80030ba:	7a3b      	ldrb	r3, [r7, #8]
 80030bc:	4618      	mov	r0, r3
 80030be:	f7ff fd91 	bl	8002be4 <xtime>
 80030c2:	4603      	mov	r3, r0
 80030c4:	4618      	mov	r0, r3
 80030c6:	f7ff fd8d 	bl	8002be4 <xtime>
 80030ca:	4603      	mov	r3, r0
 80030cc:	4618      	mov	r0, r3
 80030ce:	f7ff fd89 	bl	8002be4 <xtime>
 80030d2:	4603      	mov	r3, r0
 80030d4:	406b      	eors	r3, r5
 80030d6:	b2db      	uxtb	r3, r3
 80030d8:	4063      	eors	r3, r4
 80030da:	b2d9      	uxtb	r1, r3
 80030dc:	687a      	ldr	r2, [r7, #4]
 80030de:	68fb      	ldr	r3, [r7, #12]
 80030e0:	009b      	lsls	r3, r3, #2
 80030e2:	4413      	add	r3, r2
 80030e4:	460a      	mov	r2, r1
 80030e6:	705a      	strb	r2, [r3, #1]
    (*state)[i][2] = Multiply(a, 0x0d) ^ Multiply(b, 0x09) ^ Multiply(c, 0x0e) ^ Multiply(d, 0x0b);
 80030e8:	7afb      	ldrb	r3, [r7, #11]
 80030ea:	4618      	mov	r0, r3
 80030ec:	f7ff fd7a 	bl	8002be4 <xtime>
 80030f0:	7afb      	ldrb	r3, [r7, #11]
 80030f2:	4618      	mov	r0, r3
 80030f4:	f7ff fd76 	bl	8002be4 <xtime>
 80030f8:	4603      	mov	r3, r0
 80030fa:	4618      	mov	r0, r3
 80030fc:	f7ff fd72 	bl	8002be4 <xtime>
 8003100:	4603      	mov	r3, r0
 8003102:	4618      	mov	r0, r3
 8003104:	f7ff fd6e 	bl	8002be4 <xtime>
 8003108:	4603      	mov	r3, r0
 800310a:	4618      	mov	r0, r3
 800310c:	f7ff fd6a 	bl	8002be4 <xtime>
 8003110:	7abb      	ldrb	r3, [r7, #10]
 8003112:	4618      	mov	r0, r3
 8003114:	f7ff fd66 	bl	8002be4 <xtime>
 8003118:	7abb      	ldrb	r3, [r7, #10]
 800311a:	4618      	mov	r0, r3
 800311c:	f7ff fd62 	bl	8002be4 <xtime>
 8003120:	4603      	mov	r3, r0
 8003122:	4618      	mov	r0, r3
 8003124:	f7ff fd5e 	bl	8002be4 <xtime>
 8003128:	7abb      	ldrb	r3, [r7, #10]
 800312a:	4618      	mov	r0, r3
 800312c:	f7ff fd5a 	bl	8002be4 <xtime>
 8003130:	4603      	mov	r3, r0
 8003132:	4618      	mov	r0, r3
 8003134:	f7ff fd56 	bl	8002be4 <xtime>
 8003138:	4603      	mov	r3, r0
 800313a:	4618      	mov	r0, r3
 800313c:	f7ff fd52 	bl	8002be4 <xtime>
 8003140:	4603      	mov	r3, r0
 8003142:	4618      	mov	r0, r3
 8003144:	f7ff fd4e 	bl	8002be4 <xtime>
 8003148:	7a7b      	ldrb	r3, [r7, #9]
 800314a:	4618      	mov	r0, r3
 800314c:	f7ff fd4a 	bl	8002be4 <xtime>
 8003150:	4603      	mov	r3, r0
 8003152:	4618      	mov	r0, r3
 8003154:	f7ff fd46 	bl	8002be4 <xtime>
 8003158:	4603      	mov	r3, r0
 800315a:	4618      	mov	r0, r3
 800315c:	f7ff fd42 	bl	8002be4 <xtime>
 8003160:	4603      	mov	r3, r0
 8003162:	4618      	mov	r0, r3
 8003164:	f7ff fd3e 	bl	8002be4 <xtime>
 8003168:	7a3b      	ldrb	r3, [r7, #8]
 800316a:	4618      	mov	r0, r3
 800316c:	f7ff fd3a 	bl	8002be4 <xtime>
 8003170:	4603      	mov	r3, r0
 8003172:	4618      	mov	r0, r3
 8003174:	f7ff fd36 	bl	8002be4 <xtime>
 8003178:	7a3b      	ldrb	r3, [r7, #8]
 800317a:	4618      	mov	r0, r3
 800317c:	f7ff fd32 	bl	8002be4 <xtime>
 8003180:	4603      	mov	r3, r0
 8003182:	4618      	mov	r0, r3
 8003184:	f7ff fd2e 	bl	8002be4 <xtime>
 8003188:	4603      	mov	r3, r0
 800318a:	4618      	mov	r0, r3
 800318c:	f7ff fd2a 	bl	8002be4 <xtime>
 8003190:	4603      	mov	r3, r0
 8003192:	4618      	mov	r0, r3
 8003194:	f7ff fd26 	bl	8002be4 <xtime>
 8003198:	7afb      	ldrb	r3, [r7, #11]
 800319a:	4618      	mov	r0, r3
 800319c:	f7ff fd22 	bl	8002be4 <xtime>
 80031a0:	4603      	mov	r3, r0
 80031a2:	4618      	mov	r0, r3
 80031a4:	f7ff fd1e 	bl	8002be4 <xtime>
 80031a8:	4603      	mov	r3, r0
 80031aa:	461a      	mov	r2, r3
 80031ac:	7afb      	ldrb	r3, [r7, #11]
 80031ae:	4053      	eors	r3, r2
 80031b0:	b2dc      	uxtb	r4, r3
 80031b2:	7afb      	ldrb	r3, [r7, #11]
 80031b4:	4618      	mov	r0, r3
 80031b6:	f7ff fd15 	bl	8002be4 <xtime>
 80031ba:	4603      	mov	r3, r0
 80031bc:	4618      	mov	r0, r3
 80031be:	f7ff fd11 	bl	8002be4 <xtime>
 80031c2:	4603      	mov	r3, r0
 80031c4:	4618      	mov	r0, r3
 80031c6:	f7ff fd0d 	bl	8002be4 <xtime>
 80031ca:	4603      	mov	r3, r0
 80031cc:	4063      	eors	r3, r4
 80031ce:	b2dc      	uxtb	r4, r3
 80031d0:	7abb      	ldrb	r3, [r7, #10]
 80031d2:	4618      	mov	r0, r3
 80031d4:	f7ff fd06 	bl	8002be4 <xtime>
 80031d8:	4603      	mov	r3, r0
 80031da:	4618      	mov	r0, r3
 80031dc:	f7ff fd02 	bl	8002be4 <xtime>
 80031e0:	4603      	mov	r3, r0
 80031e2:	4618      	mov	r0, r3
 80031e4:	f7ff fcfe 	bl	8002be4 <xtime>
 80031e8:	4603      	mov	r3, r0
 80031ea:	461a      	mov	r2, r3
 80031ec:	7abb      	ldrb	r3, [r7, #10]
 80031ee:	4053      	eors	r3, r2
 80031f0:	b2db      	uxtb	r3, r3
 80031f2:	4063      	eors	r3, r4
 80031f4:	b2dc      	uxtb	r4, r3
 80031f6:	7a7b      	ldrb	r3, [r7, #9]
 80031f8:	4618      	mov	r0, r3
 80031fa:	f7ff fcf3 	bl	8002be4 <xtime>
 80031fe:	4603      	mov	r3, r0
 8003200:	461d      	mov	r5, r3
 8003202:	7a7b      	ldrb	r3, [r7, #9]
 8003204:	4618      	mov	r0, r3
 8003206:	f7ff fced 	bl	8002be4 <xtime>
 800320a:	4603      	mov	r3, r0
 800320c:	4618      	mov	r0, r3
 800320e:	f7ff fce9 	bl	8002be4 <xtime>
 8003212:	4603      	mov	r3, r0
 8003214:	406b      	eors	r3, r5
 8003216:	b2dd      	uxtb	r5, r3
 8003218:	7a7b      	ldrb	r3, [r7, #9]
 800321a:	4618      	mov	r0, r3
 800321c:	f7ff fce2 	bl	8002be4 <xtime>
 8003220:	4603      	mov	r3, r0
 8003222:	4618      	mov	r0, r3
 8003224:	f7ff fcde 	bl	8002be4 <xtime>
 8003228:	4603      	mov	r3, r0
 800322a:	4618      	mov	r0, r3
 800322c:	f7ff fcda 	bl	8002be4 <xtime>
 8003230:	4603      	mov	r3, r0
 8003232:	406b      	eors	r3, r5
 8003234:	b2db      	uxtb	r3, r3
 8003236:	4063      	eors	r3, r4
 8003238:	b2dc      	uxtb	r4, r3
 800323a:	7a3b      	ldrb	r3, [r7, #8]
 800323c:	4618      	mov	r0, r3
 800323e:	f7ff fcd1 	bl	8002be4 <xtime>
 8003242:	4603      	mov	r3, r0
 8003244:	461a      	mov	r2, r3
 8003246:	7a3b      	ldrb	r3, [r7, #8]
 8003248:	4053      	eors	r3, r2
 800324a:	b2dd      	uxtb	r5, r3
 800324c:	7a3b      	ldrb	r3, [r7, #8]
 800324e:	4618      	mov	r0, r3
 8003250:	f7ff fcc8 	bl	8002be4 <xtime>
 8003254:	4603      	mov	r3, r0
 8003256:	4618      	mov	r0, r3
 8003258:	f7ff fcc4 	bl	8002be4 <xtime>
 800325c:	4603      	mov	r3, r0
 800325e:	4618      	mov	r0, r3
 8003260:	f7ff fcc0 	bl	8002be4 <xtime>
 8003264:	4603      	mov	r3, r0
 8003266:	406b      	eors	r3, r5
 8003268:	b2db      	uxtb	r3, r3
 800326a:	4063      	eors	r3, r4
 800326c:	b2d9      	uxtb	r1, r3
 800326e:	687a      	ldr	r2, [r7, #4]
 8003270:	68fb      	ldr	r3, [r7, #12]
 8003272:	009b      	lsls	r3, r3, #2
 8003274:	4413      	add	r3, r2
 8003276:	460a      	mov	r2, r1
 8003278:	709a      	strb	r2, [r3, #2]
    (*state)[i][3] = Multiply(a, 0x0b) ^ Multiply(b, 0x0d) ^ Multiply(c, 0x09) ^ Multiply(d, 0x0e);
 800327a:	7afb      	ldrb	r3, [r7, #11]
 800327c:	4618      	mov	r0, r3
 800327e:	f7ff fcb1 	bl	8002be4 <xtime>
 8003282:	4603      	mov	r3, r0
 8003284:	4618      	mov	r0, r3
 8003286:	f7ff fcad 	bl	8002be4 <xtime>
 800328a:	7afb      	ldrb	r3, [r7, #11]
 800328c:	4618      	mov	r0, r3
 800328e:	f7ff fca9 	bl	8002be4 <xtime>
 8003292:	4603      	mov	r3, r0
 8003294:	4618      	mov	r0, r3
 8003296:	f7ff fca5 	bl	8002be4 <xtime>
 800329a:	4603      	mov	r3, r0
 800329c:	4618      	mov	r0, r3
 800329e:	f7ff fca1 	bl	8002be4 <xtime>
 80032a2:	4603      	mov	r3, r0
 80032a4:	4618      	mov	r0, r3
 80032a6:	f7ff fc9d 	bl	8002be4 <xtime>
 80032aa:	7abb      	ldrb	r3, [r7, #10]
 80032ac:	4618      	mov	r0, r3
 80032ae:	f7ff fc99 	bl	8002be4 <xtime>
 80032b2:	7abb      	ldrb	r3, [r7, #10]
 80032b4:	4618      	mov	r0, r3
 80032b6:	f7ff fc95 	bl	8002be4 <xtime>
 80032ba:	4603      	mov	r3, r0
 80032bc:	4618      	mov	r0, r3
 80032be:	f7ff fc91 	bl	8002be4 <xtime>
 80032c2:	4603      	mov	r3, r0
 80032c4:	4618      	mov	r0, r3
 80032c6:	f7ff fc8d 	bl	8002be4 <xtime>
 80032ca:	4603      	mov	r3, r0
 80032cc:	4618      	mov	r0, r3
 80032ce:	f7ff fc89 	bl	8002be4 <xtime>
 80032d2:	7a7b      	ldrb	r3, [r7, #9]
 80032d4:	4618      	mov	r0, r3
 80032d6:	f7ff fc85 	bl	8002be4 <xtime>
 80032da:	7a7b      	ldrb	r3, [r7, #9]
 80032dc:	4618      	mov	r0, r3
 80032de:	f7ff fc81 	bl	8002be4 <xtime>
 80032e2:	4603      	mov	r3, r0
 80032e4:	4618      	mov	r0, r3
 80032e6:	f7ff fc7d 	bl	8002be4 <xtime>
 80032ea:	7a7b      	ldrb	r3, [r7, #9]
 80032ec:	4618      	mov	r0, r3
 80032ee:	f7ff fc79 	bl	8002be4 <xtime>
 80032f2:	4603      	mov	r3, r0
 80032f4:	4618      	mov	r0, r3
 80032f6:	f7ff fc75 	bl	8002be4 <xtime>
 80032fa:	4603      	mov	r3, r0
 80032fc:	4618      	mov	r0, r3
 80032fe:	f7ff fc71 	bl	8002be4 <xtime>
 8003302:	4603      	mov	r3, r0
 8003304:	4618      	mov	r0, r3
 8003306:	f7ff fc6d 	bl	8002be4 <xtime>
 800330a:	7a3b      	ldrb	r3, [r7, #8]
 800330c:	4618      	mov	r0, r3
 800330e:	f7ff fc69 	bl	8002be4 <xtime>
 8003312:	4603      	mov	r3, r0
 8003314:	4618      	mov	r0, r3
 8003316:	f7ff fc65 	bl	8002be4 <xtime>
 800331a:	4603      	mov	r3, r0
 800331c:	4618      	mov	r0, r3
 800331e:	f7ff fc61 	bl	8002be4 <xtime>
 8003322:	4603      	mov	r3, r0
 8003324:	4618      	mov	r0, r3
 8003326:	f7ff fc5d 	bl	8002be4 <xtime>
 800332a:	7afb      	ldrb	r3, [r7, #11]
 800332c:	4618      	mov	r0, r3
 800332e:	f7ff fc59 	bl	8002be4 <xtime>
 8003332:	4603      	mov	r3, r0
 8003334:	461a      	mov	r2, r3
 8003336:	7afb      	ldrb	r3, [r7, #11]
 8003338:	4053      	eors	r3, r2
 800333a:	b2dc      	uxtb	r4, r3
 800333c:	7afb      	ldrb	r3, [r7, #11]
 800333e:	4618      	mov	r0, r3
 8003340:	f7ff fc50 	bl	8002be4 <xtime>
 8003344:	4603      	mov	r3, r0
 8003346:	4618      	mov	r0, r3
 8003348:	f7ff fc4c 	bl	8002be4 <xtime>
 800334c:	4603      	mov	r3, r0
 800334e:	4618      	mov	r0, r3
 8003350:	f7ff fc48 	bl	8002be4 <xtime>
 8003354:	4603      	mov	r3, r0
 8003356:	4063      	eors	r3, r4
 8003358:	b2dc      	uxtb	r4, r3
 800335a:	7abb      	ldrb	r3, [r7, #10]
 800335c:	4618      	mov	r0, r3
 800335e:	f7ff fc41 	bl	8002be4 <xtime>
 8003362:	4603      	mov	r3, r0
 8003364:	4618      	mov	r0, r3
 8003366:	f7ff fc3d 	bl	8002be4 <xtime>
 800336a:	4603      	mov	r3, r0
 800336c:	461a      	mov	r2, r3
 800336e:	7abb      	ldrb	r3, [r7, #10]
 8003370:	4053      	eors	r3, r2
 8003372:	b2dd      	uxtb	r5, r3
 8003374:	7abb      	ldrb	r3, [r7, #10]
 8003376:	4618      	mov	r0, r3
 8003378:	f7ff fc34 	bl	8002be4 <xtime>
 800337c:	4603      	mov	r3, r0
 800337e:	4618      	mov	r0, r3
 8003380:	f7ff fc30 	bl	8002be4 <xtime>
 8003384:	4603      	mov	r3, r0
 8003386:	4618      	mov	r0, r3
 8003388:	f7ff fc2c 	bl	8002be4 <xtime>
 800338c:	4603      	mov	r3, r0
 800338e:	406b      	eors	r3, r5
 8003390:	b2db      	uxtb	r3, r3
 8003392:	4063      	eors	r3, r4
 8003394:	b2dc      	uxtb	r4, r3
 8003396:	7a7b      	ldrb	r3, [r7, #9]
 8003398:	4618      	mov	r0, r3
 800339a:	f7ff fc23 	bl	8002be4 <xtime>
 800339e:	4603      	mov	r3, r0
 80033a0:	4618      	mov	r0, r3
 80033a2:	f7ff fc1f 	bl	8002be4 <xtime>
 80033a6:	4603      	mov	r3, r0
 80033a8:	4618      	mov	r0, r3
 80033aa:	f7ff fc1b 	bl	8002be4 <xtime>
 80033ae:	4603      	mov	r3, r0
 80033b0:	461a      	mov	r2, r3
 80033b2:	7a7b      	ldrb	r3, [r7, #9]
 80033b4:	4053      	eors	r3, r2
 80033b6:	b2db      	uxtb	r3, r3
 80033b8:	4063      	eors	r3, r4
 80033ba:	b2dc      	uxtb	r4, r3
 80033bc:	7a3b      	ldrb	r3, [r7, #8]
 80033be:	4618      	mov	r0, r3
 80033c0:	f7ff fc10 	bl	8002be4 <xtime>
 80033c4:	4603      	mov	r3, r0
 80033c6:	461d      	mov	r5, r3
 80033c8:	7a3b      	ldrb	r3, [r7, #8]
 80033ca:	4618      	mov	r0, r3
 80033cc:	f7ff fc0a 	bl	8002be4 <xtime>
 80033d0:	4603      	mov	r3, r0
 80033d2:	4618      	mov	r0, r3
 80033d4:	f7ff fc06 	bl	8002be4 <xtime>
 80033d8:	4603      	mov	r3, r0
 80033da:	406b      	eors	r3, r5
 80033dc:	b2dd      	uxtb	r5, r3
 80033de:	7a3b      	ldrb	r3, [r7, #8]
 80033e0:	4618      	mov	r0, r3
 80033e2:	f7ff fbff 	bl	8002be4 <xtime>
 80033e6:	4603      	mov	r3, r0
 80033e8:	4618      	mov	r0, r3
 80033ea:	f7ff fbfb 	bl	8002be4 <xtime>
 80033ee:	4603      	mov	r3, r0
 80033f0:	4618      	mov	r0, r3
 80033f2:	f7ff fbf7 	bl	8002be4 <xtime>
 80033f6:	4603      	mov	r3, r0
 80033f8:	406b      	eors	r3, r5
 80033fa:	b2db      	uxtb	r3, r3
 80033fc:	4063      	eors	r3, r4
 80033fe:	b2d9      	uxtb	r1, r3
 8003400:	687a      	ldr	r2, [r7, #4]
 8003402:	68fb      	ldr	r3, [r7, #12]
 8003404:	009b      	lsls	r3, r3, #2
 8003406:	4413      	add	r3, r2
 8003408:	460a      	mov	r2, r1
 800340a:	70da      	strb	r2, [r3, #3]
  for (i = 0; i < 4; ++i)
 800340c:	68fb      	ldr	r3, [r7, #12]
 800340e:	3301      	adds	r3, #1
 8003410:	60fb      	str	r3, [r7, #12]
 8003412:	68fb      	ldr	r3, [r7, #12]
 8003414:	2b03      	cmp	r3, #3
 8003416:	f77f acc0 	ble.w	8002d9a <InvMixColumns+0xe>
  }
}
 800341a:	bf00      	nop
 800341c:	bf00      	nop
 800341e:	3710      	adds	r7, #16
 8003420:	46bd      	mov	sp, r7
 8003422:	bdb0      	pop	{r4, r5, r7, pc}

08003424 <InvSubBytes>:


// The SubBytes Function Substitutes the values in the
// state matrix with values in an S-box.
static void InvSubBytes(state_t* state)
{
 8003424:	b480      	push	{r7}
 8003426:	b085      	sub	sp, #20
 8003428:	af00      	add	r7, sp, #0
 800342a:	6078      	str	r0, [r7, #4]
  uint8_t i, j;
  for (i = 0; i < 4; ++i)
 800342c:	2300      	movs	r3, #0
 800342e:	73fb      	strb	r3, [r7, #15]
 8003430:	e01d      	b.n	800346e <InvSubBytes+0x4a>
  {
    for (j = 0; j < 4; ++j)
 8003432:	2300      	movs	r3, #0
 8003434:	73bb      	strb	r3, [r7, #14]
 8003436:	e014      	b.n	8003462 <InvSubBytes+0x3e>
    {
      (*state)[j][i] = getSBoxInvert((*state)[j][i]);
 8003438:	7bba      	ldrb	r2, [r7, #14]
 800343a:	7bfb      	ldrb	r3, [r7, #15]
 800343c:	6879      	ldr	r1, [r7, #4]
 800343e:	0092      	lsls	r2, r2, #2
 8003440:	440a      	add	r2, r1
 8003442:	4413      	add	r3, r2
 8003444:	781b      	ldrb	r3, [r3, #0]
 8003446:	4618      	mov	r0, r3
 8003448:	7bba      	ldrb	r2, [r7, #14]
 800344a:	7bfb      	ldrb	r3, [r7, #15]
 800344c:	490d      	ldr	r1, [pc, #52]	@ (8003484 <InvSubBytes+0x60>)
 800344e:	5c08      	ldrb	r0, [r1, r0]
 8003450:	6879      	ldr	r1, [r7, #4]
 8003452:	0092      	lsls	r2, r2, #2
 8003454:	440a      	add	r2, r1
 8003456:	4413      	add	r3, r2
 8003458:	4602      	mov	r2, r0
 800345a:	701a      	strb	r2, [r3, #0]
    for (j = 0; j < 4; ++j)
 800345c:	7bbb      	ldrb	r3, [r7, #14]
 800345e:	3301      	adds	r3, #1
 8003460:	73bb      	strb	r3, [r7, #14]
 8003462:	7bbb      	ldrb	r3, [r7, #14]
 8003464:	2b03      	cmp	r3, #3
 8003466:	d9e7      	bls.n	8003438 <InvSubBytes+0x14>
  for (i = 0; i < 4; ++i)
 8003468:	7bfb      	ldrb	r3, [r7, #15]
 800346a:	3301      	adds	r3, #1
 800346c:	73fb      	strb	r3, [r7, #15]
 800346e:	7bfb      	ldrb	r3, [r7, #15]
 8003470:	2b03      	cmp	r3, #3
 8003472:	d9de      	bls.n	8003432 <InvSubBytes+0xe>
    }
  }
}
 8003474:	bf00      	nop
 8003476:	bf00      	nop
 8003478:	3714      	adds	r7, #20
 800347a:	46bd      	mov	sp, r7
 800347c:	f85d 7b04 	ldr.w	r7, [sp], #4
 8003480:	4770      	bx	lr
 8003482:	bf00      	nop
 8003484:	08007468 	.word	0x08007468

08003488 <InvShiftRows>:

static void InvShiftRows(state_t* state)
{
 8003488:	b480      	push	{r7}
 800348a:	b085      	sub	sp, #20
 800348c:	af00      	add	r7, sp, #0
 800348e:	6078      	str	r0, [r7, #4]
  uint8_t temp;

  // Rotate first row 1 columns to right  
  temp = (*state)[3][1];
 8003490:	687b      	ldr	r3, [r7, #4]
 8003492:	7b5b      	ldrb	r3, [r3, #13]
 8003494:	73fb      	strb	r3, [r7, #15]
  (*state)[3][1] = (*state)[2][1];
 8003496:	687b      	ldr	r3, [r7, #4]
 8003498:	7a5a      	ldrb	r2, [r3, #9]
 800349a:	687b      	ldr	r3, [r7, #4]
 800349c:	735a      	strb	r2, [r3, #13]
  (*state)[2][1] = (*state)[1][1];
 800349e:	687b      	ldr	r3, [r7, #4]
 80034a0:	795a      	ldrb	r2, [r3, #5]
 80034a2:	687b      	ldr	r3, [r7, #4]
 80034a4:	725a      	strb	r2, [r3, #9]
  (*state)[1][1] = (*state)[0][1];
 80034a6:	687b      	ldr	r3, [r7, #4]
 80034a8:	785a      	ldrb	r2, [r3, #1]
 80034aa:	687b      	ldr	r3, [r7, #4]
 80034ac:	715a      	strb	r2, [r3, #5]
  (*state)[0][1] = temp;
 80034ae:	687b      	ldr	r3, [r7, #4]
 80034b0:	7bfa      	ldrb	r2, [r7, #15]
 80034b2:	705a      	strb	r2, [r3, #1]

  // Rotate second row 2 columns to right 
  temp = (*state)[0][2];
 80034b4:	687b      	ldr	r3, [r7, #4]
 80034b6:	789b      	ldrb	r3, [r3, #2]
 80034b8:	73fb      	strb	r3, [r7, #15]
  (*state)[0][2] = (*state)[2][2];
 80034ba:	687b      	ldr	r3, [r7, #4]
 80034bc:	7a9a      	ldrb	r2, [r3, #10]
 80034be:	687b      	ldr	r3, [r7, #4]
 80034c0:	709a      	strb	r2, [r3, #2]
  (*state)[2][2] = temp;
 80034c2:	687b      	ldr	r3, [r7, #4]
 80034c4:	7bfa      	ldrb	r2, [r7, #15]
 80034c6:	729a      	strb	r2, [r3, #10]

  temp = (*state)[1][2];
 80034c8:	687b      	ldr	r3, [r7, #4]
 80034ca:	799b      	ldrb	r3, [r3, #6]
 80034cc:	73fb      	strb	r3, [r7, #15]
  (*state)[1][2] = (*state)[3][2];
 80034ce:	687b      	ldr	r3, [r7, #4]
 80034d0:	7b9a      	ldrb	r2, [r3, #14]
 80034d2:	687b      	ldr	r3, [r7, #4]
 80034d4:	719a      	strb	r2, [r3, #6]
  (*state)[3][2] = temp;
 80034d6:	687b      	ldr	r3, [r7, #4]
 80034d8:	7bfa      	ldrb	r2, [r7, #15]
 80034da:	739a      	strb	r2, [r3, #14]

  // Rotate third row 3 columns to right
  temp = (*state)[0][3];
 80034dc:	687b      	ldr	r3, [r7, #4]
 80034de:	78db      	ldrb	r3, [r3, #3]
 80034e0:	73fb      	strb	r3, [r7, #15]
  (*state)[0][3] = (*state)[1][3];
 80034e2:	687b      	ldr	r3, [r7, #4]
 80034e4:	79da      	ldrb	r2, [r3, #7]
 80034e6:	687b      	ldr	r3, [r7, #4]
 80034e8:	70da      	strb	r2, [r3, #3]
  (*state)[1][3] = (*state)[2][3];
 80034ea:	687b      	ldr	r3, [r7, #4]
 80034ec:	7ada      	ldrb	r2, [r3, #11]
 80034ee:	687b      	ldr	r3, [r7, #4]
 80034f0:	71da      	strb	r2, [r3, #7]
  (*state)[2][3] = (*state)[3][3];
 80034f2:	687b      	ldr	r3, [r7, #4]
 80034f4:	7bda      	ldrb	r2, [r3, #15]
 80034f6:	687b      	ldr	r3, [r7, #4]
 80034f8:	72da      	strb	r2, [r3, #11]
  (*state)[3][3] = temp;
 80034fa:	687b      	ldr	r3, [r7, #4]
 80034fc:	7bfa      	ldrb	r2, [r7, #15]
 80034fe:	73da      	strb	r2, [r3, #15]
}
 8003500:	bf00      	nop
 8003502:	3714      	adds	r7, #20
 8003504:	46bd      	mov	sp, r7
 8003506:	f85d 7b04 	ldr.w	r7, [sp], #4
 800350a:	4770      	bx	lr

0800350c <Cipher>:
#endif // #if (defined(CBC) && CBC == 1) || (defined(ECB) && ECB == 1)

// Cipher is the main function that encrypts the PlainText.
static void Cipher(state_t* state, const uint8_t* RoundKey)
{
 800350c:	b580      	push	{r7, lr}
 800350e:	b084      	sub	sp, #16
 8003510:	af00      	add	r7, sp, #0
 8003512:	6078      	str	r0, [r7, #4]
 8003514:	6039      	str	r1, [r7, #0]
  uint8_t round = 0;
 8003516:	2300      	movs	r3, #0
 8003518:	73fb      	strb	r3, [r7, #15]

  // Add the First round key to the state before starting the rounds.
  AddRoundKey(0, state, RoundKey);
 800351a:	683a      	ldr	r2, [r7, #0]
 800351c:	6879      	ldr	r1, [r7, #4]
 800351e:	2000      	movs	r0, #0
 8003520:	f7ff fab0 	bl	8002a84 <AddRoundKey>

  // There will be Nr rounds.
  // The first Nr-1 rounds are identical.
  // These Nr rounds are executed in the loop below.
  // Last one without MixColumns()
  for (round = 1; ; ++round)
 8003524:	2301      	movs	r3, #1
 8003526:	73fb      	strb	r3, [r7, #15]
  {
    SubBytes(state);
 8003528:	6878      	ldr	r0, [r7, #4]
 800352a:	f7ff fae7 	bl	8002afc <SubBytes>
    ShiftRows(state);
 800352e:	6878      	ldr	r0, [r7, #4]
 8003530:	f7ff fb16 	bl	8002b60 <ShiftRows>
    if (round == Nr) {
 8003534:	7bfb      	ldrb	r3, [r7, #15]
 8003536:	2b0a      	cmp	r3, #10
 8003538:	d00c      	beq.n	8003554 <Cipher+0x48>
      break;
    }
    MixColumns(state);
 800353a:	6878      	ldr	r0, [r7, #4]
 800353c:	f7ff fb71 	bl	8002c22 <MixColumns>
    AddRoundKey(round, state, RoundKey);
 8003540:	7bfb      	ldrb	r3, [r7, #15]
 8003542:	683a      	ldr	r2, [r7, #0]
 8003544:	6879      	ldr	r1, [r7, #4]
 8003546:	4618      	mov	r0, r3
 8003548:	f7ff fa9c 	bl	8002a84 <AddRoundKey>
  for (round = 1; ; ++round)
 800354c:	7bfb      	ldrb	r3, [r7, #15]
 800354e:	3301      	adds	r3, #1
 8003550:	73fb      	strb	r3, [r7, #15]
    SubBytes(state);
 8003552:	e7e9      	b.n	8003528 <Cipher+0x1c>
      break;
 8003554:	bf00      	nop
  }
  // Add round key to last round
  AddRoundKey(Nr, state, RoundKey);
 8003556:	683a      	ldr	r2, [r7, #0]
 8003558:	6879      	ldr	r1, [r7, #4]
 800355a:	200a      	movs	r0, #10
 800355c:	f7ff fa92 	bl	8002a84 <AddRoundKey>
}
 8003560:	bf00      	nop
 8003562:	3710      	adds	r7, #16
 8003564:	46bd      	mov	sp, r7
 8003566:	bd80      	pop	{r7, pc}

08003568 <InvCipher>:

#if (defined(CBC) && CBC == 1) || (defined(ECB) && ECB == 1)
static void InvCipher(state_t* state, const uint8_t* RoundKey)
{
 8003568:	b580      	push	{r7, lr}
 800356a:	b084      	sub	sp, #16
 800356c:	af00      	add	r7, sp, #0
 800356e:	6078      	str	r0, [r7, #4]
 8003570:	6039      	str	r1, [r7, #0]
  uint8_t round = 0;
 8003572:	2300      	movs	r3, #0
 8003574:	73fb      	strb	r3, [r7, #15]

  // Add the First round key to the state before starting the rounds.
  AddRoundKey(Nr, state, RoundKey);
 8003576:	683a      	ldr	r2, [r7, #0]
 8003578:	6879      	ldr	r1, [r7, #4]
 800357a:	200a      	movs	r0, #10
 800357c:	f7ff fa82 	bl	8002a84 <AddRoundKey>

  // There will be Nr rounds.
  // The first Nr-1 rounds are identical.
  // These Nr rounds are executed in the loop below.
  // Last one without InvMixColumn()
  for (round = (Nr - 1); ; --round)
 8003580:	2309      	movs	r3, #9
 8003582:	73fb      	strb	r3, [r7, #15]
  {
    InvShiftRows(state);
 8003584:	6878      	ldr	r0, [r7, #4]
 8003586:	f7ff ff7f 	bl	8003488 <InvShiftRows>
    InvSubBytes(state);
 800358a:	6878      	ldr	r0, [r7, #4]
 800358c:	f7ff ff4a 	bl	8003424 <InvSubBytes>
    AddRoundKey(round, state, RoundKey);
 8003590:	7bfb      	ldrb	r3, [r7, #15]
 8003592:	683a      	ldr	r2, [r7, #0]
 8003594:	6879      	ldr	r1, [r7, #4]
 8003596:	4618      	mov	r0, r3
 8003598:	f7ff fa74 	bl	8002a84 <AddRoundKey>
    if (round == 0) {
 800359c:	7bfb      	ldrb	r3, [r7, #15]
 800359e:	2b00      	cmp	r3, #0
 80035a0:	d006      	beq.n	80035b0 <InvCipher+0x48>
      break;
    }
    InvMixColumns(state);
 80035a2:	6878      	ldr	r0, [r7, #4]
 80035a4:	f7ff fbf2 	bl	8002d8c <InvMixColumns>
  for (round = (Nr - 1); ; --round)
 80035a8:	7bfb      	ldrb	r3, [r7, #15]
 80035aa:	3b01      	subs	r3, #1
 80035ac:	73fb      	strb	r3, [r7, #15]
    InvShiftRows(state);
 80035ae:	e7e9      	b.n	8003584 <InvCipher+0x1c>
      break;
 80035b0:	bf00      	nop
  }

}
 80035b2:	bf00      	nop
 80035b4:	3710      	adds	r7, #16
 80035b6:	46bd      	mov	sp, r7
 80035b8:	bd80      	pop	{r7, pc}

080035ba <AES_ECB_encrypt>:
/*****************************************************************************/
#if defined(ECB) && (ECB == 1)


void AES_ECB_encrypt(const struct AES_ctx* ctx, uint8_t* buf)
{
 80035ba:	b580      	push	{r7, lr}
 80035bc:	b082      	sub	sp, #8
 80035be:	af00      	add	r7, sp, #0
 80035c0:	6078      	str	r0, [r7, #4]
 80035c2:	6039      	str	r1, [r7, #0]
  // The next function call encrypts the PlainText with the Key using AES algorithm.
  Cipher((state_t*)buf, ctx->RoundKey);
 80035c4:	687b      	ldr	r3, [r7, #4]
 80035c6:	4619      	mov	r1, r3
 80035c8:	6838      	ldr	r0, [r7, #0]
 80035ca:	f7ff ff9f 	bl	800350c <Cipher>
}
 80035ce:	bf00      	nop
 80035d0:	3708      	adds	r7, #8
 80035d2:	46bd      	mov	sp, r7
 80035d4:	bd80      	pop	{r7, pc}

080035d6 <AES_ECB_decrypt>:

void AES_ECB_decrypt(const struct AES_ctx* ctx, uint8_t* buf)
{
 80035d6:	b580      	push	{r7, lr}
 80035d8:	b082      	sub	sp, #8
 80035da:	af00      	add	r7, sp, #0
 80035dc:	6078      	str	r0, [r7, #4]
 80035de:	6039      	str	r1, [r7, #0]
  // The next function call decrypts the PlainText with the Key using AES algorithm.
  InvCipher((state_t*)buf, ctx->RoundKey);
 80035e0:	687b      	ldr	r3, [r7, #4]
 80035e2:	4619      	mov	r1, r3
 80035e4:	6838      	ldr	r0, [r7, #0]
 80035e6:	f7ff ffbf 	bl	8003568 <InvCipher>
}
 80035ea:	bf00      	nop
 80035ec:	3708      	adds	r7, #8
 80035ee:	46bd      	mov	sp, r7
 80035f0:	bd80      	pop	{r7, pc}

080035f2 <LOADBYTES>:
#define GETBYTE(x, i) ((uint8_t)((uint64_t)(x) >> (8 * (i))))
#define SETBYTE(b, i) ((uint64_t)(b) << (8 * (i)))
#define PAD(i) SETBYTE(0x01u, (i))
#define DSEP() SETBYTE(0x80u, 7)

static inline uint64_t LOADBYTES(const uint8_t *bytes, int n) {
 80035f2:	e92d 03f0 	stmdb	sp!, {r4, r5, r6, r7, r8, r9}
 80035f6:	b086      	sub	sp, #24
 80035f8:	af00      	add	r7, sp, #0
 80035fa:	6078      	str	r0, [r7, #4]
 80035fc:	6039      	str	r1, [r7, #0]
    int i;
    uint64_t x = 0;
 80035fe:	f04f 0000 	mov.w	r0, #0
 8003602:	f04f 0100 	mov.w	r1, #0
 8003606:	e9c7 0102 	strd	r0, r1, [r7, #8]
    for (i = 0; i < n; ++i) {
 800360a:	2100      	movs	r1, #0
 800360c:	6179      	str	r1, [r7, #20]
 800360e:	e022      	b.n	8003656 <LOADBYTES+0x64>
        x |= SETBYTE(bytes[i], i);
 8003610:	6979      	ldr	r1, [r7, #20]
 8003612:	6878      	ldr	r0, [r7, #4]
 8003614:	4401      	add	r1, r0
 8003616:	7809      	ldrb	r1, [r1, #0]
 8003618:	b2c9      	uxtb	r1, r1
 800361a:	2000      	movs	r0, #0
 800361c:	460c      	mov	r4, r1
 800361e:	4605      	mov	r5, r0
 8003620:	6979      	ldr	r1, [r7, #20]
 8003622:	00c9      	lsls	r1, r1, #3
 8003624:	f1a1 0620 	sub.w	r6, r1, #32
 8003628:	f1c1 0020 	rsb	r0, r1, #32
 800362c:	fa05 f301 	lsl.w	r3, r5, r1
 8003630:	fa04 f606 	lsl.w	r6, r4, r6
 8003634:	4333      	orrs	r3, r6
 8003636:	fa24 f000 	lsr.w	r0, r4, r0
 800363a:	4303      	orrs	r3, r0
 800363c:	fa04 f201 	lsl.w	r2, r4, r1
 8003640:	e9d7 0102 	ldrd	r0, r1, [r7, #8]
 8003644:	ea40 0802 	orr.w	r8, r0, r2
 8003648:	ea41 0903 	orr.w	r9, r1, r3
 800364c:	e9c7 8902 	strd	r8, r9, [r7, #8]
    for (i = 0; i < n; ++i) {
 8003650:	6979      	ldr	r1, [r7, #20]
 8003652:	3101      	adds	r1, #1
 8003654:	6179      	str	r1, [r7, #20]
 8003656:	6978      	ldr	r0, [r7, #20]
 8003658:	6839      	ldr	r1, [r7, #0]
 800365a:	4288      	cmp	r0, r1
 800365c:	dbd8      	blt.n	8003610 <LOADBYTES+0x1e>
    }
    return x;
 800365e:	e9d7 2302 	ldrd	r2, r3, [r7, #8]
}
 8003662:	4610      	mov	r0, r2
 8003664:	4619      	mov	r1, r3
 8003666:	3718      	adds	r7, #24
 8003668:	46bd      	mov	sp, r7
 800366a:	e8bd 03f0 	ldmia.w	sp!, {r4, r5, r6, r7, r8, r9}
 800366e:	4770      	bx	lr

08003670 <STOREBYTES>:

static inline void STOREBYTES(uint8_t *bytes, uint64_t x, int n) {
 8003670:	b4f0      	push	{r4, r5, r6, r7}
 8003672:	b086      	sub	sp, #24
 8003674:	af00      	add	r7, sp, #0
 8003676:	60f8      	str	r0, [r7, #12]
 8003678:	e9c7 2300 	strd	r2, r3, [r7]
    int i;
    for (i = 0; i < n; ++i) {
 800367c:	2300      	movs	r3, #0
 800367e:	617b      	str	r3, [r7, #20]
 8003680:	e019      	b.n	80036b6 <STOREBYTES+0x46>
        bytes[i] = GETBYTE(x, i);
 8003682:	697b      	ldr	r3, [r7, #20]
 8003684:	00d9      	lsls	r1, r3, #3
 8003686:	e9d7 2300 	ldrd	r2, r3, [r7]
 800368a:	f1c1 0620 	rsb	r6, r1, #32
 800368e:	f1a1 0020 	sub.w	r0, r1, #32
 8003692:	fa22 f401 	lsr.w	r4, r2, r1
 8003696:	fa03 f606 	lsl.w	r6, r3, r6
 800369a:	4334      	orrs	r4, r6
 800369c:	fa23 f000 	lsr.w	r0, r3, r0
 80036a0:	4304      	orrs	r4, r0
 80036a2:	fa23 f501 	lsr.w	r5, r3, r1
 80036a6:	697b      	ldr	r3, [r7, #20]
 80036a8:	68fa      	ldr	r2, [r7, #12]
 80036aa:	4413      	add	r3, r2
 80036ac:	b2e2      	uxtb	r2, r4
 80036ae:	701a      	strb	r2, [r3, #0]
    for (i = 0; i < n; ++i) {
 80036b0:	697b      	ldr	r3, [r7, #20]
 80036b2:	3301      	adds	r3, #1
 80036b4:	617b      	str	r3, [r7, #20]
 80036b6:	697a      	ldr	r2, [r7, #20]
 80036b8:	6abb      	ldr	r3, [r7, #40]	@ 0x28
 80036ba:	429a      	cmp	r2, r3
 80036bc:	dbe1      	blt.n	8003682 <STOREBYTES+0x12>
    }
}
 80036be:	bf00      	nop
 80036c0:	bf00      	nop
 80036c2:	3718      	adds	r7, #24
 80036c4:	46bd      	mov	sp, r7
 80036c6:	bcf0      	pop	{r4, r5, r6, r7}
 80036c8:	4770      	bx	lr

080036ca <CLEARBYTES>:

static inline uint64_t CLEARBYTES(uint64_t x, int n) {
 80036ca:	e92d 0ff0 	stmdb	sp!, {r4, r5, r6, r7, r8, r9, sl, fp}
 80036ce:	b086      	sub	sp, #24
 80036d0:	af00      	add	r7, sp, #0
 80036d2:	e9c7 0102 	strd	r0, r1, [r7, #8]
 80036d6:	607a      	str	r2, [r7, #4]
    int i;
    for (i = 0; i < n; ++i) {
 80036d8:	2300      	movs	r3, #0
 80036da:	617b      	str	r3, [r7, #20]
 80036dc:	e022      	b.n	8003724 <CLEARBYTES+0x5a>
        x &= ~SETBYTE(0xffu, i);
 80036de:	697b      	ldr	r3, [r7, #20]
 80036e0:	00d9      	lsls	r1, r3, #3
 80036e2:	f04f 02ff 	mov.w	r2, #255	@ 0xff
 80036e6:	f04f 0300 	mov.w	r3, #0
 80036ea:	f1a1 0620 	sub.w	r6, r1, #32
 80036ee:	f1c1 0020 	rsb	r0, r1, #32
 80036f2:	fa03 f501 	lsl.w	r5, r3, r1
 80036f6:	fa02 f606 	lsl.w	r6, r2, r6
 80036fa:	4335      	orrs	r5, r6
 80036fc:	fa22 f000 	lsr.w	r0, r2, r0
 8003700:	4305      	orrs	r5, r0
 8003702:	fa02 f401 	lsl.w	r4, r2, r1
 8003706:	ea6f 0804 	mvn.w	r8, r4
 800370a:	ea6f 0905 	mvn.w	r9, r5
 800370e:	e9d7 2302 	ldrd	r2, r3, [r7, #8]
 8003712:	ea02 0a08 	and.w	sl, r2, r8
 8003716:	ea03 0b09 	and.w	fp, r3, r9
 800371a:	e9c7 ab02 	strd	sl, fp, [r7, #8]
    for (i = 0; i < n; ++i) {
 800371e:	697b      	ldr	r3, [r7, #20]
 8003720:	3301      	adds	r3, #1
 8003722:	617b      	str	r3, [r7, #20]
 8003724:	697a      	ldr	r2, [r7, #20]
 8003726:	687b      	ldr	r3, [r7, #4]
 8003728:	429a      	cmp	r2, r3
 800372a:	dbd8      	blt.n	80036de <CLEARBYTES+0x14>
    }
    return x;
 800372c:	e9d7 2302 	ldrd	r2, r3, [r7, #8]
}
 8003730:	4610      	mov	r0, r2
 8003732:	4619      	mov	r1, r3
 8003734:	3718      	adds	r7, #24
 8003736:	46bd      	mov	sp, r7
 8003738:	e8bd 0ff0 	ldmia.w	sp!, {r4, r5, r6, r7, r8, r9, sl, fp}
 800373c:	4770      	bx	lr

0800373e <ROR64>:

static inline uint64_t ROR64(uint64_t x, int n) {
 800373e:	e92d 0ff0 	stmdb	sp!, {r4, r5, r6, r7, r8, r9, sl, fp}
 8003742:	b084      	sub	sp, #16
 8003744:	af00      	add	r7, sp, #0
 8003746:	e9c7 0102 	strd	r0, r1, [r7, #8]
 800374a:	607a      	str	r2, [r7, #4]
    return (x >> n) | (x << ((-n) & 63));
 800374c:	e9d7 2302 	ldrd	r2, r3, [r7, #8]
 8003750:	6879      	ldr	r1, [r7, #4]
 8003752:	f1c1 0620 	rsb	r6, r1, #32
 8003756:	f1a1 0020 	sub.w	r0, r1, #32
 800375a:	fa22 f801 	lsr.w	r8, r2, r1
 800375e:	fa03 f606 	lsl.w	r6, r3, r6
 8003762:	ea48 0806 	orr.w	r8, r8, r6
 8003766:	fa23 f000 	lsr.w	r0, r3, r0
 800376a:	ea48 0800 	orr.w	r8, r8, r0
 800376e:	fa23 f901 	lsr.w	r9, r3, r1
 8003772:	6879      	ldr	r1, [r7, #4]
 8003774:	4249      	negs	r1, r1
 8003776:	f001 013f 	and.w	r1, r1, #63	@ 0x3f
 800377a:	f1a1 0620 	sub.w	r6, r1, #32
 800377e:	f1c1 0020 	rsb	r0, r1, #32
 8003782:	fa03 f501 	lsl.w	r5, r3, r1
 8003786:	fa02 f606 	lsl.w	r6, r2, r6
 800378a:	4335      	orrs	r5, r6
 800378c:	fa22 f000 	lsr.w	r0, r2, r0
 8003790:	4305      	orrs	r5, r0
 8003792:	fa02 f401 	lsl.w	r4, r2, r1
 8003796:	ea48 0a04 	orr.w	sl, r8, r4
 800379a:	ea49 0b05 	orr.w	fp, r9, r5
 800379e:	4654      	mov	r4, sl
 80037a0:	465d      	mov	r5, fp
 80037a2:	4622      	mov	r2, r4
 80037a4:	462b      	mov	r3, r5
}
 80037a6:	4610      	mov	r0, r2
 80037a8:	4619      	mov	r1, r3
 80037aa:	3710      	adds	r7, #16
 80037ac:	46bd      	mov	sp, r7
 80037ae:	e8bd 0ff0 	ldmia.w	sp!, {r4, r5, r6, r7, r8, r9, sl, fp}
 80037b2:	4770      	bx	lr

080037b4 <ROUND>:

static inline void ROUND(ascon_state_t *s, uint8_t c) {
 80037b4:	e92d 4fb0 	stmdb	sp!, {r4, r5, r7, r8, r9, sl, fp, lr}
 80037b8:	b0ca      	sub	sp, #296	@ 0x128
 80037ba:	af00      	add	r7, sp, #0
 80037bc:	f8c7 00fc 	str.w	r0, [r7, #252]	@ 0xfc
 80037c0:	460b      	mov	r3, r1
 80037c2:	f887 30fb 	strb.w	r3, [r7, #251]	@ 0xfb
    ascon_state_t t;

    s->x[2] ^= c;
 80037c6:	f8d7 30fc 	ldr.w	r3, [r7, #252]	@ 0xfc
 80037ca:	e9d3 2304 	ldrd	r2, r3, [r3, #16]
 80037ce:	f897 10fb 	ldrb.w	r1, [r7, #251]	@ 0xfb
 80037d2:	2000      	movs	r0, #0
 80037d4:	460c      	mov	r4, r1
 80037d6:	4605      	mov	r5, r0
 80037d8:	ea82 0804 	eor.w	r8, r2, r4
 80037dc:	ea83 0905 	eor.w	r9, r3, r5
 80037e0:	f8d7 30fc 	ldr.w	r3, [r7, #252]	@ 0xfc
 80037e4:	e9c3 8904 	strd	r8, r9, [r3, #16]

    s->x[0] ^= s->x[4];
 80037e8:	f8d7 30fc 	ldr.w	r3, [r7, #252]	@ 0xfc
 80037ec:	e9d3 0100 	ldrd	r0, r1, [r3]
 80037f0:	f8d7 30fc 	ldr.w	r3, [r7, #252]	@ 0xfc
 80037f4:	e9d3 2308 	ldrd	r2, r3, [r3, #32]
 80037f8:	ea80 0a02 	eor.w	sl, r0, r2
 80037fc:	ea81 0b03 	eor.w	fp, r1, r3
 8003800:	f8d7 30fc 	ldr.w	r3, [r7, #252]	@ 0xfc
 8003804:	e9c3 ab00 	strd	sl, fp, [r3]
    s->x[4] ^= s->x[3];
 8003808:	f8d7 30fc 	ldr.w	r3, [r7, #252]	@ 0xfc
 800380c:	e9d3 0108 	ldrd	r0, r1, [r3, #32]
 8003810:	f8d7 30fc 	ldr.w	r3, [r7, #252]	@ 0xfc
 8003814:	e9d3 2306 	ldrd	r2, r3, [r3, #24]
 8003818:	ea80 0402 	eor.w	r4, r0, r2
 800381c:	f8c7 40f0 	str.w	r4, [r7, #240]	@ 0xf0
 8003820:	404b      	eors	r3, r1
 8003822:	f8c7 30f4 	str.w	r3, [r7, #244]	@ 0xf4
 8003826:	f8d7 30fc 	ldr.w	r3, [r7, #252]	@ 0xfc
 800382a:	e9d7 123c 	ldrd	r1, r2, [r7, #240]	@ 0xf0
 800382e:	e9c3 1208 	strd	r1, r2, [r3, #32]
    s->x[2] ^= s->x[1];
 8003832:	f8d7 30fc 	ldr.w	r3, [r7, #252]	@ 0xfc
 8003836:	e9d3 0104 	ldrd	r0, r1, [r3, #16]
 800383a:	f8d7 30fc 	ldr.w	r3, [r7, #252]	@ 0xfc
 800383e:	e9d3 2302 	ldrd	r2, r3, [r3, #8]
 8003842:	ea80 0402 	eor.w	r4, r0, r2
 8003846:	f8c7 40e8 	str.w	r4, [r7, #232]	@ 0xe8
 800384a:	404b      	eors	r3, r1
 800384c:	f8c7 30ec 	str.w	r3, [r7, #236]	@ 0xec
 8003850:	f8d7 30fc 	ldr.w	r3, [r7, #252]	@ 0xfc
 8003854:	e9d7 123a 	ldrd	r1, r2, [r7, #232]	@ 0xe8
 8003858:	e9c3 1204 	strd	r1, r2, [r3, #16]

    t.x[0] = s->x[0] ^ (~s->x[1] & s->x[2]);
 800385c:	f8d7 30fc 	ldr.w	r3, [r7, #252]	@ 0xfc
 8003860:	e9d3 0100 	ldrd	r0, r1, [r3]
 8003864:	f8d7 30fc 	ldr.w	r3, [r7, #252]	@ 0xfc
 8003868:	e9d3 2302 	ldrd	r2, r3, [r3, #8]
 800386c:	43d4      	mvns	r4, r2
 800386e:	f8c7 40e0 	str.w	r4, [r7, #224]	@ 0xe0
 8003872:	43db      	mvns	r3, r3
 8003874:	f8c7 30e4 	str.w	r3, [r7, #228]	@ 0xe4
 8003878:	f8d7 30fc 	ldr.w	r3, [r7, #252]	@ 0xfc
 800387c:	e9d3 2304 	ldrd	r2, r3, [r3, #16]
 8003880:	e9d7 8938 	ldrd	r8, r9, [r7, #224]	@ 0xe0
 8003884:	4644      	mov	r4, r8
 8003886:	4014      	ands	r4, r2
 8003888:	f8c7 40d8 	str.w	r4, [r7, #216]	@ 0xd8
 800388c:	464c      	mov	r4, r9
 800388e:	401c      	ands	r4, r3
 8003890:	f8c7 40dc 	str.w	r4, [r7, #220]	@ 0xdc
 8003894:	e9d7 4536 	ldrd	r4, r5, [r7, #216]	@ 0xd8
 8003898:	4623      	mov	r3, r4
 800389a:	4043      	eors	r3, r0
 800389c:	f8c7 30d0 	str.w	r3, [r7, #208]	@ 0xd0
 80038a0:	462b      	mov	r3, r5
 80038a2:	404b      	eors	r3, r1
 80038a4:	f8c7 30d4 	str.w	r3, [r7, #212]	@ 0xd4
 80038a8:	e9d7 3434 	ldrd	r3, r4, [r7, #208]	@ 0xd0
 80038ac:	e9c7 3440 	strd	r3, r4, [r7, #256]	@ 0x100
    t.x[1] = s->x[1] ^ (~s->x[2] & s->x[3]);
 80038b0:	f8d7 30fc 	ldr.w	r3, [r7, #252]	@ 0xfc
 80038b4:	e9d3 0102 	ldrd	r0, r1, [r3, #8]
 80038b8:	f8d7 30fc 	ldr.w	r3, [r7, #252]	@ 0xfc
 80038bc:	e9d3 2304 	ldrd	r2, r3, [r3, #16]
 80038c0:	43d4      	mvns	r4, r2
 80038c2:	f8c7 40c8 	str.w	r4, [r7, #200]	@ 0xc8
 80038c6:	43db      	mvns	r3, r3
 80038c8:	f8c7 30cc 	str.w	r3, [r7, #204]	@ 0xcc
 80038cc:	f8d7 30fc 	ldr.w	r3, [r7, #252]	@ 0xfc
 80038d0:	e9d3 2306 	ldrd	r2, r3, [r3, #24]
 80038d4:	e9d7 8932 	ldrd	r8, r9, [r7, #200]	@ 0xc8
 80038d8:	4644      	mov	r4, r8
 80038da:	4014      	ands	r4, r2
 80038dc:	f8c7 40c0 	str.w	r4, [r7, #192]	@ 0xc0
 80038e0:	464c      	mov	r4, r9
 80038e2:	401c      	ands	r4, r3
 80038e4:	f8c7 40c4 	str.w	r4, [r7, #196]	@ 0xc4
 80038e8:	e9d7 4530 	ldrd	r4, r5, [r7, #192]	@ 0xc0
 80038ec:	4623      	mov	r3, r4
 80038ee:	4043      	eors	r3, r0
 80038f0:	f8c7 30b8 	str.w	r3, [r7, #184]	@ 0xb8
 80038f4:	462b      	mov	r3, r5
 80038f6:	404b      	eors	r3, r1
 80038f8:	f8c7 30bc 	str.w	r3, [r7, #188]	@ 0xbc
 80038fc:	e9d7 342e 	ldrd	r3, r4, [r7, #184]	@ 0xb8
 8003900:	e9c7 3442 	strd	r3, r4, [r7, #264]	@ 0x108
    t.x[2] = s->x[2] ^ (~s->x[3] & s->x[4]);
 8003904:	f8d7 30fc 	ldr.w	r3, [r7, #252]	@ 0xfc
 8003908:	e9d3 0104 	ldrd	r0, r1, [r3, #16]
 800390c:	f8d7 30fc 	ldr.w	r3, [r7, #252]	@ 0xfc
 8003910:	e9d3 2306 	ldrd	r2, r3, [r3, #24]
 8003914:	43d4      	mvns	r4, r2
 8003916:	f8c7 40b0 	str.w	r4, [r7, #176]	@ 0xb0
 800391a:	43db      	mvns	r3, r3
 800391c:	f8c7 30b4 	str.w	r3, [r7, #180]	@ 0xb4
 8003920:	f8d7 30fc 	ldr.w	r3, [r7, #252]	@ 0xfc
 8003924:	e9d3 2308 	ldrd	r2, r3, [r3, #32]
 8003928:	e9d7 892c 	ldrd	r8, r9, [r7, #176]	@ 0xb0
 800392c:	4644      	mov	r4, r8
 800392e:	4014      	ands	r4, r2
 8003930:	f8c7 40a8 	str.w	r4, [r7, #168]	@ 0xa8
 8003934:	464c      	mov	r4, r9
 8003936:	401c      	ands	r4, r3
 8003938:	f8c7 40ac 	str.w	r4, [r7, #172]	@ 0xac
 800393c:	e9d7 452a 	ldrd	r4, r5, [r7, #168]	@ 0xa8
 8003940:	4623      	mov	r3, r4
 8003942:	4043      	eors	r3, r0
 8003944:	f8c7 30a0 	str.w	r3, [r7, #160]	@ 0xa0
 8003948:	462b      	mov	r3, r5
 800394a:	404b      	eors	r3, r1
 800394c:	f8c7 30a4 	str.w	r3, [r7, #164]	@ 0xa4
 8003950:	e9d7 3428 	ldrd	r3, r4, [r7, #160]	@ 0xa0
 8003954:	e9c7 3444 	strd	r3, r4, [r7, #272]	@ 0x110
    t.x[3] = s->x[3] ^ (~s->x[4] & s->x[0]);
 8003958:	f8d7 30fc 	ldr.w	r3, [r7, #252]	@ 0xfc
 800395c:	e9d3 0106 	ldrd	r0, r1, [r3, #24]
 8003960:	f8d7 30fc 	ldr.w	r3, [r7, #252]	@ 0xfc
 8003964:	e9d3 2308 	ldrd	r2, r3, [r3, #32]
 8003968:	43d4      	mvns	r4, r2
 800396a:	f8c7 4098 	str.w	r4, [r7, #152]	@ 0x98
 800396e:	43db      	mvns	r3, r3
 8003970:	f8c7 309c 	str.w	r3, [r7, #156]	@ 0x9c
 8003974:	f8d7 30fc 	ldr.w	r3, [r7, #252]	@ 0xfc
 8003978:	e9d3 2300 	ldrd	r2, r3, [r3]
 800397c:	e9d7 8926 	ldrd	r8, r9, [r7, #152]	@ 0x98
 8003980:	4644      	mov	r4, r8
 8003982:	4014      	ands	r4, r2
 8003984:	f8c7 4090 	str.w	r4, [r7, #144]	@ 0x90
 8003988:	464c      	mov	r4, r9
 800398a:	401c      	ands	r4, r3
 800398c:	f8c7 4094 	str.w	r4, [r7, #148]	@ 0x94
 8003990:	e9d7 4524 	ldrd	r4, r5, [r7, #144]	@ 0x90
 8003994:	4623      	mov	r3, r4
 8003996:	4043      	eors	r3, r0
 8003998:	f8c7 3088 	str.w	r3, [r7, #136]	@ 0x88
 800399c:	462b      	mov	r3, r5
 800399e:	404b      	eors	r3, r1
 80039a0:	f8c7 308c 	str.w	r3, [r7, #140]	@ 0x8c
 80039a4:	e9d7 3422 	ldrd	r3, r4, [r7, #136]	@ 0x88
 80039a8:	e9c7 3446 	strd	r3, r4, [r7, #280]	@ 0x118
    t.x[4] = s->x[4] ^ (~s->x[0] & s->x[1]);
 80039ac:	f8d7 30fc 	ldr.w	r3, [r7, #252]	@ 0xfc
 80039b0:	e9d3 0108 	ldrd	r0, r1, [r3, #32]
 80039b4:	f8d7 30fc 	ldr.w	r3, [r7, #252]	@ 0xfc
 80039b8:	e9d3 2300 	ldrd	r2, r3, [r3]
 80039bc:	43d4      	mvns	r4, r2
 80039be:	f8c7 4080 	str.w	r4, [r7, #128]	@ 0x80
 80039c2:	43db      	mvns	r3, r3
 80039c4:	f8c7 3084 	str.w	r3, [r7, #132]	@ 0x84
 80039c8:	f8d7 30fc 	ldr.w	r3, [r7, #252]	@ 0xfc
 80039cc:	e9d3 2302 	ldrd	r2, r3, [r3, #8]
 80039d0:	e9d7 8920 	ldrd	r8, r9, [r7, #128]	@ 0x80
 80039d4:	4644      	mov	r4, r8
 80039d6:	4014      	ands	r4, r2
 80039d8:	67bc      	str	r4, [r7, #120]	@ 0x78
 80039da:	464c      	mov	r4, r9
 80039dc:	401c      	ands	r4, r3
 80039de:	67fc      	str	r4, [r7, #124]	@ 0x7c
 80039e0:	e9d7 451e 	ldrd	r4, r5, [r7, #120]	@ 0x78
 80039e4:	4623      	mov	r3, r4
 80039e6:	4043      	eors	r3, r0
 80039e8:	673b      	str	r3, [r7, #112]	@ 0x70
 80039ea:	462b      	mov	r3, r5
 80039ec:	404b      	eors	r3, r1
 80039ee:	677b      	str	r3, [r7, #116]	@ 0x74
 80039f0:	e9d7 341c 	ldrd	r3, r4, [r7, #112]	@ 0x70
 80039f4:	e9c7 3448 	strd	r3, r4, [r7, #288]	@ 0x120

    t.x[1] ^= t.x[0];
 80039f8:	e9d7 0142 	ldrd	r0, r1, [r7, #264]	@ 0x108
 80039fc:	e9d7 2340 	ldrd	r2, r3, [r7, #256]	@ 0x100
 8003a00:	ea80 0402 	eor.w	r4, r0, r2
 8003a04:	66bc      	str	r4, [r7, #104]	@ 0x68
 8003a06:	404b      	eors	r3, r1
 8003a08:	66fb      	str	r3, [r7, #108]	@ 0x6c
 8003a0a:	e9d7 341a 	ldrd	r3, r4, [r7, #104]	@ 0x68
 8003a0e:	e9c7 3442 	strd	r3, r4, [r7, #264]	@ 0x108
    t.x[0] ^= t.x[4];
 8003a12:	e9d7 0140 	ldrd	r0, r1, [r7, #256]	@ 0x100
 8003a16:	e9d7 2348 	ldrd	r2, r3, [r7, #288]	@ 0x120
 8003a1a:	ea80 0402 	eor.w	r4, r0, r2
 8003a1e:	663c      	str	r4, [r7, #96]	@ 0x60
 8003a20:	404b      	eors	r3, r1
 8003a22:	667b      	str	r3, [r7, #100]	@ 0x64
 8003a24:	e9d7 3418 	ldrd	r3, r4, [r7, #96]	@ 0x60
 8003a28:	e9c7 3440 	strd	r3, r4, [r7, #256]	@ 0x100
    t.x[3] ^= t.x[2];
 8003a2c:	e9d7 0146 	ldrd	r0, r1, [r7, #280]	@ 0x118
 8003a30:	e9d7 2344 	ldrd	r2, r3, [r7, #272]	@ 0x110
 8003a34:	ea80 0402 	eor.w	r4, r0, r2
 8003a38:	65bc      	str	r4, [r7, #88]	@ 0x58
 8003a3a:	404b      	eors	r3, r1
 8003a3c:	65fb      	str	r3, [r7, #92]	@ 0x5c
 8003a3e:	e9d7 3416 	ldrd	r3, r4, [r7, #88]	@ 0x58
 8003a42:	e9c7 3446 	strd	r3, r4, [r7, #280]	@ 0x118
    t.x[2] = ~t.x[2];
 8003a46:	e9d7 2344 	ldrd	r2, r3, [r7, #272]	@ 0x110
 8003a4a:	43d1      	mvns	r1, r2
 8003a4c:	6539      	str	r1, [r7, #80]	@ 0x50
 8003a4e:	43db      	mvns	r3, r3
 8003a50:	657b      	str	r3, [r7, #84]	@ 0x54
 8003a52:	e9d7 3414 	ldrd	r3, r4, [r7, #80]	@ 0x50
 8003a56:	e9c7 3444 	strd	r3, r4, [r7, #272]	@ 0x110

    s->x[0] = t.x[0] ^ ROR64(t.x[0], 19) ^ ROR64(t.x[0], 28);
 8003a5a:	e9d7 4540 	ldrd	r4, r5, [r7, #256]	@ 0x100
 8003a5e:	e9d7 0140 	ldrd	r0, r1, [r7, #256]	@ 0x100
 8003a62:	2213      	movs	r2, #19
 8003a64:	f7ff fe6b 	bl	800373e <ROR64>
 8003a68:	4602      	mov	r2, r0
 8003a6a:	460b      	mov	r3, r1
 8003a6c:	ea84 0102 	eor.w	r1, r4, r2
 8003a70:	64b9      	str	r1, [r7, #72]	@ 0x48
 8003a72:	406b      	eors	r3, r5
 8003a74:	64fb      	str	r3, [r7, #76]	@ 0x4c
 8003a76:	e9d7 0140 	ldrd	r0, r1, [r7, #256]	@ 0x100
 8003a7a:	221c      	movs	r2, #28
 8003a7c:	f7ff fe5f 	bl	800373e <ROR64>
 8003a80:	4602      	mov	r2, r0
 8003a82:	460b      	mov	r3, r1
 8003a84:	e9d7 4512 	ldrd	r4, r5, [r7, #72]	@ 0x48
 8003a88:	4621      	mov	r1, r4
 8003a8a:	4051      	eors	r1, r2
 8003a8c:	6439      	str	r1, [r7, #64]	@ 0x40
 8003a8e:	4629      	mov	r1, r5
 8003a90:	4059      	eors	r1, r3
 8003a92:	6479      	str	r1, [r7, #68]	@ 0x44
 8003a94:	f8d7 30fc 	ldr.w	r3, [r7, #252]	@ 0xfc
 8003a98:	e9d7 1210 	ldrd	r1, r2, [r7, #64]	@ 0x40
 8003a9c:	e9c3 1200 	strd	r1, r2, [r3]
    s->x[1] = t.x[1] ^ ROR64(t.x[1], 61) ^ ROR64(t.x[1], 39);
 8003aa0:	e9d7 4542 	ldrd	r4, r5, [r7, #264]	@ 0x108
 8003aa4:	e9d7 0142 	ldrd	r0, r1, [r7, #264]	@ 0x108
 8003aa8:	223d      	movs	r2, #61	@ 0x3d
 8003aaa:	f7ff fe48 	bl	800373e <ROR64>
 8003aae:	4602      	mov	r2, r0
 8003ab0:	460b      	mov	r3, r1
 8003ab2:	ea84 0102 	eor.w	r1, r4, r2
 8003ab6:	63b9      	str	r1, [r7, #56]	@ 0x38
 8003ab8:	406b      	eors	r3, r5
 8003aba:	63fb      	str	r3, [r7, #60]	@ 0x3c
 8003abc:	e9d7 0142 	ldrd	r0, r1, [r7, #264]	@ 0x108
 8003ac0:	2227      	movs	r2, #39	@ 0x27
 8003ac2:	f7ff fe3c 	bl	800373e <ROR64>
 8003ac6:	4602      	mov	r2, r0
 8003ac8:	460b      	mov	r3, r1
 8003aca:	e9d7 450e 	ldrd	r4, r5, [r7, #56]	@ 0x38
 8003ace:	4621      	mov	r1, r4
 8003ad0:	4051      	eors	r1, r2
 8003ad2:	6339      	str	r1, [r7, #48]	@ 0x30
 8003ad4:	4629      	mov	r1, r5
 8003ad6:	4059      	eors	r1, r3
 8003ad8:	6379      	str	r1, [r7, #52]	@ 0x34
 8003ada:	f8d7 30fc 	ldr.w	r3, [r7, #252]	@ 0xfc
 8003ade:	e9d7 120c 	ldrd	r1, r2, [r7, #48]	@ 0x30
 8003ae2:	e9c3 1202 	strd	r1, r2, [r3, #8]
    s->x[2] = t.x[2] ^ ROR64(t.x[2], 1) ^ ROR64(t.x[2], 6);
 8003ae6:	e9d7 4544 	ldrd	r4, r5, [r7, #272]	@ 0x110
 8003aea:	e9d7 0144 	ldrd	r0, r1, [r7, #272]	@ 0x110
 8003aee:	2201      	movs	r2, #1
 8003af0:	f7ff fe25 	bl	800373e <ROR64>
 8003af4:	4602      	mov	r2, r0
 8003af6:	460b      	mov	r3, r1
 8003af8:	ea84 0102 	eor.w	r1, r4, r2
 8003afc:	62b9      	str	r1, [r7, #40]	@ 0x28
 8003afe:	406b      	eors	r3, r5
 8003b00:	62fb      	str	r3, [r7, #44]	@ 0x2c
 8003b02:	e9d7 0144 	ldrd	r0, r1, [r7, #272]	@ 0x110
 8003b06:	2206      	movs	r2, #6
 8003b08:	f7ff fe19 	bl	800373e <ROR64>
 8003b0c:	4602      	mov	r2, r0
 8003b0e:	460b      	mov	r3, r1
 8003b10:	e9d7 450a 	ldrd	r4, r5, [r7, #40]	@ 0x28
 8003b14:	4621      	mov	r1, r4
 8003b16:	4051      	eors	r1, r2
 8003b18:	6239      	str	r1, [r7, #32]
 8003b1a:	4629      	mov	r1, r5
 8003b1c:	4059      	eors	r1, r3
 8003b1e:	6279      	str	r1, [r7, #36]	@ 0x24
 8003b20:	f8d7 30fc 	ldr.w	r3, [r7, #252]	@ 0xfc
 8003b24:	e9d7 1208 	ldrd	r1, r2, [r7, #32]
 8003b28:	e9c3 1204 	strd	r1, r2, [r3, #16]
    s->x[3] = t.x[3] ^ ROR64(t.x[3], 10) ^ ROR64(t.x[3], 17);
 8003b2c:	e9d7 4546 	ldrd	r4, r5, [r7, #280]	@ 0x118
 8003b30:	e9d7 0146 	ldrd	r0, r1, [r7, #280]	@ 0x118
 8003b34:	220a      	movs	r2, #10
 8003b36:	f7ff fe02 	bl	800373e <ROR64>
 8003b3a:	4602      	mov	r2, r0
 8003b3c:	460b      	mov	r3, r1
 8003b3e:	ea84 0102 	eor.w	r1, r4, r2
 8003b42:	61b9      	str	r1, [r7, #24]
 8003b44:	406b      	eors	r3, r5
 8003b46:	61fb      	str	r3, [r7, #28]
 8003b48:	e9d7 0146 	ldrd	r0, r1, [r7, #280]	@ 0x118
 8003b4c:	2211      	movs	r2, #17
 8003b4e:	f7ff fdf6 	bl	800373e <ROR64>
 8003b52:	4602      	mov	r2, r0
 8003b54:	460b      	mov	r3, r1
 8003b56:	e9d7 4506 	ldrd	r4, r5, [r7, #24]
 8003b5a:	4621      	mov	r1, r4
 8003b5c:	4051      	eors	r1, r2
 8003b5e:	6139      	str	r1, [r7, #16]
 8003b60:	4629      	mov	r1, r5
 8003b62:	4059      	eors	r1, r3
 8003b64:	6179      	str	r1, [r7, #20]
 8003b66:	f8d7 30fc 	ldr.w	r3, [r7, #252]	@ 0xfc
 8003b6a:	e9d7 1204 	ldrd	r1, r2, [r7, #16]
 8003b6e:	e9c3 1206 	strd	r1, r2, [r3, #24]
    s->x[4] = t.x[4] ^ ROR64(t.x[4], 7) ^ ROR64(t.x[4], 41);
 8003b72:	e9d7 4548 	ldrd	r4, r5, [r7, #288]	@ 0x120
 8003b76:	e9d7 0148 	ldrd	r0, r1, [r7, #288]	@ 0x120
 8003b7a:	2207      	movs	r2, #7
 8003b7c:	f7ff fddf 	bl	800373e <ROR64>
 8003b80:	4602      	mov	r2, r0
 8003b82:	460b      	mov	r3, r1
 8003b84:	ea84 0102 	eor.w	r1, r4, r2
 8003b88:	60b9      	str	r1, [r7, #8]
 8003b8a:	406b      	eors	r3, r5
 8003b8c:	60fb      	str	r3, [r7, #12]
 8003b8e:	e9d7 0148 	ldrd	r0, r1, [r7, #288]	@ 0x120
 8003b92:	2229      	movs	r2, #41	@ 0x29
 8003b94:	f7ff fdd3 	bl	800373e <ROR64>
 8003b98:	4602      	mov	r2, r0
 8003b9a:	460b      	mov	r3, r1
 8003b9c:	e9d7 4502 	ldrd	r4, r5, [r7, #8]
 8003ba0:	4621      	mov	r1, r4
 8003ba2:	4051      	eors	r1, r2
 8003ba4:	6039      	str	r1, [r7, #0]
 8003ba6:	4629      	mov	r1, r5
 8003ba8:	4059      	eors	r1, r3
 8003baa:	6079      	str	r1, [r7, #4]
 8003bac:	f8d7 30fc 	ldr.w	r3, [r7, #252]	@ 0xfc
 8003bb0:	e9d7 1200 	ldrd	r1, r2, [r7]
 8003bb4:	e9c3 1208 	strd	r1, r2, [r3, #32]
}
 8003bb8:	bf00      	nop
 8003bba:	f507 7794 	add.w	r7, r7, #296	@ 0x128
 8003bbe:	46bd      	mov	sp, r7
 8003bc0:	e8bd 8fb0 	ldmia.w	sp!, {r4, r5, r7, r8, r9, sl, fp, pc}

08003bc4 <P12>:

static inline void P12(ascon_state_t *s) {
 8003bc4:	b580      	push	{r7, lr}
 8003bc6:	b082      	sub	sp, #8
 8003bc8:	af00      	add	r7, sp, #0
 8003bca:	6078      	str	r0, [r7, #4]
    ROUND(s, 0xf0);
 8003bcc:	21f0      	movs	r1, #240	@ 0xf0
 8003bce:	6878      	ldr	r0, [r7, #4]
 8003bd0:	f7ff fdf0 	bl	80037b4 <ROUND>
    ROUND(s, 0xe1);
 8003bd4:	21e1      	movs	r1, #225	@ 0xe1
 8003bd6:	6878      	ldr	r0, [r7, #4]
 8003bd8:	f7ff fdec 	bl	80037b4 <ROUND>
    ROUND(s, 0xd2);
 8003bdc:	21d2      	movs	r1, #210	@ 0xd2
 8003bde:	6878      	ldr	r0, [r7, #4]
 8003be0:	f7ff fde8 	bl	80037b4 <ROUND>
    ROUND(s, 0xc3);
 8003be4:	21c3      	movs	r1, #195	@ 0xc3
 8003be6:	6878      	ldr	r0, [r7, #4]
 8003be8:	f7ff fde4 	bl	80037b4 <ROUND>
    ROUND(s, 0xb4);
 8003bec:	21b4      	movs	r1, #180	@ 0xb4
 8003bee:	6878      	ldr	r0, [r7, #4]
 8003bf0:	f7ff fde0 	bl	80037b4 <ROUND>
    ROUND(s, 0xa5);
 8003bf4:	21a5      	movs	r1, #165	@ 0xa5
 8003bf6:	6878      	ldr	r0, [r7, #4]
 8003bf8:	f7ff fddc 	bl	80037b4 <ROUND>
    ROUND(s, 0x96);
 8003bfc:	2196      	movs	r1, #150	@ 0x96
 8003bfe:	6878      	ldr	r0, [r7, #4]
 8003c00:	f7ff fdd8 	bl	80037b4 <ROUND>
    ROUND(s, 0x87);
 8003c04:	2187      	movs	r1, #135	@ 0x87
 8003c06:	6878      	ldr	r0, [r7, #4]
 8003c08:	f7ff fdd4 	bl	80037b4 <ROUND>
    ROUND(s, 0x78);
 8003c0c:	2178      	movs	r1, #120	@ 0x78
 8003c0e:	6878      	ldr	r0, [r7, #4]
 8003c10:	f7ff fdd0 	bl	80037b4 <ROUND>
    ROUND(s, 0x69);
 8003c14:	2169      	movs	r1, #105	@ 0x69
 8003c16:	6878      	ldr	r0, [r7, #4]
 8003c18:	f7ff fdcc 	bl	80037b4 <ROUND>
    ROUND(s, 0x5a);
 8003c1c:	215a      	movs	r1, #90	@ 0x5a
 8003c1e:	6878      	ldr	r0, [r7, #4]
 8003c20:	f7ff fdc8 	bl	80037b4 <ROUND>
    ROUND(s, 0x4b);
 8003c24:	214b      	movs	r1, #75	@ 0x4b
 8003c26:	6878      	ldr	r0, [r7, #4]
 8003c28:	f7ff fdc4 	bl	80037b4 <ROUND>
}
 8003c2c:	bf00      	nop
 8003c2e:	3708      	adds	r7, #8
 8003c30:	46bd      	mov	sp, r7
 8003c32:	bd80      	pop	{r7, pc}

08003c34 <P6>:

static inline void P6(ascon_state_t *s) {
 8003c34:	b580      	push	{r7, lr}
 8003c36:	b082      	sub	sp, #8
 8003c38:	af00      	add	r7, sp, #0
 8003c3a:	6078      	str	r0, [r7, #4]
    ROUND(s, 0x96);
 8003c3c:	2196      	movs	r1, #150	@ 0x96
 8003c3e:	6878      	ldr	r0, [r7, #4]
 8003c40:	f7ff fdb8 	bl	80037b4 <ROUND>
    ROUND(s, 0x87);
 8003c44:	2187      	movs	r1, #135	@ 0x87
 8003c46:	6878      	ldr	r0, [r7, #4]
 8003c48:	f7ff fdb4 	bl	80037b4 <ROUND>
    ROUND(s, 0x78);
 8003c4c:	2178      	movs	r1, #120	@ 0x78
 8003c4e:	6878      	ldr	r0, [r7, #4]
 8003c50:	f7ff fdb0 	bl	80037b4 <ROUND>
    ROUND(s, 0x69);
 8003c54:	2169      	movs	r1, #105	@ 0x69
 8003c56:	6878      	ldr	r0, [r7, #4]
 8003c58:	f7ff fdac 	bl	80037b4 <ROUND>
    ROUND(s, 0x5a);
 8003c5c:	215a      	movs	r1, #90	@ 0x5a
 8003c5e:	6878      	ldr	r0, [r7, #4]
 8003c60:	f7ff fda8 	bl	80037b4 <ROUND>
    ROUND(s, 0x4b);
 8003c64:	214b      	movs	r1, #75	@ 0x4b
 8003c66:	6878      	ldr	r0, [r7, #4]
 8003c68:	f7ff fda4 	bl	80037b4 <ROUND>
}
 8003c6c:	bf00      	nop
 8003c6e:	3708      	adds	r7, #8
 8003c70:	46bd      	mov	sp, r7
 8003c72:	bd80      	pop	{r7, pc}
 8003c74:	0000      	movs	r0, r0
	...

08003c78 <ascon128_aead_encrypt>:

int ascon128_aead_encrypt(unsigned char *c, unsigned long long *clen,
                          const unsigned char *m, unsigned long long mlen,
                          const unsigned char *ad, unsigned long long adlen,
                          const unsigned char *nsec, const unsigned char *npub,
                          const unsigned char *k) {
 8003c78:	e92d 4fb0 	stmdb	sp!, {r4, r5, r7, r8, r9, sl, fp, lr}
 8003c7c:	b0b6      	sub	sp, #216	@ 0xd8
 8003c7e:	af02      	add	r7, sp, #8
 8003c80:	f8c7 0084 	str.w	r0, [r7, #132]	@ 0x84
 8003c84:	f8c7 1080 	str.w	r1, [r7, #128]	@ 0x80
 8003c88:	67fa      	str	r2, [r7, #124]	@ 0x7c
    const uint64_t K0 = LOADBYTES(k, 8);
 8003c8a:	2108      	movs	r1, #8
 8003c8c:	f8d7 0110 	ldr.w	r0, [r7, #272]	@ 0x110
 8003c90:	f7ff fcaf 	bl	80035f2 <LOADBYTES>
 8003c94:	e9c7 0132 	strd	r0, r1, [r7, #200]	@ 0xc8
    const uint64_t K1 = LOADBYTES(k + 8, 8);
 8003c98:	f8d7 3110 	ldr.w	r3, [r7, #272]	@ 0x110
 8003c9c:	3308      	adds	r3, #8
 8003c9e:	2108      	movs	r1, #8
 8003ca0:	4618      	mov	r0, r3
 8003ca2:	f7ff fca6 	bl	80035f2 <LOADBYTES>
 8003ca6:	e9c7 0130 	strd	r0, r1, [r7, #192]	@ 0xc0
    const uint64_t N0 = LOADBYTES(npub, 8);
 8003caa:	2108      	movs	r1, #8
 8003cac:	f8d7 010c 	ldr.w	r0, [r7, #268]	@ 0x10c
 8003cb0:	f7ff fc9f 	bl	80035f2 <LOADBYTES>
 8003cb4:	e9c7 012e 	strd	r0, r1, [r7, #184]	@ 0xb8
    const uint64_t N1 = LOADBYTES(npub + 8, 8);
 8003cb8:	f8d7 310c 	ldr.w	r3, [r7, #268]	@ 0x10c
 8003cbc:	3308      	adds	r3, #8
 8003cbe:	2108      	movs	r1, #8
 8003cc0:	4618      	mov	r0, r3
 8003cc2:	f7ff fc96 	bl	80035f2 <LOADBYTES>
 8003cc6:	e9c7 012c 	strd	r0, r1, [r7, #176]	@ 0xb0
    ascon_state_t s;

    (void)nsec;

    *clen = mlen + ASCON128_ABYTES;
 8003cca:	e9d7 233c 	ldrd	r2, r3, [r7, #240]	@ 0xf0
 8003cce:	f112 0410 	adds.w	r4, r2, #16
 8003cd2:	f143 0500 	adc.w	r5, r3, #0
 8003cd6:	f8d7 3080 	ldr.w	r3, [r7, #128]	@ 0x80
 8003cda:	e9c3 4500 	strd	r4, r5, [r3]

    s.x[0] = ASCON_128_IV;
 8003cde:	a3be      	add	r3, pc, #760	@ (adr r3, 8003fd8 <ascon128_aead_encrypt+0x360>)
 8003ce0:	e9d3 2300 	ldrd	r2, r3, [r3]
 8003ce4:	e9c7 2322 	strd	r2, r3, [r7, #136]	@ 0x88
    s.x[1] = K0;
 8003ce8:	e9d7 2332 	ldrd	r2, r3, [r7, #200]	@ 0xc8
 8003cec:	e9c7 2324 	strd	r2, r3, [r7, #144]	@ 0x90
    s.x[2] = K1;
 8003cf0:	e9d7 2330 	ldrd	r2, r3, [r7, #192]	@ 0xc0
 8003cf4:	e9c7 2326 	strd	r2, r3, [r7, #152]	@ 0x98
    s.x[3] = N0;
 8003cf8:	e9d7 232e 	ldrd	r2, r3, [r7, #184]	@ 0xb8
 8003cfc:	e9c7 2328 	strd	r2, r3, [r7, #160]	@ 0xa0
    s.x[4] = N1;
 8003d00:	e9d7 232c 	ldrd	r2, r3, [r7, #176]	@ 0xb0
 8003d04:	e9c7 232a 	strd	r2, r3, [r7, #168]	@ 0xa8
    P12(&s);
 8003d08:	f107 0388 	add.w	r3, r7, #136	@ 0x88
 8003d0c:	4618      	mov	r0, r3
 8003d0e:	f7ff ff59 	bl	8003bc4 <P12>
    s.x[3] ^= K0;
 8003d12:	e9d7 0128 	ldrd	r0, r1, [r7, #160]	@ 0xa0
 8003d16:	e9d7 2332 	ldrd	r2, r3, [r7, #200]	@ 0xc8
 8003d1a:	ea80 0802 	eor.w	r8, r0, r2
 8003d1e:	ea81 0903 	eor.w	r9, r1, r3
 8003d22:	e9c7 8928 	strd	r8, r9, [r7, #160]	@ 0xa0
    s.x[4] ^= K1;
 8003d26:	e9d7 012a 	ldrd	r0, r1, [r7, #168]	@ 0xa8
 8003d2a:	e9d7 2330 	ldrd	r2, r3, [r7, #192]	@ 0xc0
 8003d2e:	ea80 0402 	eor.w	r4, r0, r2
 8003d32:	66bc      	str	r4, [r7, #104]	@ 0x68
 8003d34:	404b      	eors	r3, r1
 8003d36:	66fb      	str	r3, [r7, #108]	@ 0x6c
 8003d38:	e9d7 341a 	ldrd	r3, r4, [r7, #104]	@ 0x68
 8003d3c:	e9c7 342a 	strd	r3, r4, [r7, #168]	@ 0xa8

    while (adlen >= ASCON_128_RATE) {
 8003d40:	e025      	b.n	8003d8e <ascon128_aead_encrypt+0x116>
        s.x[0] ^= LOADBYTES(ad, 8);
 8003d42:	2108      	movs	r1, #8
 8003d44:	f8d7 00f8 	ldr.w	r0, [r7, #248]	@ 0xf8
 8003d48:	f7ff fc53 	bl	80035f2 <LOADBYTES>
 8003d4c:	e9d7 2322 	ldrd	r2, r3, [r7, #136]	@ 0x88
 8003d50:	ea80 0402 	eor.w	r4, r0, r2
 8003d54:	663c      	str	r4, [r7, #96]	@ 0x60
 8003d56:	404b      	eors	r3, r1
 8003d58:	667b      	str	r3, [r7, #100]	@ 0x64
 8003d5a:	e9d7 3418 	ldrd	r3, r4, [r7, #96]	@ 0x60
 8003d5e:	e9c7 3422 	strd	r3, r4, [r7, #136]	@ 0x88
        P6(&s);
 8003d62:	f107 0388 	add.w	r3, r7, #136	@ 0x88
 8003d66:	4618      	mov	r0, r3
 8003d68:	f7ff ff64 	bl	8003c34 <P6>
        ad += ASCON_128_RATE;
 8003d6c:	f8d7 30f8 	ldr.w	r3, [r7, #248]	@ 0xf8
 8003d70:	3308      	adds	r3, #8
 8003d72:	f8c7 30f8 	str.w	r3, [r7, #248]	@ 0xf8
        adlen -= ASCON_128_RATE;
 8003d76:	e9d7 2340 	ldrd	r2, r3, [r7, #256]	@ 0x100
 8003d7a:	f1b2 0108 	subs.w	r1, r2, #8
 8003d7e:	60b9      	str	r1, [r7, #8]
 8003d80:	f143 33ff 	adc.w	r3, r3, #4294967295
 8003d84:	60fb      	str	r3, [r7, #12]
 8003d86:	e9d7 3402 	ldrd	r3, r4, [r7, #8]
 8003d8a:	e9c7 3440 	strd	r3, r4, [r7, #256]	@ 0x100
    while (adlen >= ASCON_128_RATE) {
 8003d8e:	e9d7 2340 	ldrd	r2, r3, [r7, #256]	@ 0x100
 8003d92:	2a08      	cmp	r2, #8
 8003d94:	f173 0300 	sbcs.w	r3, r3, #0
 8003d98:	d2d3      	bcs.n	8003d42 <ascon128_aead_encrypt+0xca>
    }
    s.x[0] ^= LOADBYTES(ad, (int)adlen);
 8003d9a:	f8d7 3100 	ldr.w	r3, [r7, #256]	@ 0x100
 8003d9e:	4619      	mov	r1, r3
 8003da0:	f8d7 00f8 	ldr.w	r0, [r7, #248]	@ 0xf8
 8003da4:	f7ff fc25 	bl	80035f2 <LOADBYTES>
 8003da8:	e9d7 2322 	ldrd	r2, r3, [r7, #136]	@ 0x88
 8003dac:	ea80 0402 	eor.w	r4, r0, r2
 8003db0:	65bc      	str	r4, [r7, #88]	@ 0x58
 8003db2:	404b      	eors	r3, r1
 8003db4:	65fb      	str	r3, [r7, #92]	@ 0x5c
 8003db6:	e9d7 3416 	ldrd	r3, r4, [r7, #88]	@ 0x58
 8003dba:	e9c7 3422 	strd	r3, r4, [r7, #136]	@ 0x88
    s.x[0] ^= PAD((int)adlen);
 8003dbe:	e9d7 8922 	ldrd	r8, r9, [r7, #136]	@ 0x88
 8003dc2:	f8d7 3100 	ldr.w	r3, [r7, #256]	@ 0x100
 8003dc6:	00dc      	lsls	r4, r3, #3
 8003dc8:	f04f 0201 	mov.w	r2, #1
 8003dcc:	f04f 0300 	mov.w	r3, #0
 8003dd0:	f1a4 0120 	sub.w	r1, r4, #32
 8003dd4:	f1c4 0020 	rsb	r0, r4, #32
 8003dd8:	fa03 fb04 	lsl.w	fp, r3, r4
 8003ddc:	fa02 f101 	lsl.w	r1, r2, r1
 8003de0:	ea4b 0b01 	orr.w	fp, fp, r1
 8003de4:	fa22 f000 	lsr.w	r0, r2, r0
 8003de8:	ea4b 0b00 	orr.w	fp, fp, r0
 8003dec:	fa02 fa04 	lsl.w	sl, r2, r4
 8003df0:	ea88 030a 	eor.w	r3, r8, sl
 8003df4:	653b      	str	r3, [r7, #80]	@ 0x50
 8003df6:	ea89 030b 	eor.w	r3, r9, fp
 8003dfa:	657b      	str	r3, [r7, #84]	@ 0x54
 8003dfc:	e9d7 3414 	ldrd	r3, r4, [r7, #80]	@ 0x50
 8003e00:	e9c7 3422 	strd	r3, r4, [r7, #136]	@ 0x88
    P6(&s);
 8003e04:	f107 0388 	add.w	r3, r7, #136	@ 0x88
 8003e08:	4618      	mov	r0, r3
 8003e0a:	f7ff ff13 	bl	8003c34 <P6>
    s.x[4] ^= DSEP();
 8003e0e:	e9d7 232a 	ldrd	r2, r3, [r7, #168]	@ 0xa8
 8003e12:	64ba      	str	r2, [r7, #72]	@ 0x48
 8003e14:	f103 4300 	add.w	r3, r3, #2147483648	@ 0x80000000
 8003e18:	64fb      	str	r3, [r7, #76]	@ 0x4c
 8003e1a:	e9d7 3412 	ldrd	r3, r4, [r7, #72]	@ 0x48
 8003e1e:	e9c7 342a 	strd	r3, r4, [r7, #168]	@ 0xa8

    while (mlen >= ASCON_128_RATE) {
 8003e22:	e031      	b.n	8003e88 <ascon128_aead_encrypt+0x210>
        s.x[0] ^= LOADBYTES(m, 8);
 8003e24:	2108      	movs	r1, #8
 8003e26:	6ff8      	ldr	r0, [r7, #124]	@ 0x7c
 8003e28:	f7ff fbe3 	bl	80035f2 <LOADBYTES>
 8003e2c:	e9d7 2322 	ldrd	r2, r3, [r7, #136]	@ 0x88
 8003e30:	ea80 0402 	eor.w	r4, r0, r2
 8003e34:	643c      	str	r4, [r7, #64]	@ 0x40
 8003e36:	404b      	eors	r3, r1
 8003e38:	647b      	str	r3, [r7, #68]	@ 0x44
 8003e3a:	e9d7 3410 	ldrd	r3, r4, [r7, #64]	@ 0x40
 8003e3e:	e9c7 3422 	strd	r3, r4, [r7, #136]	@ 0x88
        STOREBYTES(c, s.x[0], 8);
 8003e42:	e9d7 0122 	ldrd	r0, r1, [r7, #136]	@ 0x88
 8003e46:	2308      	movs	r3, #8
 8003e48:	9300      	str	r3, [sp, #0]
 8003e4a:	4602      	mov	r2, r0
 8003e4c:	460b      	mov	r3, r1
 8003e4e:	f8d7 0084 	ldr.w	r0, [r7, #132]	@ 0x84
 8003e52:	f7ff fc0d 	bl	8003670 <STOREBYTES>
        P6(&s);
 8003e56:	f107 0388 	add.w	r3, r7, #136	@ 0x88
 8003e5a:	4618      	mov	r0, r3
 8003e5c:	f7ff feea 	bl	8003c34 <P6>
        m += ASCON_128_RATE;
 8003e60:	6ffb      	ldr	r3, [r7, #124]	@ 0x7c
 8003e62:	3308      	adds	r3, #8
 8003e64:	67fb      	str	r3, [r7, #124]	@ 0x7c
        c += ASCON_128_RATE;
 8003e66:	f8d7 3084 	ldr.w	r3, [r7, #132]	@ 0x84
 8003e6a:	3308      	adds	r3, #8
 8003e6c:	f8c7 3084 	str.w	r3, [r7, #132]	@ 0x84
        mlen -= ASCON_128_RATE;
 8003e70:	e9d7 233c 	ldrd	r2, r3, [r7, #240]	@ 0xf0
 8003e74:	f1b2 0108 	subs.w	r1, r2, #8
 8003e78:	6039      	str	r1, [r7, #0]
 8003e7a:	f143 33ff 	adc.w	r3, r3, #4294967295
 8003e7e:	607b      	str	r3, [r7, #4]
 8003e80:	e9d7 3400 	ldrd	r3, r4, [r7]
 8003e84:	e9c7 343c 	strd	r3, r4, [r7, #240]	@ 0xf0
    while (mlen >= ASCON_128_RATE) {
 8003e88:	e9d7 233c 	ldrd	r2, r3, [r7, #240]	@ 0xf0
 8003e8c:	2a08      	cmp	r2, #8
 8003e8e:	f173 0300 	sbcs.w	r3, r3, #0
 8003e92:	d2c7      	bcs.n	8003e24 <ascon128_aead_encrypt+0x1ac>
    }

    s.x[0] ^= LOADBYTES(m, (int)mlen);
 8003e94:	f8d7 30f0 	ldr.w	r3, [r7, #240]	@ 0xf0
 8003e98:	4619      	mov	r1, r3
 8003e9a:	6ff8      	ldr	r0, [r7, #124]	@ 0x7c
 8003e9c:	f7ff fba9 	bl	80035f2 <LOADBYTES>
 8003ea0:	e9d7 2322 	ldrd	r2, r3, [r7, #136]	@ 0x88
 8003ea4:	ea80 0402 	eor.w	r4, r0, r2
 8003ea8:	63bc      	str	r4, [r7, #56]	@ 0x38
 8003eaa:	404b      	eors	r3, r1
 8003eac:	63fb      	str	r3, [r7, #60]	@ 0x3c
 8003eae:	e9d7 340e 	ldrd	r3, r4, [r7, #56]	@ 0x38
 8003eb2:	e9c7 3422 	strd	r3, r4, [r7, #136]	@ 0x88
    STOREBYTES(c, s.x[0], (int)mlen);
 8003eb6:	e9d7 0122 	ldrd	r0, r1, [r7, #136]	@ 0x88
 8003eba:	f8d7 30f0 	ldr.w	r3, [r7, #240]	@ 0xf0
 8003ebe:	9300      	str	r3, [sp, #0]
 8003ec0:	4602      	mov	r2, r0
 8003ec2:	460b      	mov	r3, r1
 8003ec4:	f8d7 0084 	ldr.w	r0, [r7, #132]	@ 0x84
 8003ec8:	f7ff fbd2 	bl	8003670 <STOREBYTES>
    s.x[0] ^= PAD((int)mlen);
 8003ecc:	e9d7 8922 	ldrd	r8, r9, [r7, #136]	@ 0x88
 8003ed0:	f8d7 30f0 	ldr.w	r3, [r7, #240]	@ 0xf0
 8003ed4:	00dc      	lsls	r4, r3, #3
 8003ed6:	f04f 0201 	mov.w	r2, #1
 8003eda:	f04f 0300 	mov.w	r3, #0
 8003ede:	f1a4 0120 	sub.w	r1, r4, #32
 8003ee2:	f1c4 0020 	rsb	r0, r4, #32
 8003ee6:	fa03 f504 	lsl.w	r5, r3, r4
 8003eea:	677d      	str	r5, [r7, #116]	@ 0x74
 8003eec:	fa02 f101 	lsl.w	r1, r2, r1
 8003ef0:	6f7d      	ldr	r5, [r7, #116]	@ 0x74
 8003ef2:	430d      	orrs	r5, r1
 8003ef4:	677d      	str	r5, [r7, #116]	@ 0x74
 8003ef6:	fa22 f000 	lsr.w	r0, r2, r0
 8003efa:	6f79      	ldr	r1, [r7, #116]	@ 0x74
 8003efc:	4301      	orrs	r1, r0
 8003efe:	6779      	str	r1, [r7, #116]	@ 0x74
 8003f00:	fa02 f304 	lsl.w	r3, r2, r4
 8003f04:	673b      	str	r3, [r7, #112]	@ 0x70
 8003f06:	e9d7 121c 	ldrd	r1, r2, [r7, #112]	@ 0x70
 8003f0a:	460b      	mov	r3, r1
 8003f0c:	ea88 0303 	eor.w	r3, r8, r3
 8003f10:	633b      	str	r3, [r7, #48]	@ 0x30
 8003f12:	4613      	mov	r3, r2
 8003f14:	ea89 0303 	eor.w	r3, r9, r3
 8003f18:	637b      	str	r3, [r7, #52]	@ 0x34
 8003f1a:	e9d7 340c 	ldrd	r3, r4, [r7, #48]	@ 0x30
 8003f1e:	e9c7 3422 	strd	r3, r4, [r7, #136]	@ 0x88
    c += mlen;
 8003f22:	f8d7 30f0 	ldr.w	r3, [r7, #240]	@ 0xf0
 8003f26:	f8d7 2084 	ldr.w	r2, [r7, #132]	@ 0x84
 8003f2a:	4413      	add	r3, r2
 8003f2c:	f8c7 3084 	str.w	r3, [r7, #132]	@ 0x84

    s.x[1] ^= K0;
 8003f30:	e9d7 0124 	ldrd	r0, r1, [r7, #144]	@ 0x90
 8003f34:	e9d7 2332 	ldrd	r2, r3, [r7, #200]	@ 0xc8
 8003f38:	ea80 0402 	eor.w	r4, r0, r2
 8003f3c:	62bc      	str	r4, [r7, #40]	@ 0x28
 8003f3e:	404b      	eors	r3, r1
 8003f40:	62fb      	str	r3, [r7, #44]	@ 0x2c
 8003f42:	e9d7 340a 	ldrd	r3, r4, [r7, #40]	@ 0x28
 8003f46:	e9c7 3424 	strd	r3, r4, [r7, #144]	@ 0x90
    s.x[2] ^= K1;
 8003f4a:	e9d7 0126 	ldrd	r0, r1, [r7, #152]	@ 0x98
 8003f4e:	e9d7 2330 	ldrd	r2, r3, [r7, #192]	@ 0xc0
 8003f52:	ea80 0402 	eor.w	r4, r0, r2
 8003f56:	623c      	str	r4, [r7, #32]
 8003f58:	404b      	eors	r3, r1
 8003f5a:	627b      	str	r3, [r7, #36]	@ 0x24
 8003f5c:	e9d7 3408 	ldrd	r3, r4, [r7, #32]
 8003f60:	e9c7 3426 	strd	r3, r4, [r7, #152]	@ 0x98
    P12(&s);
 8003f64:	f107 0388 	add.w	r3, r7, #136	@ 0x88
 8003f68:	4618      	mov	r0, r3
 8003f6a:	f7ff fe2b 	bl	8003bc4 <P12>
    s.x[3] ^= K0;
 8003f6e:	e9d7 0128 	ldrd	r0, r1, [r7, #160]	@ 0xa0
 8003f72:	e9d7 2332 	ldrd	r2, r3, [r7, #200]	@ 0xc8
 8003f76:	ea80 0402 	eor.w	r4, r0, r2
 8003f7a:	61bc      	str	r4, [r7, #24]
 8003f7c:	404b      	eors	r3, r1
 8003f7e:	61fb      	str	r3, [r7, #28]
 8003f80:	e9d7 3406 	ldrd	r3, r4, [r7, #24]
 8003f84:	e9c7 3428 	strd	r3, r4, [r7, #160]	@ 0xa0
    s.x[4] ^= K1;
 8003f88:	e9d7 012a 	ldrd	r0, r1, [r7, #168]	@ 0xa8
 8003f8c:	e9d7 2330 	ldrd	r2, r3, [r7, #192]	@ 0xc0
 8003f90:	ea80 0402 	eor.w	r4, r0, r2
 8003f94:	613c      	str	r4, [r7, #16]
 8003f96:	404b      	eors	r3, r1
 8003f98:	617b      	str	r3, [r7, #20]
 8003f9a:	e9d7 3404 	ldrd	r3, r4, [r7, #16]
 8003f9e:	e9c7 342a 	strd	r3, r4, [r7, #168]	@ 0xa8

    STOREBYTES(c, s.x[3], 8);
 8003fa2:	e9d7 2328 	ldrd	r2, r3, [r7, #160]	@ 0xa0
 8003fa6:	2108      	movs	r1, #8
 8003fa8:	9100      	str	r1, [sp, #0]
 8003faa:	f8d7 0084 	ldr.w	r0, [r7, #132]	@ 0x84
 8003fae:	f7ff fb5f 	bl	8003670 <STOREBYTES>
    STOREBYTES(c + 8, s.x[4], 8);
 8003fb2:	f8d7 3084 	ldr.w	r3, [r7, #132]	@ 0x84
 8003fb6:	f103 0108 	add.w	r1, r3, #8
 8003fba:	e9d7 232a 	ldrd	r2, r3, [r7, #168]	@ 0xa8
 8003fbe:	2008      	movs	r0, #8
 8003fc0:	9000      	str	r0, [sp, #0]
 8003fc2:	4608      	mov	r0, r1
 8003fc4:	f7ff fb54 	bl	8003670 <STOREBYTES>

    return 0;
 8003fc8:	2300      	movs	r3, #0
}
 8003fca:	4618      	mov	r0, r3
 8003fcc:	37d0      	adds	r7, #208	@ 0xd0
 8003fce:	46bd      	mov	sp, r7
 8003fd0:	e8bd 8fb0 	ldmia.w	sp!, {r4, r5, r7, r8, r9, sl, fp, pc}
 8003fd4:	f3af 8000 	nop.w
 8003fd8:	806c0001 	.word	0x806c0001
 8003fdc:	00000800 	.word	0x00000800

08003fe0 <ascon128_aead_decrypt>:

int ascon128_aead_decrypt(unsigned char *m, unsigned long long *mlen,
                          unsigned char *nsec, const unsigned char *c,
                          unsigned long long clen, const unsigned char *ad,
                          unsigned long long adlen, const unsigned char *npub,
                          const unsigned char *k) {
 8003fe0:	e92d 4ff0 	stmdb	sp!, {r4, r5, r6, r7, r8, r9, sl, fp, lr}
 8003fe4:	b0c7      	sub	sp, #284	@ 0x11c
 8003fe6:	af02      	add	r7, sp, #8
 8003fe8:	f8c7 008c 	str.w	r0, [r7, #140]	@ 0x8c
 8003fec:	f8c7 1088 	str.w	r1, [r7, #136]	@ 0x88
 8003ff0:	f8c7 2084 	str.w	r2, [r7, #132]	@ 0x84
 8003ff4:	f8c7 3080 	str.w	r3, [r7, #128]	@ 0x80
    const uint64_t K0 = LOADBYTES(k, 8);
 8003ff8:	2108      	movs	r1, #8
 8003ffa:	f8d7 0154 	ldr.w	r0, [r7, #340]	@ 0x154
 8003ffe:	f7ff faf8 	bl	80035f2 <LOADBYTES>
 8004002:	e9c7 013e 	strd	r0, r1, [r7, #248]	@ 0xf8
    const uint64_t K1 = LOADBYTES(k + 8, 8);
 8004006:	f8d7 3154 	ldr.w	r3, [r7, #340]	@ 0x154
 800400a:	3308      	adds	r3, #8
 800400c:	2108      	movs	r1, #8
 800400e:	4618      	mov	r0, r3
 8004010:	f7ff faef 	bl	80035f2 <LOADBYTES>
 8004014:	e9c7 013c 	strd	r0, r1, [r7, #240]	@ 0xf0
    const uint64_t N0 = LOADBYTES(npub, 8);
 8004018:	2108      	movs	r1, #8
 800401a:	f8d7 0150 	ldr.w	r0, [r7, #336]	@ 0x150
 800401e:	f7ff fae8 	bl	80035f2 <LOADBYTES>
 8004022:	e9c7 013a 	strd	r0, r1, [r7, #232]	@ 0xe8
    const uint64_t N1 = LOADBYTES(npub + 8, 8);
 8004026:	f8d7 3150 	ldr.w	r3, [r7, #336]	@ 0x150
 800402a:	3308      	adds	r3, #8
 800402c:	2108      	movs	r1, #8
 800402e:	4618      	mov	r0, r3
 8004030:	f7ff fadf 	bl	80035f2 <LOADBYTES>
 8004034:	e9c7 0138 	strd	r0, r1, [r7, #224]	@ 0xe0
    const unsigned char *tag;
    unsigned long long remaining;
    ascon_state_t s;
    int i;
    int diff = 0;
 8004038:	2300      	movs	r3, #0
 800403a:	f8c7 3100 	str.w	r3, [r7, #256]	@ 0x100
    unsigned char t[ASCON128_ABYTES];

    (void)nsec;

    if (clen < ASCON128_ABYTES) {
 800403e:	e9d7 234e 	ldrd	r2, r3, [r7, #312]	@ 0x138
 8004042:	2a10      	cmp	r2, #16
 8004044:	f173 0300 	sbcs.w	r3, r3, #0
 8004048:	d202      	bcs.n	8004050 <ascon128_aead_decrypt+0x70>
        return -1;
 800404a:	f04f 33ff 	mov.w	r3, #4294967295
 800404e:	e1c4      	b.n	80043da <ascon128_aead_decrypt+0x3fa>
    }

    *mlen = clen - ASCON128_ABYTES;
 8004050:	e9d7 234e 	ldrd	r2, r3, [r7, #312]	@ 0x138
 8004054:	f1b2 0810 	subs.w	r8, r2, #16
 8004058:	f143 39ff 	adc.w	r9, r3, #4294967295
 800405c:	f8d7 3088 	ldr.w	r3, [r7, #136]	@ 0x88
 8004060:	e9c3 8900 	strd	r8, r9, [r3]
    tag = c + *mlen;
 8004064:	f8d7 3088 	ldr.w	r3, [r7, #136]	@ 0x88
 8004068:	e9d3 2300 	ldrd	r2, r3, [r3]
 800406c:	f8d7 3080 	ldr.w	r3, [r7, #128]	@ 0x80
 8004070:	4413      	add	r3, r2
 8004072:	f8c7 30dc 	str.w	r3, [r7, #220]	@ 0xdc
    remaining = *mlen;
 8004076:	f8d7 3088 	ldr.w	r3, [r7, #136]	@ 0x88
 800407a:	e9d3 2300 	ldrd	r2, r3, [r3]
 800407e:	e9c7 2342 	strd	r2, r3, [r7, #264]	@ 0x108

    s.x[0] = ASCON_128_IV;
 8004082:	a3d9      	add	r3, pc, #868	@ (adr r3, 80043e8 <ascon128_aead_decrypt+0x408>)
 8004084:	e9d3 2300 	ldrd	r2, r3, [r3]
 8004088:	e9c7 2328 	strd	r2, r3, [r7, #160]	@ 0xa0
    s.x[1] = K0;
 800408c:	e9d7 233e 	ldrd	r2, r3, [r7, #248]	@ 0xf8
 8004090:	e9c7 232a 	strd	r2, r3, [r7, #168]	@ 0xa8
    s.x[2] = K1;
 8004094:	e9d7 233c 	ldrd	r2, r3, [r7, #240]	@ 0xf0
 8004098:	e9c7 232c 	strd	r2, r3, [r7, #176]	@ 0xb0
    s.x[3] = N0;
 800409c:	e9d7 233a 	ldrd	r2, r3, [r7, #232]	@ 0xe8
 80040a0:	e9c7 232e 	strd	r2, r3, [r7, #184]	@ 0xb8
    s.x[4] = N1;
 80040a4:	e9d7 2338 	ldrd	r2, r3, [r7, #224]	@ 0xe0
 80040a8:	e9c7 2330 	strd	r2, r3, [r7, #192]	@ 0xc0
    P12(&s);
 80040ac:	f107 03a0 	add.w	r3, r7, #160	@ 0xa0
 80040b0:	4618      	mov	r0, r3
 80040b2:	f7ff fd87 	bl	8003bc4 <P12>
    s.x[3] ^= K0;
 80040b6:	e9d7 012e 	ldrd	r0, r1, [r7, #184]	@ 0xb8
 80040ba:	e9d7 233e 	ldrd	r2, r3, [r7, #248]	@ 0xf8
 80040be:	ea80 0402 	eor.w	r4, r0, r2
 80040c2:	67bc      	str	r4, [r7, #120]	@ 0x78
 80040c4:	404b      	eors	r3, r1
 80040c6:	67fb      	str	r3, [r7, #124]	@ 0x7c
 80040c8:	e9d7 341e 	ldrd	r3, r4, [r7, #120]	@ 0x78
 80040cc:	e9c7 342e 	strd	r3, r4, [r7, #184]	@ 0xb8
    s.x[4] ^= K1;
 80040d0:	e9d7 0130 	ldrd	r0, r1, [r7, #192]	@ 0xc0
 80040d4:	e9d7 233c 	ldrd	r2, r3, [r7, #240]	@ 0xf0
 80040d8:	ea80 0402 	eor.w	r4, r0, r2
 80040dc:	673c      	str	r4, [r7, #112]	@ 0x70
 80040de:	404b      	eors	r3, r1
 80040e0:	677b      	str	r3, [r7, #116]	@ 0x74
 80040e2:	e9d7 341c 	ldrd	r3, r4, [r7, #112]	@ 0x70
 80040e6:	e9c7 3430 	strd	r3, r4, [r7, #192]	@ 0xc0

    while (adlen >= ASCON_128_RATE) {
 80040ea:	e025      	b.n	8004138 <ascon128_aead_decrypt+0x158>
        s.x[0] ^= LOADBYTES(ad, 8);
 80040ec:	2108      	movs	r1, #8
 80040ee:	f8d7 0140 	ldr.w	r0, [r7, #320]	@ 0x140
 80040f2:	f7ff fa7e 	bl	80035f2 <LOADBYTES>
 80040f6:	e9d7 2328 	ldrd	r2, r3, [r7, #160]	@ 0xa0
 80040fa:	ea80 0402 	eor.w	r4, r0, r2
 80040fe:	66bc      	str	r4, [r7, #104]	@ 0x68
 8004100:	404b      	eors	r3, r1
 8004102:	66fb      	str	r3, [r7, #108]	@ 0x6c
 8004104:	e9d7 341a 	ldrd	r3, r4, [r7, #104]	@ 0x68
 8004108:	e9c7 3428 	strd	r3, r4, [r7, #160]	@ 0xa0
        P6(&s);
 800410c:	f107 03a0 	add.w	r3, r7, #160	@ 0xa0
 8004110:	4618      	mov	r0, r3
 8004112:	f7ff fd8f 	bl	8003c34 <P6>
        ad += ASCON_128_RATE;
 8004116:	f8d7 3140 	ldr.w	r3, [r7, #320]	@ 0x140
 800411a:	3308      	adds	r3, #8
 800411c:	f8c7 3140 	str.w	r3, [r7, #320]	@ 0x140
        adlen -= ASCON_128_RATE;
 8004120:	e9d7 2352 	ldrd	r2, r3, [r7, #328]	@ 0x148
 8004124:	f1b2 0108 	subs.w	r1, r2, #8
 8004128:	60b9      	str	r1, [r7, #8]
 800412a:	f143 33ff 	adc.w	r3, r3, #4294967295
 800412e:	60fb      	str	r3, [r7, #12]
 8004130:	e9d7 3402 	ldrd	r3, r4, [r7, #8]
 8004134:	e9c7 3452 	strd	r3, r4, [r7, #328]	@ 0x148
    while (adlen >= ASCON_128_RATE) {
 8004138:	e9d7 2352 	ldrd	r2, r3, [r7, #328]	@ 0x148
 800413c:	2a08      	cmp	r2, #8
 800413e:	f173 0300 	sbcs.w	r3, r3, #0
 8004142:	d2d3      	bcs.n	80040ec <ascon128_aead_decrypt+0x10c>
    }
    s.x[0] ^= LOADBYTES(ad, (int)adlen);
 8004144:	f8d7 3148 	ldr.w	r3, [r7, #328]	@ 0x148
 8004148:	4619      	mov	r1, r3
 800414a:	f8d7 0140 	ldr.w	r0, [r7, #320]	@ 0x140
 800414e:	f7ff fa50 	bl	80035f2 <LOADBYTES>
 8004152:	e9d7 2328 	ldrd	r2, r3, [r7, #160]	@ 0xa0
 8004156:	ea80 0402 	eor.w	r4, r0, r2
 800415a:	663c      	str	r4, [r7, #96]	@ 0x60
 800415c:	404b      	eors	r3, r1
 800415e:	667b      	str	r3, [r7, #100]	@ 0x64
 8004160:	e9d7 3418 	ldrd	r3, r4, [r7, #96]	@ 0x60
 8004164:	e9c7 3428 	strd	r3, r4, [r7, #160]	@ 0xa0
    s.x[0] ^= PAD((int)adlen);
 8004168:	e9d7 8928 	ldrd	r8, r9, [r7, #160]	@ 0xa0
 800416c:	f8d7 3148 	ldr.w	r3, [r7, #328]	@ 0x148
 8004170:	00dc      	lsls	r4, r3, #3
 8004172:	f04f 0201 	mov.w	r2, #1
 8004176:	f04f 0300 	mov.w	r3, #0
 800417a:	f1a4 0120 	sub.w	r1, r4, #32
 800417e:	f1c4 0020 	rsb	r0, r4, #32
 8004182:	fa03 fb04 	lsl.w	fp, r3, r4
 8004186:	fa02 f101 	lsl.w	r1, r2, r1
 800418a:	ea4b 0b01 	orr.w	fp, fp, r1
 800418e:	fa22 f000 	lsr.w	r0, r2, r0
 8004192:	ea4b 0b00 	orr.w	fp, fp, r0
 8004196:	fa02 fa04 	lsl.w	sl, r2, r4
 800419a:	ea88 030a 	eor.w	r3, r8, sl
 800419e:	65bb      	str	r3, [r7, #88]	@ 0x58
 80041a0:	ea89 030b 	eor.w	r3, r9, fp
 80041a4:	65fb      	str	r3, [r7, #92]	@ 0x5c
 80041a6:	e9d7 3416 	ldrd	r3, r4, [r7, #88]	@ 0x58
 80041aa:	e9c7 3428 	strd	r3, r4, [r7, #160]	@ 0xa0
    P6(&s);
 80041ae:	f107 03a0 	add.w	r3, r7, #160	@ 0xa0
 80041b2:	4618      	mov	r0, r3
 80041b4:	f7ff fd3e 	bl	8003c34 <P6>
    s.x[4] ^= DSEP();
 80041b8:	e9d7 2330 	ldrd	r2, r3, [r7, #192]	@ 0xc0
 80041bc:	653a      	str	r2, [r7, #80]	@ 0x50
 80041be:	f103 4300 	add.w	r3, r3, #2147483648	@ 0x80000000
 80041c2:	657b      	str	r3, [r7, #84]	@ 0x54
 80041c4:	e9d7 3414 	ldrd	r3, r4, [r7, #80]	@ 0x50
 80041c8:	e9c7 3430 	strd	r3, r4, [r7, #192]	@ 0xc0

    while (remaining >= ASCON_128_RATE) {
 80041cc:	e036      	b.n	800423c <ascon128_aead_decrypt+0x25c>
        uint64_t c0 = LOADBYTES(c, 8);
 80041ce:	2108      	movs	r1, #8
 80041d0:	f8d7 0080 	ldr.w	r0, [r7, #128]	@ 0x80
 80041d4:	f7ff fa0d 	bl	80035f2 <LOADBYTES>
 80041d8:	e9c7 0132 	strd	r0, r1, [r7, #200]	@ 0xc8
        STOREBYTES(m, s.x[0] ^ c0, 8);
 80041dc:	e9d7 0128 	ldrd	r0, r1, [r7, #160]	@ 0xa0
 80041e0:	e9d7 2332 	ldrd	r2, r3, [r7, #200]	@ 0xc8
 80041e4:	ea80 0402 	eor.w	r4, r0, r2
 80041e8:	64bc      	str	r4, [r7, #72]	@ 0x48
 80041ea:	404b      	eors	r3, r1
 80041ec:	64fb      	str	r3, [r7, #76]	@ 0x4c
 80041ee:	2308      	movs	r3, #8
 80041f0:	9300      	str	r3, [sp, #0]
 80041f2:	e9d7 2312 	ldrd	r2, r3, [r7, #72]	@ 0x48
 80041f6:	f8d7 008c 	ldr.w	r0, [r7, #140]	@ 0x8c
 80041fa:	f7ff fa39 	bl	8003670 <STOREBYTES>
        s.x[0] = c0;
 80041fe:	e9d7 2332 	ldrd	r2, r3, [r7, #200]	@ 0xc8
 8004202:	e9c7 2328 	strd	r2, r3, [r7, #160]	@ 0xa0
        P6(&s);
 8004206:	f107 03a0 	add.w	r3, r7, #160	@ 0xa0
 800420a:	4618      	mov	r0, r3
 800420c:	f7ff fd12 	bl	8003c34 <P6>
        m += ASCON_128_RATE;
 8004210:	f8d7 308c 	ldr.w	r3, [r7, #140]	@ 0x8c
 8004214:	3308      	adds	r3, #8
 8004216:	f8c7 308c 	str.w	r3, [r7, #140]	@ 0x8c
        c += ASCON_128_RATE;
 800421a:	f8d7 3080 	ldr.w	r3, [r7, #128]	@ 0x80
 800421e:	3308      	adds	r3, #8
 8004220:	f8c7 3080 	str.w	r3, [r7, #128]	@ 0x80
        remaining -= ASCON_128_RATE;
 8004224:	e9d7 2342 	ldrd	r2, r3, [r7, #264]	@ 0x108
 8004228:	f1b2 0108 	subs.w	r1, r2, #8
 800422c:	6039      	str	r1, [r7, #0]
 800422e:	f143 33ff 	adc.w	r3, r3, #4294967295
 8004232:	607b      	str	r3, [r7, #4]
 8004234:	e9d7 3400 	ldrd	r3, r4, [r7]
 8004238:	e9c7 3442 	strd	r3, r4, [r7, #264]	@ 0x108
    while (remaining >= ASCON_128_RATE) {
 800423c:	e9d7 2342 	ldrd	r2, r3, [r7, #264]	@ 0x108
 8004240:	2a08      	cmp	r2, #8
 8004242:	f173 0300 	sbcs.w	r3, r3, #0
 8004246:	d2c2      	bcs.n	80041ce <ascon128_aead_decrypt+0x1ee>
    }

    {
        uint64_t c0 = LOADBYTES(c, (int)remaining);
 8004248:	f8d7 3108 	ldr.w	r3, [r7, #264]	@ 0x108
 800424c:	4619      	mov	r1, r3
 800424e:	f8d7 0080 	ldr.w	r0, [r7, #128]	@ 0x80
 8004252:	f7ff f9ce 	bl	80035f2 <LOADBYTES>
 8004256:	e9c7 0134 	strd	r0, r1, [r7, #208]	@ 0xd0
        STOREBYTES(m, s.x[0] ^ c0, (int)remaining);
 800425a:	e9d7 0128 	ldrd	r0, r1, [r7, #160]	@ 0xa0
 800425e:	e9d7 2334 	ldrd	r2, r3, [r7, #208]	@ 0xd0
 8004262:	ea80 0402 	eor.w	r4, r0, r2
 8004266:	643c      	str	r4, [r7, #64]	@ 0x40
 8004268:	404b      	eors	r3, r1
 800426a:	647b      	str	r3, [r7, #68]	@ 0x44
 800426c:	f8d7 3108 	ldr.w	r3, [r7, #264]	@ 0x108
 8004270:	9300      	str	r3, [sp, #0]
 8004272:	e9d7 2310 	ldrd	r2, r3, [r7, #64]	@ 0x40
 8004276:	f8d7 008c 	ldr.w	r0, [r7, #140]	@ 0x8c
 800427a:	f7ff f9f9 	bl	8003670 <STOREBYTES>
        s.x[0] = CLEARBYTES(s.x[0], (int)remaining);
 800427e:	e9d7 0128 	ldrd	r0, r1, [r7, #160]	@ 0xa0
 8004282:	f8d7 3108 	ldr.w	r3, [r7, #264]	@ 0x108
 8004286:	461a      	mov	r2, r3
 8004288:	f7ff fa1f 	bl	80036ca <CLEARBYTES>
 800428c:	4602      	mov	r2, r0
 800428e:	460b      	mov	r3, r1
 8004290:	e9c7 2328 	strd	r2, r3, [r7, #160]	@ 0xa0
        s.x[0] |= c0;
 8004294:	e9d7 0128 	ldrd	r0, r1, [r7, #160]	@ 0xa0
 8004298:	e9d7 2334 	ldrd	r2, r3, [r7, #208]	@ 0xd0
 800429c:	ea40 0402 	orr.w	r4, r0, r2
 80042a0:	63bc      	str	r4, [r7, #56]	@ 0x38
 80042a2:	430b      	orrs	r3, r1
 80042a4:	63fb      	str	r3, [r7, #60]	@ 0x3c
 80042a6:	e9d7 340e 	ldrd	r3, r4, [r7, #56]	@ 0x38
 80042aa:	e9c7 3428 	strd	r3, r4, [r7, #160]	@ 0xa0
        s.x[0] ^= PAD((int)remaining);
 80042ae:	e9d7 8928 	ldrd	r8, r9, [r7, #160]	@ 0xa0
 80042b2:	f8d7 3108 	ldr.w	r3, [r7, #264]	@ 0x108
 80042b6:	00dc      	lsls	r4, r3, #3
 80042b8:	f04f 0201 	mov.w	r2, #1
 80042bc:	f04f 0300 	mov.w	r3, #0
 80042c0:	f1a4 0120 	sub.w	r1, r4, #32
 80042c4:	f1c4 0020 	rsb	r0, r4, #32
 80042c8:	fa03 f604 	lsl.w	r6, r3, r4
 80042cc:	fa02 f101 	lsl.w	r1, r2, r1
 80042d0:	430e      	orrs	r6, r1
 80042d2:	fa22 f000 	lsr.w	r0, r2, r0
 80042d6:	4306      	orrs	r6, r0
 80042d8:	fa02 f504 	lsl.w	r5, r2, r4
 80042dc:	ea88 0305 	eor.w	r3, r8, r5
 80042e0:	633b      	str	r3, [r7, #48]	@ 0x30
 80042e2:	ea89 0306 	eor.w	r3, r9, r6
 80042e6:	637b      	str	r3, [r7, #52]	@ 0x34
 80042e8:	e9d7 340c 	ldrd	r3, r4, [r7, #48]	@ 0x30
 80042ec:	e9c7 3428 	strd	r3, r4, [r7, #160]	@ 0xa0
    }

    s.x[1] ^= K0;
 80042f0:	e9d7 012a 	ldrd	r0, r1, [r7, #168]	@ 0xa8
 80042f4:	e9d7 233e 	ldrd	r2, r3, [r7, #248]	@ 0xf8
 80042f8:	ea80 0402 	eor.w	r4, r0, r2
 80042fc:	62bc      	str	r4, [r7, #40]	@ 0x28
 80042fe:	404b      	eors	r3, r1
 8004300:	62fb      	str	r3, [r7, #44]	@ 0x2c
 8004302:	e9d7 340a 	ldrd	r3, r4, [r7, #40]	@ 0x28
 8004306:	e9c7 342a 	strd	r3, r4, [r7, #168]	@ 0xa8
    s.x[2] ^= K1;
 800430a:	e9d7 012c 	ldrd	r0, r1, [r7, #176]	@ 0xb0
 800430e:	e9d7 233c 	ldrd	r2, r3, [r7, #240]	@ 0xf0
 8004312:	ea80 0402 	eor.w	r4, r0, r2
 8004316:	623c      	str	r4, [r7, #32]
 8004318:	404b      	eors	r3, r1
 800431a:	627b      	str	r3, [r7, #36]	@ 0x24
 800431c:	e9d7 3408 	ldrd	r3, r4, [r7, #32]
 8004320:	e9c7 342c 	strd	r3, r4, [r7, #176]	@ 0xb0
    P12(&s);
 8004324:	f107 03a0 	add.w	r3, r7, #160	@ 0xa0
 8004328:	4618      	mov	r0, r3
 800432a:	f7ff fc4b 	bl	8003bc4 <P12>
    s.x[3] ^= K0;
 800432e:	e9d7 012e 	ldrd	r0, r1, [r7, #184]	@ 0xb8
 8004332:	e9d7 233e 	ldrd	r2, r3, [r7, #248]	@ 0xf8
 8004336:	ea80 0402 	eor.w	r4, r0, r2
 800433a:	61bc      	str	r4, [r7, #24]
 800433c:	404b      	eors	r3, r1
 800433e:	61fb      	str	r3, [r7, #28]
 8004340:	e9d7 3406 	ldrd	r3, r4, [r7, #24]
 8004344:	e9c7 342e 	strd	r3, r4, [r7, #184]	@ 0xb8
    s.x[4] ^= K1;
 8004348:	e9d7 0130 	ldrd	r0, r1, [r7, #192]	@ 0xc0
 800434c:	e9d7 233c 	ldrd	r2, r3, [r7, #240]	@ 0xf0
 8004350:	ea80 0402 	eor.w	r4, r0, r2
 8004354:	613c      	str	r4, [r7, #16]
 8004356:	404b      	eors	r3, r1
 8004358:	617b      	str	r3, [r7, #20]
 800435a:	e9d7 3404 	ldrd	r3, r4, [r7, #16]
 800435e:	e9c7 3430 	strd	r3, r4, [r7, #192]	@ 0xc0

    STOREBYTES(t, s.x[3], 8);
 8004362:	e9d7 232e 	ldrd	r2, r3, [r7, #184]	@ 0xb8
 8004366:	f107 0190 	add.w	r1, r7, #144	@ 0x90
 800436a:	2008      	movs	r0, #8
 800436c:	9000      	str	r0, [sp, #0]
 800436e:	4608      	mov	r0, r1
 8004370:	f7ff f97e 	bl	8003670 <STOREBYTES>
    STOREBYTES(t + 8, s.x[4], 8);
 8004374:	f107 0190 	add.w	r1, r7, #144	@ 0x90
 8004378:	3108      	adds	r1, #8
 800437a:	e9d7 2330 	ldrd	r2, r3, [r7, #192]	@ 0xc0
 800437e:	2008      	movs	r0, #8
 8004380:	9000      	str	r0, [sp, #0]
 8004382:	4608      	mov	r0, r1
 8004384:	f7ff f974 	bl	8003670 <STOREBYTES>

    for (i = 0; i < ASCON128_ABYTES; ++i) {
 8004388:	2300      	movs	r3, #0
 800438a:	f8c7 3104 	str.w	r3, [r7, #260]	@ 0x104
 800438e:	e018      	b.n	80043c2 <ascon128_aead_decrypt+0x3e2>
        diff |= (int)(t[i] ^ tag[i]);
 8004390:	f107 0290 	add.w	r2, r7, #144	@ 0x90
 8004394:	f8d7 3104 	ldr.w	r3, [r7, #260]	@ 0x104
 8004398:	4413      	add	r3, r2
 800439a:	781a      	ldrb	r2, [r3, #0]
 800439c:	f8d7 3104 	ldr.w	r3, [r7, #260]	@ 0x104
 80043a0:	f8d7 10dc 	ldr.w	r1, [r7, #220]	@ 0xdc
 80043a4:	440b      	add	r3, r1
 80043a6:	781b      	ldrb	r3, [r3, #0]
 80043a8:	4053      	eors	r3, r2
 80043aa:	b2db      	uxtb	r3, r3
 80043ac:	461a      	mov	r2, r3
 80043ae:	f8d7 3100 	ldr.w	r3, [r7, #256]	@ 0x100
 80043b2:	4313      	orrs	r3, r2
 80043b4:	f8c7 3100 	str.w	r3, [r7, #256]	@ 0x100
    for (i = 0; i < ASCON128_ABYTES; ++i) {
 80043b8:	f8d7 3104 	ldr.w	r3, [r7, #260]	@ 0x104
 80043bc:	3301      	adds	r3, #1
 80043be:	f8c7 3104 	str.w	r3, [r7, #260]	@ 0x104
 80043c2:	f8d7 3104 	ldr.w	r3, [r7, #260]	@ 0x104
 80043c6:	2b0f      	cmp	r3, #15
 80043c8:	dde2      	ble.n	8004390 <ascon128_aead_decrypt+0x3b0>
    }

    return diff == 0 ? 0 : -1;
 80043ca:	f8d7 3100 	ldr.w	r3, [r7, #256]	@ 0x100
 80043ce:	2b00      	cmp	r3, #0
 80043d0:	d101      	bne.n	80043d6 <ascon128_aead_decrypt+0x3f6>
 80043d2:	2300      	movs	r3, #0
 80043d4:	e001      	b.n	80043da <ascon128_aead_decrypt+0x3fa>
 80043d6:	f04f 33ff 	mov.w	r3, #4294967295
}
 80043da:	4618      	mov	r0, r3
 80043dc:	f507 778a 	add.w	r7, r7, #276	@ 0x114
 80043e0:	46bd      	mov	sp, r7
 80043e2:	e8bd 8ff0 	ldmia.w	sp!, {r4, r5, r6, r7, r8, r9, sl, fp, pc}
 80043e6:	bf00      	nop
 80043e8:	806c0001 	.word	0x806c0001
 80043ec:	00000800 	.word	0x00000800

080043f0 <MX_GPIO_Init>:
        * EVENT_OUT
        * EXTI
     PA8   ------> RCC_MCO
*/
void MX_GPIO_Init(void)
{
 80043f0:	b580      	push	{r7, lr}
 80043f2:	b088      	sub	sp, #32
 80043f4:	af00      	add	r7, sp, #0

  GPIO_InitTypeDef GPIO_InitStruct = {0};
 80043f6:	f107 030c 	add.w	r3, r7, #12
 80043fa:	2200      	movs	r2, #0
 80043fc:	601a      	str	r2, [r3, #0]
 80043fe:	605a      	str	r2, [r3, #4]
 8004400:	609a      	str	r2, [r3, #8]
 8004402:	60da      	str	r2, [r3, #12]
 8004404:	611a      	str	r2, [r3, #16]

  /* GPIO Ports Clock Enable */
  __HAL_RCC_GPIOC_CLK_ENABLE();
 8004406:	4b17      	ldr	r3, [pc, #92]	@ (8004464 <MX_GPIO_Init+0x74>)
 8004408:	6cdb      	ldr	r3, [r3, #76]	@ 0x4c
 800440a:	4a16      	ldr	r2, [pc, #88]	@ (8004464 <MX_GPIO_Init+0x74>)
 800440c:	f043 0304 	orr.w	r3, r3, #4
 8004410:	64d3      	str	r3, [r2, #76]	@ 0x4c
 8004412:	4b14      	ldr	r3, [pc, #80]	@ (8004464 <MX_GPIO_Init+0x74>)
 8004414:	6cdb      	ldr	r3, [r3, #76]	@ 0x4c
 8004416:	f003 0304 	and.w	r3, r3, #4
 800441a:	60bb      	str	r3, [r7, #8]
 800441c:	68bb      	ldr	r3, [r7, #8]
  __HAL_RCC_GPIOA_CLK_ENABLE();
 800441e:	4b11      	ldr	r3, [pc, #68]	@ (8004464 <MX_GPIO_Init+0x74>)
 8004420:	6cdb      	ldr	r3, [r3, #76]	@ 0x4c
 8004422:	4a10      	ldr	r2, [pc, #64]	@ (8004464 <MX_GPIO_Init+0x74>)
 8004424:	f043 0301 	orr.w	r3, r3, #1
 8004428:	64d3      	str	r3, [r2, #76]	@ 0x4c
 800442a:	4b0e      	ldr	r3, [pc, #56]	@ (8004464 <MX_GPIO_Init+0x74>)
 800442c:	6cdb      	ldr	r3, [r3, #76]	@ 0x4c
 800442e:	f003 0301 	and.w	r3, r3, #1
 8004432:	607b      	str	r3, [r7, #4]
 8004434:	687b      	ldr	r3, [r7, #4]

  /*Configure GPIO pin : PA8 */
  GPIO_InitStruct.Pin = GPIO_PIN_8;
 8004436:	f44f 7380 	mov.w	r3, #256	@ 0x100
 800443a:	60fb      	str	r3, [r7, #12]
  GPIO_InitStruct.Mode = GPIO_MODE_AF_PP;
 800443c:	2302      	movs	r3, #2
 800443e:	613b      	str	r3, [r7, #16]
  GPIO_InitStruct.Pull = GPIO_NOPULL;
 8004440:	2300      	movs	r3, #0
 8004442:	617b      	str	r3, [r7, #20]
  GPIO_InitStruct.Speed = GPIO_SPEED_FREQ_LOW;
 8004444:	2300      	movs	r3, #0
 8004446:	61bb      	str	r3, [r7, #24]
  GPIO_InitStruct.Alternate = GPIO_AF0_MCO;
 8004448:	2300      	movs	r3, #0
 800444a:	61fb      	str	r3, [r7, #28]
  HAL_GPIO_Init(GPIOA, &GPIO_InitStruct);
 800444c:	f107 030c 	add.w	r3, r7, #12
 8004450:	4619      	mov	r1, r3
 8004452:	f04f 4090 	mov.w	r0, #1207959552	@ 0x48000000
 8004456:	f7fc fa1f 	bl	8000898 <HAL_GPIO_Init>

}
 800445a:	bf00      	nop
 800445c:	3720      	adds	r7, #32
 800445e:	46bd      	mov	sp, r7
 8004460:	bd80      	pop	{r7, pc}
 8004462:	bf00      	nop
 8004464:	40021000 	.word	0x40021000

08004468 <rol32>:
#include "lea.h"

static uint32_t rol32(uint32_t x, unsigned int n) {
 8004468:	b480      	push	{r7}
 800446a:	b083      	sub	sp, #12
 800446c:	af00      	add	r7, sp, #0
 800446e:	6078      	str	r0, [r7, #4]
 8004470:	6039      	str	r1, [r7, #0]
    return (x << n) | (x >> (32U - n));
 8004472:	687a      	ldr	r2, [r7, #4]
 8004474:	683b      	ldr	r3, [r7, #0]
 8004476:	f1c3 0320 	rsb	r3, r3, #32
 800447a:	fa62 f303 	ror.w	r3, r2, r3
}
 800447e:	4618      	mov	r0, r3
 8004480:	370c      	adds	r7, #12
 8004482:	46bd      	mov	sp, r7
 8004484:	f85d 7b04 	ldr.w	r7, [sp], #4
 8004488:	4770      	bx	lr

0800448a <ror32>:

static uint32_t ror32(uint32_t x, unsigned int n) {
 800448a:	b480      	push	{r7}
 800448c:	b083      	sub	sp, #12
 800448e:	af00      	add	r7, sp, #0
 8004490:	6078      	str	r0, [r7, #4]
 8004492:	6039      	str	r1, [r7, #0]
    return (x >> n) | (x << (32U - n));
 8004494:	687a      	ldr	r2, [r7, #4]
 8004496:	683b      	ldr	r3, [r7, #0]
 8004498:	fa62 f303 	ror.w	r3, r2, r3
}
 800449c:	4618      	mov	r0, r3
 800449e:	370c      	adds	r7, #12
 80044a0:	46bd      	mov	sp, r7
 80044a2:	f85d 7b04 	ldr.w	r7, [sp], #4
 80044a6:	4770      	bx	lr

080044a8 <load32_le>:

static uint32_t load32_le(const unsigned char *src) {
 80044a8:	b480      	push	{r7}
 80044aa:	b083      	sub	sp, #12
 80044ac:	af00      	add	r7, sp, #0
 80044ae:	6078      	str	r0, [r7, #4]
    return ((uint32_t)src[0]) |
 80044b0:	687b      	ldr	r3, [r7, #4]
 80044b2:	781b      	ldrb	r3, [r3, #0]
 80044b4:	461a      	mov	r2, r3
           ((uint32_t)src[1] << 8) |
 80044b6:	687b      	ldr	r3, [r7, #4]
 80044b8:	3301      	adds	r3, #1
 80044ba:	781b      	ldrb	r3, [r3, #0]
 80044bc:	021b      	lsls	r3, r3, #8
    return ((uint32_t)src[0]) |
 80044be:	431a      	orrs	r2, r3
           ((uint32_t)src[2] << 16) |
 80044c0:	687b      	ldr	r3, [r7, #4]
 80044c2:	3302      	adds	r3, #2
 80044c4:	781b      	ldrb	r3, [r3, #0]
 80044c6:	041b      	lsls	r3, r3, #16
           ((uint32_t)src[1] << 8) |
 80044c8:	431a      	orrs	r2, r3
           ((uint32_t)src[3] << 24);
 80044ca:	687b      	ldr	r3, [r7, #4]
 80044cc:	3303      	adds	r3, #3
 80044ce:	781b      	ldrb	r3, [r3, #0]
 80044d0:	061b      	lsls	r3, r3, #24
           ((uint32_t)src[2] << 16) |
 80044d2:	4313      	orrs	r3, r2
}
 80044d4:	4618      	mov	r0, r3
 80044d6:	370c      	adds	r7, #12
 80044d8:	46bd      	mov	sp, r7
 80044da:	f85d 7b04 	ldr.w	r7, [sp], #4
 80044de:	4770      	bx	lr

080044e0 <store32_le>:

static void store32_le(unsigned char *dst, uint32_t x) {
 80044e0:	b480      	push	{r7}
 80044e2:	b083      	sub	sp, #12
 80044e4:	af00      	add	r7, sp, #0
 80044e6:	6078      	str	r0, [r7, #4]
 80044e8:	6039      	str	r1, [r7, #0]
    dst[0] = (unsigned char)(x);
 80044ea:	683b      	ldr	r3, [r7, #0]
 80044ec:	b2da      	uxtb	r2, r3
 80044ee:	687b      	ldr	r3, [r7, #4]
 80044f0:	701a      	strb	r2, [r3, #0]
    dst[1] = (unsigned char)(x >> 8);
 80044f2:	683b      	ldr	r3, [r7, #0]
 80044f4:	0a1a      	lsrs	r2, r3, #8
 80044f6:	687b      	ldr	r3, [r7, #4]
 80044f8:	3301      	adds	r3, #1
 80044fa:	b2d2      	uxtb	r2, r2
 80044fc:	701a      	strb	r2, [r3, #0]
    dst[2] = (unsigned char)(x >> 16);
 80044fe:	683b      	ldr	r3, [r7, #0]
 8004500:	0c1a      	lsrs	r2, r3, #16
 8004502:	687b      	ldr	r3, [r7, #4]
 8004504:	3302      	adds	r3, #2
 8004506:	b2d2      	uxtb	r2, r2
 8004508:	701a      	strb	r2, [r3, #0]
    dst[3] = (unsigned char)(x >> 24);
 800450a:	683b      	ldr	r3, [r7, #0]
 800450c:	0e1a      	lsrs	r2, r3, #24
 800450e:	687b      	ldr	r3, [r7, #4]
 8004510:	3303      	adds	r3, #3
 8004512:	b2d2      	uxtb	r2, r2
 8004514:	701a      	strb	r2, [r3, #0]
}
 8004516:	bf00      	nop
 8004518:	370c      	adds	r7, #12
 800451a:	46bd      	mov	sp, r7
 800451c:	f85d 7b04 	ldr.w	r7, [sp], #4
 8004520:	4770      	bx	lr
	...

08004524 <delta_word>:
static const uint32_t delta_seed[8] = {
    0xc3efe9dbU, 0x44626b02U, 0x79e27c8aU, 0x78df30ecU,
    0x715ea49eU, 0xc785da0aU, 0xe04ef22aU, 0xe5c40957U
};

static uint32_t delta_word(unsigned int row, unsigned int idx) {
 8004524:	b580      	push	{r7, lr}
 8004526:	b082      	sub	sp, #8
 8004528:	af00      	add	r7, sp, #0
 800452a:	6078      	str	r0, [r7, #4]
 800452c:	6039      	str	r1, [r7, #0]
    return rol32(delta_seed[row & 7U], idx & 31U);
 800452e:	687b      	ldr	r3, [r7, #4]
 8004530:	f003 0307 	and.w	r3, r3, #7
 8004534:	4a07      	ldr	r2, [pc, #28]	@ (8004554 <delta_word+0x30>)
 8004536:	f852 2023 	ldr.w	r2, [r2, r3, lsl #2]
 800453a:	683b      	ldr	r3, [r7, #0]
 800453c:	f003 031f 	and.w	r3, r3, #31
 8004540:	4619      	mov	r1, r3
 8004542:	4610      	mov	r0, r2
 8004544:	f7ff ff90 	bl	8004468 <rol32>
 8004548:	4603      	mov	r3, r0
}
 800454a:	4618      	mov	r0, r3
 800454c:	3708      	adds	r7, #8
 800454e:	46bd      	mov	sp, r7
 8004550:	bd80      	pop	{r7, pc}
 8004552:	bf00      	nop
 8004554:	08007574 	.word	0x08007574

08004558 <lea_set_key>:

void lea_set_key(LEA_KEY *key, const unsigned char *mk, unsigned int mk_len) {
 8004558:	b590      	push	{r4, r7, lr}
 800455a:	b09b      	sub	sp, #108	@ 0x6c
 800455c:	af00      	add	r7, sp, #0
 800455e:	60f8      	str	r0, [r7, #12]
 8004560:	60b9      	str	r1, [r7, #8]
 8004562:	607a      	str	r2, [r7, #4]
    uint32_t t[8];
    unsigned int i;

    if (key == 0 || mk == 0) {
 8004564:	68fb      	ldr	r3, [r7, #12]
 8004566:	2b00      	cmp	r3, #0
 8004568:	f000 8303 	beq.w	8004b72 <lea_set_key+0x61a>
 800456c:	68bb      	ldr	r3, [r7, #8]
 800456e:	2b00      	cmp	r3, #0
 8004570:	f000 82ff 	beq.w	8004b72 <lea_set_key+0x61a>
        return;
    }

    for (i = 0; i < 8; ++i) {
 8004574:	2300      	movs	r3, #0
 8004576:	667b      	str	r3, [r7, #100]	@ 0x64
 8004578:	e009      	b.n	800458e <lea_set_key+0x36>
        t[i] = 0;
 800457a:	6e7b      	ldr	r3, [r7, #100]	@ 0x64
 800457c:	009b      	lsls	r3, r3, #2
 800457e:	3368      	adds	r3, #104	@ 0x68
 8004580:	443b      	add	r3, r7
 8004582:	2200      	movs	r2, #0
 8004584:	f843 2c54 	str.w	r2, [r3, #-84]
    for (i = 0; i < 8; ++i) {
 8004588:	6e7b      	ldr	r3, [r7, #100]	@ 0x64
 800458a:	3301      	adds	r3, #1
 800458c:	667b      	str	r3, [r7, #100]	@ 0x64
 800458e:	6e7b      	ldr	r3, [r7, #100]	@ 0x64
 8004590:	2b07      	cmp	r3, #7
 8004592:	d9f2      	bls.n	800457a <lea_set_key+0x22>
    }

    if (mk_len == 16U) {
 8004594:	687b      	ldr	r3, [r7, #4]
 8004596:	2b10      	cmp	r3, #16
 8004598:	f040 80b2 	bne.w	8004700 <lea_set_key+0x1a8>
        key->rounds = 24U;
 800459c:	68fb      	ldr	r3, [r7, #12]
 800459e:	2218      	movs	r2, #24
 80045a0:	f8c3 2300 	str.w	r2, [r3, #768]	@ 0x300
        t[0] = load32_le(mk + 0);
 80045a4:	68b8      	ldr	r0, [r7, #8]
 80045a6:	f7ff ff7f 	bl	80044a8 <load32_le>
 80045aa:	4603      	mov	r3, r0
 80045ac:	617b      	str	r3, [r7, #20]
        t[1] = load32_le(mk + 4);
 80045ae:	68bb      	ldr	r3, [r7, #8]
 80045b0:	3304      	adds	r3, #4
 80045b2:	4618      	mov	r0, r3
 80045b4:	f7ff ff78 	bl	80044a8 <load32_le>
 80045b8:	4603      	mov	r3, r0
 80045ba:	61bb      	str	r3, [r7, #24]
        t[2] = load32_le(mk + 8);
 80045bc:	68bb      	ldr	r3, [r7, #8]
 80045be:	3308      	adds	r3, #8
 80045c0:	4618      	mov	r0, r3
 80045c2:	f7ff ff71 	bl	80044a8 <load32_le>
 80045c6:	4603      	mov	r3, r0
 80045c8:	61fb      	str	r3, [r7, #28]
        t[3] = load32_le(mk + 12);
 80045ca:	68bb      	ldr	r3, [r7, #8]
 80045cc:	330c      	adds	r3, #12
 80045ce:	4618      	mov	r0, r3
 80045d0:	f7ff ff6a 	bl	80044a8 <load32_le>
 80045d4:	4603      	mov	r3, r0
 80045d6:	623b      	str	r3, [r7, #32]

        for (i = 0; i < key->rounds; ++i) {
 80045d8:	2300      	movs	r3, #0
 80045da:	667b      	str	r3, [r7, #100]	@ 0x64
 80045dc:	e088      	b.n	80046f0 <lea_set_key+0x198>
            uint32_t d0 = delta_word(i % 4U, i + 0U);
 80045de:	6e7b      	ldr	r3, [r7, #100]	@ 0x64
 80045e0:	f003 0303 	and.w	r3, r3, #3
 80045e4:	6e79      	ldr	r1, [r7, #100]	@ 0x64
 80045e6:	4618      	mov	r0, r3
 80045e8:	f7ff ff9c 	bl	8004524 <delta_word>
 80045ec:	6438      	str	r0, [r7, #64]	@ 0x40
            uint32_t d1 = delta_word(i % 4U, i + 1U);
 80045ee:	6e7b      	ldr	r3, [r7, #100]	@ 0x64
 80045f0:	f003 0203 	and.w	r2, r3, #3
 80045f4:	6e7b      	ldr	r3, [r7, #100]	@ 0x64
 80045f6:	3301      	adds	r3, #1
 80045f8:	4619      	mov	r1, r3
 80045fa:	4610      	mov	r0, r2
 80045fc:	f7ff ff92 	bl	8004524 <delta_word>
 8004600:	63f8      	str	r0, [r7, #60]	@ 0x3c
            uint32_t d2 = delta_word(i % 4U, i + 2U);
 8004602:	6e7b      	ldr	r3, [r7, #100]	@ 0x64
 8004604:	f003 0203 	and.w	r2, r3, #3
 8004608:	6e7b      	ldr	r3, [r7, #100]	@ 0x64
 800460a:	3302      	adds	r3, #2
 800460c:	4619      	mov	r1, r3
 800460e:	4610      	mov	r0, r2
 8004610:	f7ff ff88 	bl	8004524 <delta_word>
 8004614:	63b8      	str	r0, [r7, #56]	@ 0x38
            uint32_t d3 = delta_word(i % 4U, i + 3U);
 8004616:	6e7b      	ldr	r3, [r7, #100]	@ 0x64
 8004618:	f003 0203 	and.w	r2, r3, #3
 800461c:	6e7b      	ldr	r3, [r7, #100]	@ 0x64
 800461e:	3303      	adds	r3, #3
 8004620:	4619      	mov	r1, r3
 8004622:	4610      	mov	r0, r2
 8004624:	f7ff ff7e 	bl	8004524 <delta_word>
 8004628:	6378      	str	r0, [r7, #52]	@ 0x34

            t[0] = rol32(t[0] + d0, 1);
 800462a:	697a      	ldr	r2, [r7, #20]
 800462c:	6c3b      	ldr	r3, [r7, #64]	@ 0x40
 800462e:	4413      	add	r3, r2
 8004630:	2101      	movs	r1, #1
 8004632:	4618      	mov	r0, r3
 8004634:	f7ff ff18 	bl	8004468 <rol32>
 8004638:	4603      	mov	r3, r0
 800463a:	617b      	str	r3, [r7, #20]
            t[1] = rol32(t[1] + d1, 3);
 800463c:	69ba      	ldr	r2, [r7, #24]
 800463e:	6bfb      	ldr	r3, [r7, #60]	@ 0x3c
 8004640:	4413      	add	r3, r2
 8004642:	2103      	movs	r1, #3
 8004644:	4618      	mov	r0, r3
 8004646:	f7ff ff0f 	bl	8004468 <rol32>
 800464a:	4603      	mov	r3, r0
 800464c:	61bb      	str	r3, [r7, #24]
            t[2] = rol32(t[2] + d2, 6);
 800464e:	69fa      	ldr	r2, [r7, #28]
 8004650:	6bbb      	ldr	r3, [r7, #56]	@ 0x38
 8004652:	4413      	add	r3, r2
 8004654:	2106      	movs	r1, #6
 8004656:	4618      	mov	r0, r3
 8004658:	f7ff ff06 	bl	8004468 <rol32>
 800465c:	4603      	mov	r3, r0
 800465e:	61fb      	str	r3, [r7, #28]
            t[3] = rol32(t[3] + d3, 11);
 8004660:	6a3a      	ldr	r2, [r7, #32]
 8004662:	6b7b      	ldr	r3, [r7, #52]	@ 0x34
 8004664:	4413      	add	r3, r2
 8004666:	210b      	movs	r1, #11
 8004668:	4618      	mov	r0, r3
 800466a:	f7ff fefd 	bl	8004468 <rol32>
 800466e:	4603      	mov	r3, r0
 8004670:	623b      	str	r3, [r7, #32]

            key->rk[6U * i + 0U] = t[0];
 8004672:	6e7a      	ldr	r2, [r7, #100]	@ 0x64
 8004674:	4613      	mov	r3, r2
 8004676:	005b      	lsls	r3, r3, #1
 8004678:	4413      	add	r3, r2
 800467a:	005b      	lsls	r3, r3, #1
 800467c:	4619      	mov	r1, r3
 800467e:	697a      	ldr	r2, [r7, #20]
 8004680:	68fb      	ldr	r3, [r7, #12]
 8004682:	f843 2021 	str.w	r2, [r3, r1, lsl #2]
            key->rk[6U * i + 1U] = t[1];
 8004686:	6e7a      	ldr	r2, [r7, #100]	@ 0x64
 8004688:	4613      	mov	r3, r2
 800468a:	005b      	lsls	r3, r3, #1
 800468c:	4413      	add	r3, r2
 800468e:	005b      	lsls	r3, r3, #1
 8004690:	1c5a      	adds	r2, r3, #1
 8004692:	69b9      	ldr	r1, [r7, #24]
 8004694:	68fb      	ldr	r3, [r7, #12]
 8004696:	f843 1022 	str.w	r1, [r3, r2, lsl #2]
            key->rk[6U * i + 2U] = t[2];
 800469a:	6e7a      	ldr	r2, [r7, #100]	@ 0x64
 800469c:	4613      	mov	r3, r2
 800469e:	005b      	lsls	r3, r3, #1
 80046a0:	4413      	add	r3, r2
 80046a2:	005b      	lsls	r3, r3, #1
 80046a4:	1c9a      	adds	r2, r3, #2
 80046a6:	69f9      	ldr	r1, [r7, #28]
 80046a8:	68fb      	ldr	r3, [r7, #12]
 80046aa:	f843 1022 	str.w	r1, [r3, r2, lsl #2]
            key->rk[6U * i + 3U] = t[1];
 80046ae:	6e7a      	ldr	r2, [r7, #100]	@ 0x64
 80046b0:	4613      	mov	r3, r2
 80046b2:	005b      	lsls	r3, r3, #1
 80046b4:	4413      	add	r3, r2
 80046b6:	005b      	lsls	r3, r3, #1
 80046b8:	1cda      	adds	r2, r3, #3
 80046ba:	69b9      	ldr	r1, [r7, #24]
 80046bc:	68fb      	ldr	r3, [r7, #12]
 80046be:	f843 1022 	str.w	r1, [r3, r2, lsl #2]
            key->rk[6U * i + 4U] = t[3];
 80046c2:	6e7a      	ldr	r2, [r7, #100]	@ 0x64
 80046c4:	4613      	mov	r3, r2
 80046c6:	005b      	lsls	r3, r3, #1
 80046c8:	4413      	add	r3, r2
 80046ca:	005b      	lsls	r3, r3, #1
 80046cc:	1d1a      	adds	r2, r3, #4
 80046ce:	6a39      	ldr	r1, [r7, #32]
 80046d0:	68fb      	ldr	r3, [r7, #12]
 80046d2:	f843 1022 	str.w	r1, [r3, r2, lsl #2]
            key->rk[6U * i + 5U] = t[1];
 80046d6:	6e7a      	ldr	r2, [r7, #100]	@ 0x64
 80046d8:	4613      	mov	r3, r2
 80046da:	005b      	lsls	r3, r3, #1
 80046dc:	4413      	add	r3, r2
 80046de:	005b      	lsls	r3, r3, #1
 80046e0:	1d5a      	adds	r2, r3, #5
 80046e2:	69b9      	ldr	r1, [r7, #24]
 80046e4:	68fb      	ldr	r3, [r7, #12]
 80046e6:	f843 1022 	str.w	r1, [r3, r2, lsl #2]
        for (i = 0; i < key->rounds; ++i) {
 80046ea:	6e7b      	ldr	r3, [r7, #100]	@ 0x64
 80046ec:	3301      	adds	r3, #1
 80046ee:	667b      	str	r3, [r7, #100]	@ 0x64
 80046f0:	68fb      	ldr	r3, [r7, #12]
 80046f2:	f8d3 3300 	ldr.w	r3, [r3, #768]	@ 0x300
 80046f6:	6e7a      	ldr	r2, [r7, #100]	@ 0x64
 80046f8:	429a      	cmp	r2, r3
 80046fa:	f4ff af70 	bcc.w	80045de <lea_set_key+0x86>
 80046fe:	e239      	b.n	8004b74 <lea_set_key+0x61c>
        }
    } else if (mk_len == 24U) {
 8004700:	687b      	ldr	r3, [r7, #4]
 8004702:	2b18      	cmp	r3, #24
 8004704:	f040 80d9 	bne.w	80048ba <lea_set_key+0x362>
        key->rounds = 28U;
 8004708:	68fb      	ldr	r3, [r7, #12]
 800470a:	221c      	movs	r2, #28
 800470c:	f8c3 2300 	str.w	r2, [r3, #768]	@ 0x300
        t[0] = load32_le(mk + 0);
 8004710:	68b8      	ldr	r0, [r7, #8]
 8004712:	f7ff fec9 	bl	80044a8 <load32_le>
 8004716:	4603      	mov	r3, r0
 8004718:	617b      	str	r3, [r7, #20]
        t[1] = load32_le(mk + 4);
 800471a:	68bb      	ldr	r3, [r7, #8]
 800471c:	3304      	adds	r3, #4
 800471e:	4618      	mov	r0, r3
 8004720:	f7ff fec2 	bl	80044a8 <load32_le>
 8004724:	4603      	mov	r3, r0
 8004726:	61bb      	str	r3, [r7, #24]
        t[2] = load32_le(mk + 8);
 8004728:	68bb      	ldr	r3, [r7, #8]
 800472a:	3308      	adds	r3, #8
 800472c:	4618      	mov	r0, r3
 800472e:	f7ff febb 	bl	80044a8 <load32_le>
 8004732:	4603      	mov	r3, r0
 8004734:	61fb      	str	r3, [r7, #28]
        t[3] = load32_le(mk + 12);
 8004736:	68bb      	ldr	r3, [r7, #8]
 8004738:	330c      	adds	r3, #12
 800473a:	4618      	mov	r0, r3
 800473c:	f7ff feb4 	bl	80044a8 <load32_le>
 8004740:	4603      	mov	r3, r0
 8004742:	623b      	str	r3, [r7, #32]
        t[4] = load32_le(mk + 16);
 8004744:	68bb      	ldr	r3, [r7, #8]
 8004746:	3310      	adds	r3, #16
 8004748:	4618      	mov	r0, r3
 800474a:	f7ff fead 	bl	80044a8 <load32_le>
 800474e:	4603      	mov	r3, r0
 8004750:	627b      	str	r3, [r7, #36]	@ 0x24
        t[5] = load32_le(mk + 20);
 8004752:	68bb      	ldr	r3, [r7, #8]
 8004754:	3314      	adds	r3, #20
 8004756:	4618      	mov	r0, r3
 8004758:	f7ff fea6 	bl	80044a8 <load32_le>
 800475c:	4603      	mov	r3, r0
 800475e:	62bb      	str	r3, [r7, #40]	@ 0x28

        for (i = 0; i < key->rounds; ++i) {
 8004760:	2300      	movs	r3, #0
 8004762:	667b      	str	r3, [r7, #100]	@ 0x64
 8004764:	e0a1      	b.n	80048aa <lea_set_key+0x352>
            unsigned int row = i % 6U;
 8004766:	6e7a      	ldr	r2, [r7, #100]	@ 0x64
 8004768:	4b65      	ldr	r3, [pc, #404]	@ (8004900 <lea_set_key+0x3a8>)
 800476a:	fba3 1302 	umull	r1, r3, r3, r2
 800476e:	0899      	lsrs	r1, r3, #2
 8004770:	460b      	mov	r3, r1
 8004772:	005b      	lsls	r3, r3, #1
 8004774:	440b      	add	r3, r1
 8004776:	005b      	lsls	r3, r3, #1
 8004778:	1ad3      	subs	r3, r2, r3
 800477a:	647b      	str	r3, [r7, #68]	@ 0x44
            t[0] = rol32(t[0] + delta_word(row, i + 0U), 1);
 800477c:	697c      	ldr	r4, [r7, #20]
 800477e:	6e79      	ldr	r1, [r7, #100]	@ 0x64
 8004780:	6c78      	ldr	r0, [r7, #68]	@ 0x44
 8004782:	f7ff fecf 	bl	8004524 <delta_word>
 8004786:	4603      	mov	r3, r0
 8004788:	4423      	add	r3, r4
 800478a:	2101      	movs	r1, #1
 800478c:	4618      	mov	r0, r3
 800478e:	f7ff fe6b 	bl	8004468 <rol32>
 8004792:	4603      	mov	r3, r0
 8004794:	617b      	str	r3, [r7, #20]
            t[1] = rol32(t[1] + delta_word(row, i + 1U), 3);
 8004796:	69bc      	ldr	r4, [r7, #24]
 8004798:	6e7b      	ldr	r3, [r7, #100]	@ 0x64
 800479a:	3301      	adds	r3, #1
 800479c:	4619      	mov	r1, r3
 800479e:	6c78      	ldr	r0, [r7, #68]	@ 0x44
 80047a0:	f7ff fec0 	bl	8004524 <delta_word>
 80047a4:	4603      	mov	r3, r0
 80047a6:	4423      	add	r3, r4
 80047a8:	2103      	movs	r1, #3
 80047aa:	4618      	mov	r0, r3
 80047ac:	f7ff fe5c 	bl	8004468 <rol32>
 80047b0:	4603      	mov	r3, r0
 80047b2:	61bb      	str	r3, [r7, #24]
            t[2] = rol32(t[2] + delta_word(row, i + 2U), 6);
 80047b4:	69fc      	ldr	r4, [r7, #28]
 80047b6:	6e7b      	ldr	r3, [r7, #100]	@ 0x64
 80047b8:	3302      	adds	r3, #2
 80047ba:	4619      	mov	r1, r3
 80047bc:	6c78      	ldr	r0, [r7, #68]	@ 0x44
 80047be:	f7ff feb1 	bl	8004524 <delta_word>
 80047c2:	4603      	mov	r3, r0
 80047c4:	4423      	add	r3, r4
 80047c6:	2106      	movs	r1, #6
 80047c8:	4618      	mov	r0, r3
 80047ca:	f7ff fe4d 	bl	8004468 <rol32>
 80047ce:	4603      	mov	r3, r0
 80047d0:	61fb      	str	r3, [r7, #28]
            t[3] = rol32(t[3] + delta_word(row, i + 3U), 11);
 80047d2:	6a3c      	ldr	r4, [r7, #32]
 80047d4:	6e7b      	ldr	r3, [r7, #100]	@ 0x64
 80047d6:	3303      	adds	r3, #3
 80047d8:	4619      	mov	r1, r3
 80047da:	6c78      	ldr	r0, [r7, #68]	@ 0x44
 80047dc:	f7ff fea2 	bl	8004524 <delta_word>
 80047e0:	4603      	mov	r3, r0
 80047e2:	4423      	add	r3, r4
 80047e4:	210b      	movs	r1, #11
 80047e6:	4618      	mov	r0, r3
 80047e8:	f7ff fe3e 	bl	8004468 <rol32>
 80047ec:	4603      	mov	r3, r0
 80047ee:	623b      	str	r3, [r7, #32]
            t[4] = rol32(t[4] + delta_word(row, i + 4U), 13);
 80047f0:	6a7c      	ldr	r4, [r7, #36]	@ 0x24
 80047f2:	6e7b      	ldr	r3, [r7, #100]	@ 0x64
 80047f4:	3304      	adds	r3, #4
 80047f6:	4619      	mov	r1, r3
 80047f8:	6c78      	ldr	r0, [r7, #68]	@ 0x44
 80047fa:	f7ff fe93 	bl	8004524 <delta_word>
 80047fe:	4603      	mov	r3, r0
 8004800:	4423      	add	r3, r4
 8004802:	210d      	movs	r1, #13
 8004804:	4618      	mov	r0, r3
 8004806:	f7ff fe2f 	bl	8004468 <rol32>
 800480a:	4603      	mov	r3, r0
 800480c:	627b      	str	r3, [r7, #36]	@ 0x24
            t[5] = rol32(t[5] + delta_word(row, i + 5U), 17);
 800480e:	6abc      	ldr	r4, [r7, #40]	@ 0x28
 8004810:	6e7b      	ldr	r3, [r7, #100]	@ 0x64
 8004812:	3305      	adds	r3, #5
 8004814:	4619      	mov	r1, r3
 8004816:	6c78      	ldr	r0, [r7, #68]	@ 0x44
 8004818:	f7ff fe84 	bl	8004524 <delta_word>
 800481c:	4603      	mov	r3, r0
 800481e:	4423      	add	r3, r4
 8004820:	2111      	movs	r1, #17
 8004822:	4618      	mov	r0, r3
 8004824:	f7ff fe20 	bl	8004468 <rol32>
 8004828:	4603      	mov	r3, r0
 800482a:	62bb      	str	r3, [r7, #40]	@ 0x28

            key->rk[6U * i + 0U] = t[0];
 800482c:	6e7a      	ldr	r2, [r7, #100]	@ 0x64
 800482e:	4613      	mov	r3, r2
 8004830:	005b      	lsls	r3, r3, #1
 8004832:	4413      	add	r3, r2
 8004834:	005b      	lsls	r3, r3, #1
 8004836:	4619      	mov	r1, r3
 8004838:	697a      	ldr	r2, [r7, #20]
 800483a:	68fb      	ldr	r3, [r7, #12]
 800483c:	f843 2021 	str.w	r2, [r3, r1, lsl #2]
            key->rk[6U * i + 1U] = t[1];
 8004840:	6e7a      	ldr	r2, [r7, #100]	@ 0x64
 8004842:	4613      	mov	r3, r2
 8004844:	005b      	lsls	r3, r3, #1
 8004846:	4413      	add	r3, r2
 8004848:	005b      	lsls	r3, r3, #1
 800484a:	1c5a      	adds	r2, r3, #1
 800484c:	69b9      	ldr	r1, [r7, #24]
 800484e:	68fb      	ldr	r3, [r7, #12]
 8004850:	f843 1022 	str.w	r1, [r3, r2, lsl #2]
            key->rk[6U * i + 2U] = t[2];
 8004854:	6e7a      	ldr	r2, [r7, #100]	@ 0x64
 8004856:	4613      	mov	r3, r2
 8004858:	005b      	lsls	r3, r3, #1
 800485a:	4413      	add	r3, r2
 800485c:	005b      	lsls	r3, r3, #1
 800485e:	1c9a      	adds	r2, r3, #2
 8004860:	69f9      	ldr	r1, [r7, #28]
 8004862:	68fb      	ldr	r3, [r7, #12]
 8004864:	f843 1022 	str.w	r1, [r3, r2, lsl #2]
            key->rk[6U * i + 3U] = t[3];
 8004868:	6e7a      	ldr	r2, [r7, #100]	@ 0x64
 800486a:	4613      	mov	r3, r2
 800486c:	005b      	lsls	r3, r3, #1
 800486e:	4413      	add	r3, r2
 8004870:	005b      	lsls	r3, r3, #1
 8004872:	1cda      	adds	r2, r3, #3
 8004874:	6a39      	ldr	r1, [r7, #32]
 8004876:	68fb      	ldr	r3, [r7, #12]
 8004878:	f843 1022 	str.w	r1, [r3, r2, lsl #2]
            key->rk[6U * i + 4U] = t[4];
 800487c:	6e7a      	ldr	r2, [r7, #100]	@ 0x64
 800487e:	4613      	mov	r3, r2
 8004880:	005b      	lsls	r3, r3, #1
 8004882:	4413      	add	r3, r2
 8004884:	005b      	lsls	r3, r3, #1
 8004886:	1d1a      	adds	r2, r3, #4
 8004888:	6a79      	ldr	r1, [r7, #36]	@ 0x24
 800488a:	68fb      	ldr	r3, [r7, #12]
 800488c:	f843 1022 	str.w	r1, [r3, r2, lsl #2]
            key->rk[6U * i + 5U] = t[5];
 8004890:	6e7a      	ldr	r2, [r7, #100]	@ 0x64
 8004892:	4613      	mov	r3, r2
 8004894:	005b      	lsls	r3, r3, #1
 8004896:	4413      	add	r3, r2
 8004898:	005b      	lsls	r3, r3, #1
 800489a:	1d5a      	adds	r2, r3, #5
 800489c:	6ab9      	ldr	r1, [r7, #40]	@ 0x28
 800489e:	68fb      	ldr	r3, [r7, #12]
 80048a0:	f843 1022 	str.w	r1, [r3, r2, lsl #2]
        for (i = 0; i < key->rounds; ++i) {
 80048a4:	6e7b      	ldr	r3, [r7, #100]	@ 0x64
 80048a6:	3301      	adds	r3, #1
 80048a8:	667b      	str	r3, [r7, #100]	@ 0x64
 80048aa:	68fb      	ldr	r3, [r7, #12]
 80048ac:	f8d3 3300 	ldr.w	r3, [r3, #768]	@ 0x300
 80048b0:	6e7a      	ldr	r2, [r7, #100]	@ 0x64
 80048b2:	429a      	cmp	r2, r3
 80048b4:	f4ff af57 	bcc.w	8004766 <lea_set_key+0x20e>
 80048b8:	e15c      	b.n	8004b74 <lea_set_key+0x61c>
        }
    } else if (mk_len == 32U) {
 80048ba:	687b      	ldr	r3, [r7, #4]
 80048bc:	2b20      	cmp	r3, #32
 80048be:	f040 8153 	bne.w	8004b68 <lea_set_key+0x610>
        key->rounds = 32U;
 80048c2:	68fb      	ldr	r3, [r7, #12]
 80048c4:	2220      	movs	r2, #32
 80048c6:	f8c3 2300 	str.w	r2, [r3, #768]	@ 0x300
        for (i = 0; i < 8U; ++i) {
 80048ca:	2300      	movs	r3, #0
 80048cc:	667b      	str	r3, [r7, #100]	@ 0x64
 80048ce:	e010      	b.n	80048f2 <lea_set_key+0x39a>
            t[i] = load32_le(mk + 4U * i);
 80048d0:	6e7b      	ldr	r3, [r7, #100]	@ 0x64
 80048d2:	009b      	lsls	r3, r3, #2
 80048d4:	68ba      	ldr	r2, [r7, #8]
 80048d6:	4413      	add	r3, r2
 80048d8:	4618      	mov	r0, r3
 80048da:	f7ff fde5 	bl	80044a8 <load32_le>
 80048de:	4602      	mov	r2, r0
 80048e0:	6e7b      	ldr	r3, [r7, #100]	@ 0x64
 80048e2:	009b      	lsls	r3, r3, #2
 80048e4:	3368      	adds	r3, #104	@ 0x68
 80048e6:	443b      	add	r3, r7
 80048e8:	f843 2c54 	str.w	r2, [r3, #-84]
        for (i = 0; i < 8U; ++i) {
 80048ec:	6e7b      	ldr	r3, [r7, #100]	@ 0x64
 80048ee:	3301      	adds	r3, #1
 80048f0:	667b      	str	r3, [r7, #100]	@ 0x64
 80048f2:	6e7b      	ldr	r3, [r7, #100]	@ 0x64
 80048f4:	2b07      	cmp	r3, #7
 80048f6:	d9eb      	bls.n	80048d0 <lea_set_key+0x378>
        }

        for (i = 0; i < key->rounds; ++i) {
 80048f8:	2300      	movs	r3, #0
 80048fa:	667b      	str	r3, [r7, #100]	@ 0x64
 80048fc:	e12c      	b.n	8004b58 <lea_set_key+0x600>
 80048fe:	bf00      	nop
 8004900:	aaaaaaab 	.word	0xaaaaaaab
            unsigned int row = i % 8U;
 8004904:	6e7b      	ldr	r3, [r7, #100]	@ 0x64
 8004906:	f003 0307 	and.w	r3, r3, #7
 800490a:	663b      	str	r3, [r7, #96]	@ 0x60
            unsigned int idx0 = (6U * i + 0U) % 8U;
 800490c:	6e7a      	ldr	r2, [r7, #100]	@ 0x64
 800490e:	4613      	mov	r3, r2
 8004910:	005b      	lsls	r3, r3, #1
 8004912:	4413      	add	r3, r2
 8004914:	005b      	lsls	r3, r3, #1
 8004916:	f003 0306 	and.w	r3, r3, #6
 800491a:	65fb      	str	r3, [r7, #92]	@ 0x5c
            unsigned int idx1 = (6U * i + 1U) % 8U;
 800491c:	6e7a      	ldr	r2, [r7, #100]	@ 0x64
 800491e:	4613      	mov	r3, r2
 8004920:	005b      	lsls	r3, r3, #1
 8004922:	4413      	add	r3, r2
 8004924:	005b      	lsls	r3, r3, #1
 8004926:	3301      	adds	r3, #1
 8004928:	f003 0307 	and.w	r3, r3, #7
 800492c:	65bb      	str	r3, [r7, #88]	@ 0x58
            unsigned int idx2 = (6U * i + 2U) % 8U;
 800492e:	6e7a      	ldr	r2, [r7, #100]	@ 0x64
 8004930:	4613      	mov	r3, r2
 8004932:	005b      	lsls	r3, r3, #1
 8004934:	4413      	add	r3, r2
 8004936:	005b      	lsls	r3, r3, #1
 8004938:	3302      	adds	r3, #2
 800493a:	f003 0307 	and.w	r3, r3, #7
 800493e:	657b      	str	r3, [r7, #84]	@ 0x54
            unsigned int idx3 = (6U * i + 3U) % 8U;
 8004940:	6e7a      	ldr	r2, [r7, #100]	@ 0x64
 8004942:	4613      	mov	r3, r2
 8004944:	005b      	lsls	r3, r3, #1
 8004946:	4413      	add	r3, r2
 8004948:	005b      	lsls	r3, r3, #1
 800494a:	3303      	adds	r3, #3
 800494c:	f003 0307 	and.w	r3, r3, #7
 8004950:	653b      	str	r3, [r7, #80]	@ 0x50
            unsigned int idx4 = (6U * i + 4U) % 8U;
 8004952:	6e7a      	ldr	r2, [r7, #100]	@ 0x64
 8004954:	4613      	mov	r3, r2
 8004956:	005b      	lsls	r3, r3, #1
 8004958:	4413      	add	r3, r2
 800495a:	005b      	lsls	r3, r3, #1
 800495c:	3304      	adds	r3, #4
 800495e:	f003 0307 	and.w	r3, r3, #7
 8004962:	64fb      	str	r3, [r7, #76]	@ 0x4c
            unsigned int idx5 = (6U * i + 5U) % 8U;
 8004964:	6e7a      	ldr	r2, [r7, #100]	@ 0x64
 8004966:	4613      	mov	r3, r2
 8004968:	005b      	lsls	r3, r3, #1
 800496a:	4413      	add	r3, r2
 800496c:	005b      	lsls	r3, r3, #1
 800496e:	3305      	adds	r3, #5
 8004970:	f003 0307 	and.w	r3, r3, #7
 8004974:	64bb      	str	r3, [r7, #72]	@ 0x48

            t[idx0] = rol32(t[idx0] + delta_word(row, i + 0U), 1);
 8004976:	6dfb      	ldr	r3, [r7, #92]	@ 0x5c
 8004978:	009b      	lsls	r3, r3, #2
 800497a:	3368      	adds	r3, #104	@ 0x68
 800497c:	443b      	add	r3, r7
 800497e:	f853 4c54 	ldr.w	r4, [r3, #-84]
 8004982:	6e79      	ldr	r1, [r7, #100]	@ 0x64
 8004984:	6e38      	ldr	r0, [r7, #96]	@ 0x60
 8004986:	f7ff fdcd 	bl	8004524 <delta_word>
 800498a:	4603      	mov	r3, r0
 800498c:	4423      	add	r3, r4
 800498e:	2101      	movs	r1, #1
 8004990:	4618      	mov	r0, r3
 8004992:	f7ff fd69 	bl	8004468 <rol32>
 8004996:	4602      	mov	r2, r0
 8004998:	6dfb      	ldr	r3, [r7, #92]	@ 0x5c
 800499a:	009b      	lsls	r3, r3, #2
 800499c:	3368      	adds	r3, #104	@ 0x68
 800499e:	443b      	add	r3, r7
 80049a0:	f843 2c54 	str.w	r2, [r3, #-84]
            t[idx1] = rol32(t[idx1] + delta_word(row, i + 1U), 3);
 80049a4:	6dbb      	ldr	r3, [r7, #88]	@ 0x58
 80049a6:	009b      	lsls	r3, r3, #2
 80049a8:	3368      	adds	r3, #104	@ 0x68
 80049aa:	443b      	add	r3, r7
 80049ac:	f853 4c54 	ldr.w	r4, [r3, #-84]
 80049b0:	6e7b      	ldr	r3, [r7, #100]	@ 0x64
 80049b2:	3301      	adds	r3, #1
 80049b4:	4619      	mov	r1, r3
 80049b6:	6e38      	ldr	r0, [r7, #96]	@ 0x60
 80049b8:	f7ff fdb4 	bl	8004524 <delta_word>
 80049bc:	4603      	mov	r3, r0
 80049be:	4423      	add	r3, r4
 80049c0:	2103      	movs	r1, #3
 80049c2:	4618      	mov	r0, r3
 80049c4:	f7ff fd50 	bl	8004468 <rol32>
 80049c8:	4602      	mov	r2, r0
 80049ca:	6dbb      	ldr	r3, [r7, #88]	@ 0x58
 80049cc:	009b      	lsls	r3, r3, #2
 80049ce:	3368      	adds	r3, #104	@ 0x68
 80049d0:	443b      	add	r3, r7
 80049d2:	f843 2c54 	str.w	r2, [r3, #-84]
            t[idx2] = rol32(t[idx2] + delta_word(row, i + 2U), 6);
 80049d6:	6d7b      	ldr	r3, [r7, #84]	@ 0x54
 80049d8:	009b      	lsls	r3, r3, #2
 80049da:	3368      	adds	r3, #104	@ 0x68
 80049dc:	443b      	add	r3, r7
 80049de:	f853 4c54 	ldr.w	r4, [r3, #-84]
 80049e2:	6e7b      	ldr	r3, [r7, #100]	@ 0x64
 80049e4:	3302      	adds	r3, #2
 80049e6:	4619      	mov	r1, r3
 80049e8:	6e38      	ldr	r0, [r7, #96]	@ 0x60
 80049ea:	f7ff fd9b 	bl	8004524 <delta_word>
 80049ee:	4603      	mov	r3, r0
 80049f0:	4423      	add	r3, r4
 80049f2:	2106      	movs	r1, #6
 80049f4:	4618      	mov	r0, r3
 80049f6:	f7ff fd37 	bl	8004468 <rol32>
 80049fa:	4602      	mov	r2, r0
 80049fc:	6d7b      	ldr	r3, [r7, #84]	@ 0x54
 80049fe:	009b      	lsls	r3, r3, #2
 8004a00:	3368      	adds	r3, #104	@ 0x68
 8004a02:	443b      	add	r3, r7
 8004a04:	f843 2c54 	str.w	r2, [r3, #-84]
            t[idx3] = rol32(t[idx3] + delta_word(row, i + 3U), 11);
 8004a08:	6d3b      	ldr	r3, [r7, #80]	@ 0x50
 8004a0a:	009b      	lsls	r3, r3, #2
 8004a0c:	3368      	adds	r3, #104	@ 0x68
 8004a0e:	443b      	add	r3, r7
 8004a10:	f853 4c54 	ldr.w	r4, [r3, #-84]
 8004a14:	6e7b      	ldr	r3, [r7, #100]	@ 0x64
 8004a16:	3303      	adds	r3, #3
 8004a18:	4619      	mov	r1, r3
 8004a1a:	6e38      	ldr	r0, [r7, #96]	@ 0x60
 8004a1c:	f7ff fd82 	bl	8004524 <delta_word>
 8004a20:	4603      	mov	r3, r0
 8004a22:	4423      	add	r3, r4
 8004a24:	210b      	movs	r1, #11
 8004a26:	4618      	mov	r0, r3
 8004a28:	f7ff fd1e 	bl	8004468 <rol32>
 8004a2c:	4602      	mov	r2, r0
 8004a2e:	6d3b      	ldr	r3, [r7, #80]	@ 0x50
 8004a30:	009b      	lsls	r3, r3, #2
 8004a32:	3368      	adds	r3, #104	@ 0x68
 8004a34:	443b      	add	r3, r7
 8004a36:	f843 2c54 	str.w	r2, [r3, #-84]
            t[idx4] = rol32(t[idx4] + delta_word(row, i + 4U), 13);
 8004a3a:	6cfb      	ldr	r3, [r7, #76]	@ 0x4c
 8004a3c:	009b      	lsls	r3, r3, #2
 8004a3e:	3368      	adds	r3, #104	@ 0x68
 8004a40:	443b      	add	r3, r7
 8004a42:	f853 4c54 	ldr.w	r4, [r3, #-84]
 8004a46:	6e7b      	ldr	r3, [r7, #100]	@ 0x64
 8004a48:	3304      	adds	r3, #4
 8004a4a:	4619      	mov	r1, r3
 8004a4c:	6e38      	ldr	r0, [r7, #96]	@ 0x60
 8004a4e:	f7ff fd69 	bl	8004524 <delta_word>
 8004a52:	4603      	mov	r3, r0
 8004a54:	4423      	add	r3, r4
 8004a56:	210d      	movs	r1, #13
 8004a58:	4618      	mov	r0, r3
 8004a5a:	f7ff fd05 	bl	8004468 <rol32>
 8004a5e:	4602      	mov	r2, r0
 8004a60:	6cfb      	ldr	r3, [r7, #76]	@ 0x4c
 8004a62:	009b      	lsls	r3, r3, #2
 8004a64:	3368      	adds	r3, #104	@ 0x68
 8004a66:	443b      	add	r3, r7
 8004a68:	f843 2c54 	str.w	r2, [r3, #-84]
            t[idx5] = rol32(t[idx5] + delta_word(row, i + 5U), 17);
 8004a6c:	6cbb      	ldr	r3, [r7, #72]	@ 0x48
 8004a6e:	009b      	lsls	r3, r3, #2
 8004a70:	3368      	adds	r3, #104	@ 0x68
 8004a72:	443b      	add	r3, r7
 8004a74:	f853 4c54 	ldr.w	r4, [r3, #-84]
 8004a78:	6e7b      	ldr	r3, [r7, #100]	@ 0x64
 8004a7a:	3305      	adds	r3, #5
 8004a7c:	4619      	mov	r1, r3
 8004a7e:	6e38      	ldr	r0, [r7, #96]	@ 0x60
 8004a80:	f7ff fd50 	bl	8004524 <delta_word>
 8004a84:	4603      	mov	r3, r0
 8004a86:	4423      	add	r3, r4
 8004a88:	2111      	movs	r1, #17
 8004a8a:	4618      	mov	r0, r3
 8004a8c:	f7ff fcec 	bl	8004468 <rol32>
 8004a90:	4602      	mov	r2, r0
 8004a92:	6cbb      	ldr	r3, [r7, #72]	@ 0x48
 8004a94:	009b      	lsls	r3, r3, #2
 8004a96:	3368      	adds	r3, #104	@ 0x68
 8004a98:	443b      	add	r3, r7
 8004a9a:	f843 2c54 	str.w	r2, [r3, #-84]

            key->rk[6U * i + 0U] = t[idx0];
 8004a9e:	6e7a      	ldr	r2, [r7, #100]	@ 0x64
 8004aa0:	4613      	mov	r3, r2
 8004aa2:	005b      	lsls	r3, r3, #1
 8004aa4:	4413      	add	r3, r2
 8004aa6:	005b      	lsls	r3, r3, #1
 8004aa8:	4619      	mov	r1, r3
 8004aaa:	6dfb      	ldr	r3, [r7, #92]	@ 0x5c
 8004aac:	009b      	lsls	r3, r3, #2
 8004aae:	3368      	adds	r3, #104	@ 0x68
 8004ab0:	443b      	add	r3, r7
 8004ab2:	f853 2c54 	ldr.w	r2, [r3, #-84]
 8004ab6:	68fb      	ldr	r3, [r7, #12]
 8004ab8:	f843 2021 	str.w	r2, [r3, r1, lsl #2]
            key->rk[6U * i + 1U] = t[idx1];
 8004abc:	6e7a      	ldr	r2, [r7, #100]	@ 0x64
 8004abe:	4613      	mov	r3, r2
 8004ac0:	005b      	lsls	r3, r3, #1
 8004ac2:	4413      	add	r3, r2
 8004ac4:	005b      	lsls	r3, r3, #1
 8004ac6:	1c5a      	adds	r2, r3, #1
 8004ac8:	6dbb      	ldr	r3, [r7, #88]	@ 0x58
 8004aca:	009b      	lsls	r3, r3, #2
 8004acc:	3368      	adds	r3, #104	@ 0x68
 8004ace:	443b      	add	r3, r7
 8004ad0:	f853 1c54 	ldr.w	r1, [r3, #-84]
 8004ad4:	68fb      	ldr	r3, [r7, #12]
 8004ad6:	f843 1022 	str.w	r1, [r3, r2, lsl #2]
            key->rk[6U * i + 2U] = t[idx2];
 8004ada:	6e7a      	ldr	r2, [r7, #100]	@ 0x64
 8004adc:	4613      	mov	r3, r2
 8004ade:	005b      	lsls	r3, r3, #1
 8004ae0:	4413      	add	r3, r2
 8004ae2:	005b      	lsls	r3, r3, #1
 8004ae4:	1c9a      	adds	r2, r3, #2
 8004ae6:	6d7b      	ldr	r3, [r7, #84]	@ 0x54
 8004ae8:	009b      	lsls	r3, r3, #2
 8004aea:	3368      	adds	r3, #104	@ 0x68
 8004aec:	443b      	add	r3, r7
 8004aee:	f853 1c54 	ldr.w	r1, [r3, #-84]
 8004af2:	68fb      	ldr	r3, [r7, #12]
 8004af4:	f843 1022 	str.w	r1, [r3, r2, lsl #2]
            key->rk[6U * i + 3U] = t[idx3];
 8004af8:	6e7a      	ldr	r2, [r7, #100]	@ 0x64
 8004afa:	4613      	mov	r3, r2
 8004afc:	005b      	lsls	r3, r3, #1
 8004afe:	4413      	add	r3, r2
 8004b00:	005b      	lsls	r3, r3, #1
 8004b02:	1cda      	adds	r2, r3, #3
 8004b04:	6d3b      	ldr	r3, [r7, #80]	@ 0x50
 8004b06:	009b      	lsls	r3, r3, #2
 8004b08:	3368      	adds	r3, #104	@ 0x68
 8004b0a:	443b      	add	r3, r7
 8004b0c:	f853 1c54 	ldr.w	r1, [r3, #-84]
 8004b10:	68fb      	ldr	r3, [r7, #12]
 8004b12:	f843 1022 	str.w	r1, [r3, r2, lsl #2]
            key->rk[6U * i + 4U] = t[idx4];
 8004b16:	6e7a      	ldr	r2, [r7, #100]	@ 0x64
 8004b18:	4613      	mov	r3, r2
 8004b1a:	005b      	lsls	r3, r3, #1
 8004b1c:	4413      	add	r3, r2
 8004b1e:	005b      	lsls	r3, r3, #1
 8004b20:	1d1a      	adds	r2, r3, #4
 8004b22:	6cfb      	ldr	r3, [r7, #76]	@ 0x4c
 8004b24:	009b      	lsls	r3, r3, #2
 8004b26:	3368      	adds	r3, #104	@ 0x68
 8004b28:	443b      	add	r3, r7
 8004b2a:	f853 1c54 	ldr.w	r1, [r3, #-84]
 8004b2e:	68fb      	ldr	r3, [r7, #12]
 8004b30:	f843 1022 	str.w	r1, [r3, r2, lsl #2]
            key->rk[6U * i + 5U] = t[idx5];
 8004b34:	6e7a      	ldr	r2, [r7, #100]	@ 0x64
 8004b36:	4613      	mov	r3, r2
 8004b38:	005b      	lsls	r3, r3, #1
 8004b3a:	4413      	add	r3, r2
 8004b3c:	005b      	lsls	r3, r3, #1
 8004b3e:	1d5a      	adds	r2, r3, #5
 8004b40:	6cbb      	ldr	r3, [r7, #72]	@ 0x48
 8004b42:	009b      	lsls	r3, r3, #2
 8004b44:	3368      	adds	r3, #104	@ 0x68
 8004b46:	443b      	add	r3, r7
 8004b48:	f853 1c54 	ldr.w	r1, [r3, #-84]
 8004b4c:	68fb      	ldr	r3, [r7, #12]
 8004b4e:	f843 1022 	str.w	r1, [r3, r2, lsl #2]
        for (i = 0; i < key->rounds; ++i) {
 8004b52:	6e7b      	ldr	r3, [r7, #100]	@ 0x64
 8004b54:	3301      	adds	r3, #1
 8004b56:	667b      	str	r3, [r7, #100]	@ 0x64
 8004b58:	68fb      	ldr	r3, [r7, #12]
 8004b5a:	f8d3 3300 	ldr.w	r3, [r3, #768]	@ 0x300
 8004b5e:	6e7a      	ldr	r2, [r7, #100]	@ 0x64
 8004b60:	429a      	cmp	r2, r3
 8004b62:	f4ff aecf 	bcc.w	8004904 <lea_set_key+0x3ac>
 8004b66:	e005      	b.n	8004b74 <lea_set_key+0x61c>
        }
    } else {
        key->rounds = 0U;
 8004b68:	68fb      	ldr	r3, [r7, #12]
 8004b6a:	2200      	movs	r2, #0
 8004b6c:	f8c3 2300 	str.w	r2, [r3, #768]	@ 0x300
 8004b70:	e000      	b.n	8004b74 <lea_set_key+0x61c>
        return;
 8004b72:	bf00      	nop
    }
}
 8004b74:	376c      	adds	r7, #108	@ 0x6c
 8004b76:	46bd      	mov	sp, r7
 8004b78:	bd90      	pop	{r4, r7, pc}
 8004b7a:	bf00      	nop

08004b7c <lea_encrypt>:

void lea_encrypt(unsigned char *ct, const unsigned char *pt, const LEA_KEY *key) {
 8004b7c:	b580      	push	{r7, lr}
 8004b7e:	b08a      	sub	sp, #40	@ 0x28
 8004b80:	af00      	add	r7, sp, #0
 8004b82:	60f8      	str	r0, [r7, #12]
 8004b84:	60b9      	str	r1, [r7, #8]
 8004b86:	607a      	str	r2, [r7, #4]
    uint32_t x0, x1, x2, x3;
    unsigned int r;
    const uint32_t *rk;

    if (ct == 0 || pt == 0 || key == 0 || key->rounds == 0U) {
 8004b88:	68fb      	ldr	r3, [r7, #12]
 8004b8a:	2b00      	cmp	r3, #0
 8004b8c:	f000 811e 	beq.w	8004dcc <lea_encrypt+0x250>
 8004b90:	68bb      	ldr	r3, [r7, #8]
 8004b92:	2b00      	cmp	r3, #0
 8004b94:	f000 811a 	beq.w	8004dcc <lea_encrypt+0x250>
 8004b98:	687b      	ldr	r3, [r7, #4]
 8004b9a:	2b00      	cmp	r3, #0
 8004b9c:	f000 8116 	beq.w	8004dcc <lea_encrypt+0x250>
 8004ba0:	687b      	ldr	r3, [r7, #4]
 8004ba2:	f8d3 3300 	ldr.w	r3, [r3, #768]	@ 0x300
 8004ba6:	2b00      	cmp	r3, #0
 8004ba8:	f000 8110 	beq.w	8004dcc <lea_encrypt+0x250>
        return;
    }

    x0 = load32_le(pt + 0);
 8004bac:	68b8      	ldr	r0, [r7, #8]
 8004bae:	f7ff fc7b 	bl	80044a8 <load32_le>
 8004bb2:	6278      	str	r0, [r7, #36]	@ 0x24
    x1 = load32_le(pt + 4);
 8004bb4:	68bb      	ldr	r3, [r7, #8]
 8004bb6:	3304      	adds	r3, #4
 8004bb8:	4618      	mov	r0, r3
 8004bba:	f7ff fc75 	bl	80044a8 <load32_le>
 8004bbe:	6238      	str	r0, [r7, #32]
    x2 = load32_le(pt + 8);
 8004bc0:	68bb      	ldr	r3, [r7, #8]
 8004bc2:	3308      	adds	r3, #8
 8004bc4:	4618      	mov	r0, r3
 8004bc6:	f7ff fc6f 	bl	80044a8 <load32_le>
 8004bca:	61f8      	str	r0, [r7, #28]
    x3 = load32_le(pt + 12);
 8004bcc:	68bb      	ldr	r3, [r7, #8]
 8004bce:	330c      	adds	r3, #12
 8004bd0:	4618      	mov	r0, r3
 8004bd2:	f7ff fc69 	bl	80044a8 <load32_le>
 8004bd6:	61b8      	str	r0, [r7, #24]

    for (r = 0; r < key->rounds; ++r) {
 8004bd8:	2300      	movs	r3, #0
 8004bda:	617b      	str	r3, [r7, #20]
 8004bdc:	e0d8      	b.n	8004d90 <lea_encrypt+0x214>
        rk = &key->rk[6U * r];
 8004bde:	697a      	ldr	r2, [r7, #20]
 8004be0:	4613      	mov	r3, r2
 8004be2:	005b      	lsls	r3, r3, #1
 8004be4:	4413      	add	r3, r2
 8004be6:	005b      	lsls	r3, r3, #1
 8004be8:	009b      	lsls	r3, r3, #2
 8004bea:	687a      	ldr	r2, [r7, #4]
 8004bec:	4413      	add	r3, r2
 8004bee:	613b      	str	r3, [r7, #16]
        switch (r & 3U) {
 8004bf0:	697b      	ldr	r3, [r7, #20]
 8004bf2:	f003 0303 	and.w	r3, r3, #3
 8004bf6:	2b02      	cmp	r3, #2
 8004bf8:	d067      	beq.n	8004cca <lea_encrypt+0x14e>
 8004bfa:	2b02      	cmp	r3, #2
 8004bfc:	f200 8095 	bhi.w	8004d2a <lea_encrypt+0x1ae>
 8004c00:	2b00      	cmp	r3, #0
 8004c02:	d002      	beq.n	8004c0a <lea_encrypt+0x8e>
 8004c04:	2b01      	cmp	r3, #1
 8004c06:	d030      	beq.n	8004c6a <lea_encrypt+0xee>
 8004c08:	e08f      	b.n	8004d2a <lea_encrypt+0x1ae>
            case 0U:
                x3 = ror32((x2 ^ rk[4]) + (x3 ^ rk[5]), 3);
 8004c0a:	693b      	ldr	r3, [r7, #16]
 8004c0c:	3310      	adds	r3, #16
 8004c0e:	681a      	ldr	r2, [r3, #0]
 8004c10:	69fb      	ldr	r3, [r7, #28]
 8004c12:	405a      	eors	r2, r3
 8004c14:	693b      	ldr	r3, [r7, #16]
 8004c16:	3314      	adds	r3, #20
 8004c18:	6819      	ldr	r1, [r3, #0]
 8004c1a:	69bb      	ldr	r3, [r7, #24]
 8004c1c:	404b      	eors	r3, r1
 8004c1e:	4413      	add	r3, r2
 8004c20:	2103      	movs	r1, #3
 8004c22:	4618      	mov	r0, r3
 8004c24:	f7ff fc31 	bl	800448a <ror32>
 8004c28:	61b8      	str	r0, [r7, #24]
                x2 = ror32((x1 ^ rk[2]) + (x2 ^ rk[3]), 5);
 8004c2a:	693b      	ldr	r3, [r7, #16]
 8004c2c:	3308      	adds	r3, #8
 8004c2e:	681a      	ldr	r2, [r3, #0]
 8004c30:	6a3b      	ldr	r3, [r7, #32]
 8004c32:	405a      	eors	r2, r3
 8004c34:	693b      	ldr	r3, [r7, #16]
 8004c36:	330c      	adds	r3, #12
 8004c38:	6819      	ldr	r1, [r3, #0]
 8004c3a:	69fb      	ldr	r3, [r7, #28]
 8004c3c:	404b      	eors	r3, r1
 8004c3e:	4413      	add	r3, r2
 8004c40:	2105      	movs	r1, #5
 8004c42:	4618      	mov	r0, r3
 8004c44:	f7ff fc21 	bl	800448a <ror32>
 8004c48:	61f8      	str	r0, [r7, #28]
                x1 = rol32((x0 ^ rk[0]) + (x1 ^ rk[1]), 9);
 8004c4a:	693b      	ldr	r3, [r7, #16]
 8004c4c:	681a      	ldr	r2, [r3, #0]
 8004c4e:	6a7b      	ldr	r3, [r7, #36]	@ 0x24
 8004c50:	405a      	eors	r2, r3
 8004c52:	693b      	ldr	r3, [r7, #16]
 8004c54:	3304      	adds	r3, #4
 8004c56:	6819      	ldr	r1, [r3, #0]
 8004c58:	6a3b      	ldr	r3, [r7, #32]
 8004c5a:	404b      	eors	r3, r1
 8004c5c:	4413      	add	r3, r2
 8004c5e:	2109      	movs	r1, #9
 8004c60:	4618      	mov	r0, r3
 8004c62:	f7ff fc01 	bl	8004468 <rol32>
 8004c66:	6238      	str	r0, [r7, #32]
                break;
 8004c68:	e08f      	b.n	8004d8a <lea_encrypt+0x20e>
            case 1U:
                x0 = ror32((x3 ^ rk[4]) + (x0 ^ rk[5]), 3);
 8004c6a:	693b      	ldr	r3, [r7, #16]
 8004c6c:	3310      	adds	r3, #16
 8004c6e:	681a      	ldr	r2, [r3, #0]
 8004c70:	69bb      	ldr	r3, [r7, #24]
 8004c72:	405a      	eors	r2, r3
 8004c74:	693b      	ldr	r3, [r7, #16]
 8004c76:	3314      	adds	r3, #20
 8004c78:	6819      	ldr	r1, [r3, #0]
 8004c7a:	6a7b      	ldr	r3, [r7, #36]	@ 0x24
 8004c7c:	404b      	eors	r3, r1
 8004c7e:	4413      	add	r3, r2
 8004c80:	2103      	movs	r1, #3
 8004c82:	4618      	mov	r0, r3
 8004c84:	f7ff fc01 	bl	800448a <ror32>
 8004c88:	6278      	str	r0, [r7, #36]	@ 0x24
                x3 = ror32((x2 ^ rk[2]) + (x3 ^ rk[3]), 5);
 8004c8a:	693b      	ldr	r3, [r7, #16]
 8004c8c:	3308      	adds	r3, #8
 8004c8e:	681a      	ldr	r2, [r3, #0]
 8004c90:	69fb      	ldr	r3, [r7, #28]
 8004c92:	405a      	eors	r2, r3
 8004c94:	693b      	ldr	r3, [r7, #16]
 8004c96:	330c      	adds	r3, #12
 8004c98:	6819      	ldr	r1, [r3, #0]
 8004c9a:	69bb      	ldr	r3, [r7, #24]
 8004c9c:	404b      	eors	r3, r1
 8004c9e:	4413      	add	r3, r2
 8004ca0:	2105      	movs	r1, #5
 8004ca2:	4618      	mov	r0, r3
 8004ca4:	f7ff fbf1 	bl	800448a <ror32>
 8004ca8:	61b8      	str	r0, [r7, #24]
                x2 = rol32((x1 ^ rk[0]) + (x2 ^ rk[1]), 9);
 8004caa:	693b      	ldr	r3, [r7, #16]
 8004cac:	681a      	ldr	r2, [r3, #0]
 8004cae:	6a3b      	ldr	r3, [r7, #32]
 8004cb0:	405a      	eors	r2, r3
 8004cb2:	693b      	ldr	r3, [r7, #16]
 8004cb4:	3304      	adds	r3, #4
 8004cb6:	6819      	ldr	r1, [r3, #0]
 8004cb8:	69fb      	ldr	r3, [r7, #28]
 8004cba:	404b      	eors	r3, r1
 8004cbc:	4413      	add	r3, r2
 8004cbe:	2109      	movs	r1, #9
 8004cc0:	4618      	mov	r0, r3
 8004cc2:	f7ff fbd1 	bl	8004468 <rol32>
 8004cc6:	61f8      	str	r0, [r7, #28]
                break;
 8004cc8:	e05f      	b.n	8004d8a <lea_encrypt+0x20e>
            case 2U:
                x1 = ror32((x0 ^ rk[4]) + (x1 ^ rk[5]), 3);
 8004cca:	693b      	ldr	r3, [r7, #16]
 8004ccc:	3310      	adds	r3, #16
 8004cce:	681a      	ldr	r2, [r3, #0]
 8004cd0:	6a7b      	ldr	r3, [r7, #36]	@ 0x24
 8004cd2:	405a      	eors	r2, r3
 8004cd4:	693b      	ldr	r3, [r7, #16]
 8004cd6:	3314      	adds	r3, #20
 8004cd8:	6819      	ldr	r1, [r3, #0]
 8004cda:	6a3b      	ldr	r3, [r7, #32]
 8004cdc:	404b      	eors	r3, r1
 8004cde:	4413      	add	r3, r2
 8004ce0:	2103      	movs	r1, #3
 8004ce2:	4618      	mov	r0, r3
 8004ce4:	f7ff fbd1 	bl	800448a <ror32>
 8004ce8:	6238      	str	r0, [r7, #32]
                x0 = ror32((x3 ^ rk[2]) + (x0 ^ rk[3]), 5);
 8004cea:	693b      	ldr	r3, [r7, #16]
 8004cec:	3308      	adds	r3, #8
 8004cee:	681a      	ldr	r2, [r3, #0]
 8004cf0:	69bb      	ldr	r3, [r7, #24]
 8004cf2:	405a      	eors	r2, r3
 8004cf4:	693b      	ldr	r3, [r7, #16]
 8004cf6:	330c      	adds	r3, #12
 8004cf8:	6819      	ldr	r1, [r3, #0]
 8004cfa:	6a7b      	ldr	r3, [r7, #36]	@ 0x24
 8004cfc:	404b      	eors	r3, r1
 8004cfe:	4413      	add	r3, r2
 8004d00:	2105      	movs	r1, #5
 8004d02:	4618      	mov	r0, r3
 8004d04:	f7ff fbc1 	bl	800448a <ror32>
 8004d08:	6278      	str	r0, [r7, #36]	@ 0x24
                x3 = rol32((x2 ^ rk[0]) + (x3 ^ rk[1]), 9);
 8004d0a:	693b      	ldr	r3, [r7, #16]
 8004d0c:	681a      	ldr	r2, [r3, #0]
 8004d0e:	69fb      	ldr	r3, [r7, #28]
 8004d10:	405a      	eors	r2, r3
 8004d12:	693b      	ldr	r3, [r7, #16]
 8004d14:	3304      	adds	r3, #4
 8004d16:	6819      	ldr	r1, [r3, #0]
 8004d18:	69bb      	ldr	r3, [r7, #24]
 8004d1a:	404b      	eors	r3, r1
 8004d1c:	4413      	add	r3, r2
 8004d1e:	2109      	movs	r1, #9
 8004d20:	4618      	mov	r0, r3
 8004d22:	f7ff fba1 	bl	8004468 <rol32>
 8004d26:	61b8      	str	r0, [r7, #24]
                break;
 8004d28:	e02f      	b.n	8004d8a <lea_encrypt+0x20e>
            default:
                x2 = ror32((x1 ^ rk[4]) + (x2 ^ rk[5]), 3);
 8004d2a:	693b      	ldr	r3, [r7, #16]
 8004d2c:	3310      	adds	r3, #16
 8004d2e:	681a      	ldr	r2, [r3, #0]
 8004d30:	6a3b      	ldr	r3, [r7, #32]
 8004d32:	405a      	eors	r2, r3
 8004d34:	693b      	ldr	r3, [r7, #16]
 8004d36:	3314      	adds	r3, #20
 8004d38:	6819      	ldr	r1, [r3, #0]
 8004d3a:	69fb      	ldr	r3, [r7, #28]
 8004d3c:	404b      	eors	r3, r1
 8004d3e:	4413      	add	r3, r2
 8004d40:	2103      	movs	r1, #3
 8004d42:	4618      	mov	r0, r3
 8004d44:	f7ff fba1 	bl	800448a <ror32>
 8004d48:	61f8      	str	r0, [r7, #28]
                x1 = ror32((x0 ^ rk[2]) + (x1 ^ rk[3]), 5);
 8004d4a:	693b      	ldr	r3, [r7, #16]
 8004d4c:	3308      	adds	r3, #8
 8004d4e:	681a      	ldr	r2, [r3, #0]
 8004d50:	6a7b      	ldr	r3, [r7, #36]	@ 0x24
 8004d52:	405a      	eors	r2, r3
 8004d54:	693b      	ldr	r3, [r7, #16]
 8004d56:	330c      	adds	r3, #12
 8004d58:	6819      	ldr	r1, [r3, #0]
 8004d5a:	6a3b      	ldr	r3, [r7, #32]
 8004d5c:	404b      	eors	r3, r1
 8004d5e:	4413      	add	r3, r2
 8004d60:	2105      	movs	r1, #5
 8004d62:	4618      	mov	r0, r3
 8004d64:	f7ff fb91 	bl	800448a <ror32>
 8004d68:	6238      	str	r0, [r7, #32]
                x0 = rol32((x3 ^ rk[0]) + (x0 ^ rk[1]), 9);
 8004d6a:	693b      	ldr	r3, [r7, #16]
 8004d6c:	681a      	ldr	r2, [r3, #0]
 8004d6e:	69bb      	ldr	r3, [r7, #24]
 8004d70:	405a      	eors	r2, r3
 8004d72:	693b      	ldr	r3, [r7, #16]
 8004d74:	3304      	adds	r3, #4
 8004d76:	6819      	ldr	r1, [r3, #0]
 8004d78:	6a7b      	ldr	r3, [r7, #36]	@ 0x24
 8004d7a:	404b      	eors	r3, r1
 8004d7c:	4413      	add	r3, r2
 8004d7e:	2109      	movs	r1, #9
 8004d80:	4618      	mov	r0, r3
 8004d82:	f7ff fb71 	bl	8004468 <rol32>
 8004d86:	6278      	str	r0, [r7, #36]	@ 0x24
                break;
 8004d88:	bf00      	nop
    for (r = 0; r < key->rounds; ++r) {
 8004d8a:	697b      	ldr	r3, [r7, #20]
 8004d8c:	3301      	adds	r3, #1
 8004d8e:	617b      	str	r3, [r7, #20]
 8004d90:	687b      	ldr	r3, [r7, #4]
 8004d92:	f8d3 3300 	ldr.w	r3, [r3, #768]	@ 0x300
 8004d96:	697a      	ldr	r2, [r7, #20]
 8004d98:	429a      	cmp	r2, r3
 8004d9a:	f4ff af20 	bcc.w	8004bde <lea_encrypt+0x62>
        }
    }

    store32_le(ct + 0, x0);
 8004d9e:	6a79      	ldr	r1, [r7, #36]	@ 0x24
 8004da0:	68f8      	ldr	r0, [r7, #12]
 8004da2:	f7ff fb9d 	bl	80044e0 <store32_le>
    store32_le(ct + 4, x1);
 8004da6:	68fb      	ldr	r3, [r7, #12]
 8004da8:	3304      	adds	r3, #4
 8004daa:	6a39      	ldr	r1, [r7, #32]
 8004dac:	4618      	mov	r0, r3
 8004dae:	f7ff fb97 	bl	80044e0 <store32_le>
    store32_le(ct + 8, x2);
 8004db2:	68fb      	ldr	r3, [r7, #12]
 8004db4:	3308      	adds	r3, #8
 8004db6:	69f9      	ldr	r1, [r7, #28]
 8004db8:	4618      	mov	r0, r3
 8004dba:	f7ff fb91 	bl	80044e0 <store32_le>
    store32_le(ct + 12, x3);
 8004dbe:	68fb      	ldr	r3, [r7, #12]
 8004dc0:	330c      	adds	r3, #12
 8004dc2:	69b9      	ldr	r1, [r7, #24]
 8004dc4:	4618      	mov	r0, r3
 8004dc6:	f7ff fb8b 	bl	80044e0 <store32_le>
 8004dca:	e000      	b.n	8004dce <lea_encrypt+0x252>
        return;
 8004dcc:	bf00      	nop
}
 8004dce:	3728      	adds	r7, #40	@ 0x28
 8004dd0:	46bd      	mov	sp, r7
 8004dd2:	bd80      	pop	{r7, pc}

08004dd4 <lea_decrypt>:

void lea_decrypt(unsigned char *pt, const unsigned char *ct, const LEA_KEY *key) {
 8004dd4:	b580      	push	{r7, lr}
 8004dd6:	b08a      	sub	sp, #40	@ 0x28
 8004dd8:	af00      	add	r7, sp, #0
 8004dda:	60f8      	str	r0, [r7, #12]
 8004ddc:	60b9      	str	r1, [r7, #8]
 8004dde:	607a      	str	r2, [r7, #4]
    uint32_t x0, x1, x2, x3;
    int r;
    const uint32_t *rk;

    if (pt == 0 || ct == 0 || key == 0 || key->rounds == 0U) {
 8004de0:	68fb      	ldr	r3, [r7, #12]
 8004de2:	2b00      	cmp	r3, #0
 8004de4:	f000 811e 	beq.w	8005024 <lea_decrypt+0x250>
 8004de8:	68bb      	ldr	r3, [r7, #8]
 8004dea:	2b00      	cmp	r3, #0
 8004dec:	f000 811a 	beq.w	8005024 <lea_decrypt+0x250>
 8004df0:	687b      	ldr	r3, [r7, #4]
 8004df2:	2b00      	cmp	r3, #0
 8004df4:	f000 8116 	beq.w	8005024 <lea_decrypt+0x250>
 8004df8:	687b      	ldr	r3, [r7, #4]
 8004dfa:	f8d3 3300 	ldr.w	r3, [r3, #768]	@ 0x300
 8004dfe:	2b00      	cmp	r3, #0
 8004e00:	f000 8110 	beq.w	8005024 <lea_decrypt+0x250>
        return;
    }

    x0 = load32_le(ct + 0);
 8004e04:	68b8      	ldr	r0, [r7, #8]
 8004e06:	f7ff fb4f 	bl	80044a8 <load32_le>
 8004e0a:	6278      	str	r0, [r7, #36]	@ 0x24
    x1 = load32_le(ct + 4);
 8004e0c:	68bb      	ldr	r3, [r7, #8]
 8004e0e:	3304      	adds	r3, #4
 8004e10:	4618      	mov	r0, r3
 8004e12:	f7ff fb49 	bl	80044a8 <load32_le>
 8004e16:	6238      	str	r0, [r7, #32]
    x2 = load32_le(ct + 8);
 8004e18:	68bb      	ldr	r3, [r7, #8]
 8004e1a:	3308      	adds	r3, #8
 8004e1c:	4618      	mov	r0, r3
 8004e1e:	f7ff fb43 	bl	80044a8 <load32_le>
 8004e22:	61f8      	str	r0, [r7, #28]
    x3 = load32_le(ct + 12);
 8004e24:	68bb      	ldr	r3, [r7, #8]
 8004e26:	330c      	adds	r3, #12
 8004e28:	4618      	mov	r0, r3
 8004e2a:	f7ff fb3d 	bl	80044a8 <load32_le>
 8004e2e:	61b8      	str	r0, [r7, #24]

    for (r = (int)key->rounds - 1; r >= 0; --r) {
 8004e30:	687b      	ldr	r3, [r7, #4]
 8004e32:	f8d3 3300 	ldr.w	r3, [r3, #768]	@ 0x300
 8004e36:	3b01      	subs	r3, #1
 8004e38:	617b      	str	r3, [r7, #20]
 8004e3a:	e0d8      	b.n	8004fee <lea_decrypt+0x21a>
        rk = &key->rk[6U * (unsigned int)r];
 8004e3c:	697a      	ldr	r2, [r7, #20]
 8004e3e:	4613      	mov	r3, r2
 8004e40:	005b      	lsls	r3, r3, #1
 8004e42:	4413      	add	r3, r2
 8004e44:	005b      	lsls	r3, r3, #1
 8004e46:	009b      	lsls	r3, r3, #2
 8004e48:	687a      	ldr	r2, [r7, #4]
 8004e4a:	4413      	add	r3, r2
 8004e4c:	613b      	str	r3, [r7, #16]
        switch ((unsigned int)r & 3U) {
 8004e4e:	697b      	ldr	r3, [r7, #20]
 8004e50:	f003 0303 	and.w	r3, r3, #3
 8004e54:	2b02      	cmp	r3, #2
 8004e56:	d067      	beq.n	8004f28 <lea_decrypt+0x154>
 8004e58:	2b02      	cmp	r3, #2
 8004e5a:	f200 8095 	bhi.w	8004f88 <lea_decrypt+0x1b4>
 8004e5e:	2b00      	cmp	r3, #0
 8004e60:	d002      	beq.n	8004e68 <lea_decrypt+0x94>
 8004e62:	2b01      	cmp	r3, #1
 8004e64:	d030      	beq.n	8004ec8 <lea_decrypt+0xf4>
 8004e66:	e08f      	b.n	8004f88 <lea_decrypt+0x1b4>
            case 0U:
                x1 = (ror32(x1, 9) - (x0 ^ rk[0])) ^ rk[1];
 8004e68:	2109      	movs	r1, #9
 8004e6a:	6a38      	ldr	r0, [r7, #32]
 8004e6c:	f7ff fb0d 	bl	800448a <ror32>
 8004e70:	4601      	mov	r1, r0
 8004e72:	693b      	ldr	r3, [r7, #16]
 8004e74:	681a      	ldr	r2, [r3, #0]
 8004e76:	6a7b      	ldr	r3, [r7, #36]	@ 0x24
 8004e78:	4053      	eors	r3, r2
 8004e7a:	1aca      	subs	r2, r1, r3
 8004e7c:	693b      	ldr	r3, [r7, #16]
 8004e7e:	3304      	adds	r3, #4
 8004e80:	681b      	ldr	r3, [r3, #0]
 8004e82:	4053      	eors	r3, r2
 8004e84:	623b      	str	r3, [r7, #32]
                x2 = (rol32(x2, 5) - (x1 ^ rk[2])) ^ rk[3];
 8004e86:	2105      	movs	r1, #5
 8004e88:	69f8      	ldr	r0, [r7, #28]
 8004e8a:	f7ff faed 	bl	8004468 <rol32>
 8004e8e:	4601      	mov	r1, r0
 8004e90:	693b      	ldr	r3, [r7, #16]
 8004e92:	3308      	adds	r3, #8
 8004e94:	681a      	ldr	r2, [r3, #0]
 8004e96:	6a3b      	ldr	r3, [r7, #32]
 8004e98:	4053      	eors	r3, r2
 8004e9a:	1aca      	subs	r2, r1, r3
 8004e9c:	693b      	ldr	r3, [r7, #16]
 8004e9e:	330c      	adds	r3, #12
 8004ea0:	681b      	ldr	r3, [r3, #0]
 8004ea2:	4053      	eors	r3, r2
 8004ea4:	61fb      	str	r3, [r7, #28]
                x3 = (rol32(x3, 3) - (x2 ^ rk[4])) ^ rk[5];
 8004ea6:	2103      	movs	r1, #3
 8004ea8:	69b8      	ldr	r0, [r7, #24]
 8004eaa:	f7ff fadd 	bl	8004468 <rol32>
 8004eae:	4601      	mov	r1, r0
 8004eb0:	693b      	ldr	r3, [r7, #16]
 8004eb2:	3310      	adds	r3, #16
 8004eb4:	681a      	ldr	r2, [r3, #0]
 8004eb6:	69fb      	ldr	r3, [r7, #28]
 8004eb8:	4053      	eors	r3, r2
 8004eba:	1aca      	subs	r2, r1, r3
 8004ebc:	693b      	ldr	r3, [r7, #16]
 8004ebe:	3314      	adds	r3, #20
 8004ec0:	681b      	ldr	r3, [r3, #0]
 8004ec2:	4053      	eors	r3, r2
 8004ec4:	61bb      	str	r3, [r7, #24]
                break;
 8004ec6:	e08f      	b.n	8004fe8 <lea_decrypt+0x214>
            case 1U:
                x2 = (ror32(x2, 9) - (x1 ^ rk[0])) ^ rk[1];
 8004ec8:	2109      	movs	r1, #9
 8004eca:	69f8      	ldr	r0, [r7, #28]
 8004ecc:	f7ff fadd 	bl	800448a <ror32>
 8004ed0:	4601      	mov	r1, r0
 8004ed2:	693b      	ldr	r3, [r7, #16]
 8004ed4:	681a      	ldr	r2, [r3, #0]
 8004ed6:	6a3b      	ldr	r3, [r7, #32]
 8004ed8:	4053      	eors	r3, r2
 8004eda:	1aca      	subs	r2, r1, r3
 8004edc:	693b      	ldr	r3, [r7, #16]
 8004ede:	3304      	adds	r3, #4
 8004ee0:	681b      	ldr	r3, [r3, #0]
 8004ee2:	4053      	eors	r3, r2
 8004ee4:	61fb      	str	r3, [r7, #28]
                x3 = (rol32(x3, 5) - (x2 ^ rk[2])) ^ rk[3];
 8004ee6:	2105      	movs	r1, #5
 8004ee8:	69b8      	ldr	r0, [r7, #24]
 8004eea:	f7ff fabd 	bl	8004468 <rol32>
 8004eee:	4601      	mov	r1, r0
 8004ef0:	693b      	ldr	r3, [r7, #16]
 8004ef2:	3308      	adds	r3, #8
 8004ef4:	681a      	ldr	r2, [r3, #0]
 8004ef6:	69fb      	ldr	r3, [r7, #28]
 8004ef8:	4053      	eors	r3, r2
 8004efa:	1aca      	subs	r2, r1, r3
 8004efc:	693b      	ldr	r3, [r7, #16]
 8004efe:	330c      	adds	r3, #12
 8004f00:	681b      	ldr	r3, [r3, #0]
 8004f02:	4053      	eors	r3, r2
 8004f04:	61bb      	str	r3, [r7, #24]
                x0 = (rol32(x0, 3) - (x3 ^ rk[4])) ^ rk[5];
 8004f06:	2103      	movs	r1, #3
 8004f08:	6a78      	ldr	r0, [r7, #36]	@ 0x24
 8004f0a:	f7ff faad 	bl	8004468 <rol32>
 8004f0e:	4601      	mov	r1, r0
 8004f10:	693b      	ldr	r3, [r7, #16]
 8004f12:	3310      	adds	r3, #16
 8004f14:	681a      	ldr	r2, [r3, #0]
 8004f16:	69bb      	ldr	r3, [r7, #24]
 8004f18:	4053      	eors	r3, r2
 8004f1a:	1aca      	subs	r2, r1, r3
 8004f1c:	693b      	ldr	r3, [r7, #16]
 8004f1e:	3314      	adds	r3, #20
 8004f20:	681b      	ldr	r3, [r3, #0]
 8004f22:	4053      	eors	r3, r2
 8004f24:	627b      	str	r3, [r7, #36]	@ 0x24
                break;
 8004f26:	e05f      	b.n	8004fe8 <lea_decrypt+0x214>
            case 2U:
                x3 = (ror32(x3, 9) - (x2 ^ rk[0])) ^ rk[1];
 8004f28:	2109      	movs	r1, #9
 8004f2a:	69b8      	ldr	r0, [r7, #24]
 8004f2c:	f7ff faad 	bl	800448a <ror32>
 8004f30:	4601      	mov	r1, r0
 8004f32:	693b      	ldr	r3, [r7, #16]
 8004f34:	681a      	ldr	r2, [r3, #0]
 8004f36:	69fb      	ldr	r3, [r7, #28]
 8004f38:	4053      	eors	r3, r2
 8004f3a:	1aca      	subs	r2, r1, r3
 8004f3c:	693b      	ldr	r3, [r7, #16]
 8004f3e:	3304      	adds	r3, #4
 8004f40:	681b      	ldr	r3, [r3, #0]
 8004f42:	4053      	eors	r3, r2
 8004f44:	61bb      	str	r3, [r7, #24]
                x0 = (rol32(x0, 5) - (x3 ^ rk[2])) ^ rk[3];
 8004f46:	2105      	movs	r1, #5
 8004f48:	6a78      	ldr	r0, [r7, #36]	@ 0x24
 8004f4a:	f7ff fa8d 	bl	8004468 <rol32>
 8004f4e:	4601      	mov	r1, r0
 8004f50:	693b      	ldr	r3, [r7, #16]
 8004f52:	3308      	adds	r3, #8
 8004f54:	681a      	ldr	r2, [r3, #0]
 8004f56:	69bb      	ldr	r3, [r7, #24]
 8004f58:	4053      	eors	r3, r2
 8004f5a:	1aca      	subs	r2, r1, r3
 8004f5c:	693b      	ldr	r3, [r7, #16]
 8004f5e:	330c      	adds	r3, #12
 8004f60:	681b      	ldr	r3, [r3, #0]
 8004f62:	4053      	eors	r3, r2
 8004f64:	627b      	str	r3, [r7, #36]	@ 0x24
                x1 = (rol32(x1, 3) - (x0 ^ rk[4])) ^ rk[5];
 8004f66:	2103      	movs	r1, #3
 8004f68:	6a38      	ldr	r0, [r7, #32]
 8004f6a:	f7ff fa7d 	bl	8004468 <rol32>
 8004f6e:	4601      	mov	r1, r0
 8004f70:	693b      	ldr	r3, [r7, #16]
 8004f72:	3310      	adds	r3, #16
 8004f74:	681a      	ldr	r2, [r3, #0]
 8004f76:	6a7b      	ldr	r3, [r7, #36]	@ 0x24
 8004f78:	4053      	eors	r3, r2
 8004f7a:	1aca      	subs	r2, r1, r3
 8004f7c:	693b      	ldr	r3, [r7, #16]
 8004f7e:	3314      	adds	r3, #20
 8004f80:	681b      	ldr	r3, [r3, #0]
 8004f82:	4053      	eors	r3, r2
 8004f84:	623b      	str	r3, [r7, #32]
                break;
 8004f86:	e02f      	b.n	8004fe8 <lea_decrypt+0x214>
            default:
                x0 = (ror32(x0, 9) - (x3 ^ rk[0])) ^ rk[1];
 8004f88:	2109      	movs	r1, #9
 8004f8a:	6a78      	ldr	r0, [r7, #36]	@ 0x24
 8004f8c:	f7ff fa7d 	bl	800448a <ror32>
 8004f90:	4601      	mov	r1, r0
 8004f92:	693b      	ldr	r3, [r7, #16]
 8004f94:	681a      	ldr	r2, [r3, #0]
 8004f96:	69bb      	ldr	r3, [r7, #24]
 8004f98:	4053      	eors	r3, r2
 8004f9a:	1aca      	subs	r2, r1, r3
 8004f9c:	693b      	ldr	r3, [r7, #16]
 8004f9e:	3304      	adds	r3, #4
 8004fa0:	681b      	ldr	r3, [r3, #0]
 8004fa2:	4053      	eors	r3, r2
 8004fa4:	627b      	str	r3, [r7, #36]	@ 0x24
                x1 = (rol32(x1, 5) - (x0 ^ rk[2])) ^ rk[3];
 8004fa6:	2105      	movs	r1, #5
 8004fa8:	6a38      	ldr	r0, [r7, #32]
 8004faa:	f7ff fa5d 	bl	8004468 <rol32>
 8004fae:	4601      	mov	r1, r0
 8004fb0:	693b      	ldr	r3, [r7, #16]
 8004fb2:	3308      	adds	r3, #8
 8004fb4:	681a      	ldr	r2, [r3, #0]
 8004fb6:	6a7b      	ldr	r3, [r7, #36]	@ 0x24
 8004fb8:	4053      	eors	r3, r2
 8004fba:	1aca      	subs	r2, r1, r3
 8004fbc:	693b      	ldr	r3, [r7, #16]
 8004fbe:	330c      	adds	r3, #12
 8004fc0:	681b      	ldr	r3, [r3, #0]
 8004fc2:	4053      	eors	r3, r2
 8004fc4:	623b      	str	r3, [r7, #32]
                x2 = (rol32(x2, 3) - (x1 ^ rk[4])) ^ rk[5];
 8004fc6:	2103      	movs	r1, #3
 8004fc8:	69f8      	ldr	r0, [r7, #28]
 8004fca:	f7ff fa4d 	bl	8004468 <rol32>
 8004fce:	4601      	mov	r1, r0
 8004fd0:	693b      	ldr	r3, [r7, #16]
 8004fd2:	3310      	adds	r3, #16
 8004fd4:	681a      	ldr	r2, [r3, #0]
 8004fd6:	6a3b      	ldr	r3, [r7, #32]
 8004fd8:	4053      	eors	r3, r2
 8004fda:	1aca      	subs	r2, r1, r3
 8004fdc:	693b      	ldr	r3, [r7, #16]
 8004fde:	3314      	adds	r3, #20
 8004fe0:	681b      	ldr	r3, [r3, #0]
 8004fe2:	4053      	eors	r3, r2
 8004fe4:	61fb      	str	r3, [r7, #28]
                break;
 8004fe6:	bf00      	nop
    for (r = (int)key->rounds - 1; r >= 0; --r) {
 8004fe8:	697b      	ldr	r3, [r7, #20]
 8004fea:	3b01      	subs	r3, #1
 8004fec:	617b      	str	r3, [r7, #20]
 8004fee:	697b      	ldr	r3, [r7, #20]
 8004ff0:	2b00      	cmp	r3, #0
 8004ff2:	f6bf af23 	bge.w	8004e3c <lea_decrypt+0x68>
        }
    }

    store32_le(pt + 0, x0);
 8004ff6:	6a79      	ldr	r1, [r7, #36]	@ 0x24
 8004ff8:	68f8      	ldr	r0, [r7, #12]
 8004ffa:	f7ff fa71 	bl	80044e0 <store32_le>
    store32_le(pt + 4, x1);
 8004ffe:	68fb      	ldr	r3, [r7, #12]
 8005000:	3304      	adds	r3, #4
 8005002:	6a39      	ldr	r1, [r7, #32]
 8005004:	4618      	mov	r0, r3
 8005006:	f7ff fa6b 	bl	80044e0 <store32_le>
    store32_le(pt + 8, x2);
 800500a:	68fb      	ldr	r3, [r7, #12]
 800500c:	3308      	adds	r3, #8
 800500e:	69f9      	ldr	r1, [r7, #28]
 8005010:	4618      	mov	r0, r3
 8005012:	f7ff fa65 	bl	80044e0 <store32_le>
    store32_le(pt + 12, x3);
 8005016:	68fb      	ldr	r3, [r7, #12]
 8005018:	330c      	adds	r3, #12
 800501a:	69b9      	ldr	r1, [r7, #24]
 800501c:	4618      	mov	r0, r3
 800501e:	f7ff fa5f 	bl	80044e0 <store32_le>
 8005022:	e000      	b.n	8005026 <lea_decrypt+0x252>
        return;
 8005024:	bf00      	nop
}
 8005026:	3728      	adds	r7, #40	@ 0x28
 8005028:	46bd      	mov	sp, r7
 800502a:	bd80      	pop	{r7, pc}

0800502c <lea_ecb_encrypt>:

void lea_ecb_encrypt(unsigned char *ct, const unsigned char *pt, unsigned int len, const LEA_KEY *key) {
 800502c:	b580      	push	{r7, lr}
 800502e:	b086      	sub	sp, #24
 8005030:	af00      	add	r7, sp, #0
 8005032:	60f8      	str	r0, [r7, #12]
 8005034:	60b9      	str	r1, [r7, #8]
 8005036:	607a      	str	r2, [r7, #4]
 8005038:	603b      	str	r3, [r7, #0]
    unsigned int i;
    if (ct == 0 || pt == 0 || key == 0) {
 800503a:	68fb      	ldr	r3, [r7, #12]
 800503c:	2b00      	cmp	r3, #0
 800503e:	d01f      	beq.n	8005080 <lea_ecb_encrypt+0x54>
 8005040:	68bb      	ldr	r3, [r7, #8]
 8005042:	2b00      	cmp	r3, #0
 8005044:	d01c      	beq.n	8005080 <lea_ecb_encrypt+0x54>
 8005046:	683b      	ldr	r3, [r7, #0]
 8005048:	2b00      	cmp	r3, #0
 800504a:	d019      	beq.n	8005080 <lea_ecb_encrypt+0x54>
        return;
    }
    if ((len & (LEA_BLOCK_SIZE - 1U)) != 0U) {
 800504c:	687b      	ldr	r3, [r7, #4]
 800504e:	f003 030f 	and.w	r3, r3, #15
 8005052:	2b00      	cmp	r3, #0
 8005054:	d116      	bne.n	8005084 <lea_ecb_encrypt+0x58>
        return;
    }
    for (i = 0; i < len; i += LEA_BLOCK_SIZE) {
 8005056:	2300      	movs	r3, #0
 8005058:	617b      	str	r3, [r7, #20]
 800505a:	e00c      	b.n	8005076 <lea_ecb_encrypt+0x4a>
        lea_encrypt(ct + i, pt + i, key);
 800505c:	68fa      	ldr	r2, [r7, #12]
 800505e:	697b      	ldr	r3, [r7, #20]
 8005060:	18d0      	adds	r0, r2, r3
 8005062:	68ba      	ldr	r2, [r7, #8]
 8005064:	697b      	ldr	r3, [r7, #20]
 8005066:	4413      	add	r3, r2
 8005068:	683a      	ldr	r2, [r7, #0]
 800506a:	4619      	mov	r1, r3
 800506c:	f7ff fd86 	bl	8004b7c <lea_encrypt>
    for (i = 0; i < len; i += LEA_BLOCK_SIZE) {
 8005070:	697b      	ldr	r3, [r7, #20]
 8005072:	3310      	adds	r3, #16
 8005074:	617b      	str	r3, [r7, #20]
 8005076:	697a      	ldr	r2, [r7, #20]
 8005078:	687b      	ldr	r3, [r7, #4]
 800507a:	429a      	cmp	r2, r3
 800507c:	d3ee      	bcc.n	800505c <lea_ecb_encrypt+0x30>
 800507e:	e002      	b.n	8005086 <lea_ecb_encrypt+0x5a>
        return;
 8005080:	bf00      	nop
 8005082:	e000      	b.n	8005086 <lea_ecb_encrypt+0x5a>
        return;
 8005084:	bf00      	nop
    }
}
 8005086:	3718      	adds	r7, #24
 8005088:	46bd      	mov	sp, r7
 800508a:	bd80      	pop	{r7, pc}

0800508c <lea_ecb_decrypt>:

void lea_ecb_decrypt(unsigned char *pt, const unsigned char *ct, unsigned int len, const LEA_KEY *key) {
 800508c:	b580      	push	{r7, lr}
 800508e:	b086      	sub	sp, #24
 8005090:	af00      	add	r7, sp, #0
 8005092:	60f8      	str	r0, [r7, #12]
 8005094:	60b9      	str	r1, [r7, #8]
 8005096:	607a      	str	r2, [r7, #4]
 8005098:	603b      	str	r3, [r7, #0]
    unsigned int i;
    if (pt == 0 || ct == 0 || key == 0) {
 800509a:	68fb      	ldr	r3, [r7, #12]
 800509c:	2b00      	cmp	r3, #0
 800509e:	d01f      	beq.n	80050e0 <lea_ecb_decrypt+0x54>
 80050a0:	68bb      	ldr	r3, [r7, #8]
 80050a2:	2b00      	cmp	r3, #0
 80050a4:	d01c      	beq.n	80050e0 <lea_ecb_decrypt+0x54>
 80050a6:	683b      	ldr	r3, [r7, #0]
 80050a8:	2b00      	cmp	r3, #0
 80050aa:	d019      	beq.n	80050e0 <lea_ecb_decrypt+0x54>
        return;
    }
    if ((len & (LEA_BLOCK_SIZE - 1U)) != 0U) {
 80050ac:	687b      	ldr	r3, [r7, #4]
 80050ae:	f003 030f 	and.w	r3, r3, #15
 80050b2:	2b00      	cmp	r3, #0
 80050b4:	d116      	bne.n	80050e4 <lea_ecb_decrypt+0x58>
        return;
    }
    for (i = 0; i < len; i += LEA_BLOCK_SIZE) {
 80050b6:	2300      	movs	r3, #0
 80050b8:	617b      	str	r3, [r7, #20]
 80050ba:	e00c      	b.n	80050d6 <lea_ecb_decrypt+0x4a>
        lea_decrypt(pt + i, ct + i, key);
 80050bc:	68fa      	ldr	r2, [r7, #12]
 80050be:	697b      	ldr	r3, [r7, #20]
 80050c0:	18d0      	adds	r0, r2, r3
 80050c2:	68ba      	ldr	r2, [r7, #8]
 80050c4:	697b      	ldr	r3, [r7, #20]
 80050c6:	4413      	add	r3, r2
 80050c8:	683a      	ldr	r2, [r7, #0]
 80050ca:	4619      	mov	r1, r3
 80050cc:	f7ff fe82 	bl	8004dd4 <lea_decrypt>
    for (i = 0; i < len; i += LEA_BLOCK_SIZE) {
 80050d0:	697b      	ldr	r3, [r7, #20]
 80050d2:	3310      	adds	r3, #16
 80050d4:	617b      	str	r3, [r7, #20]
 80050d6:	697a      	ldr	r2, [r7, #20]
 80050d8:	687b      	ldr	r3, [r7, #4]
 80050da:	429a      	cmp	r2, r3
 80050dc:	d3ee      	bcc.n	80050bc <lea_ecb_decrypt+0x30>
 80050de:	e002      	b.n	80050e6 <lea_ecb_decrypt+0x5a>
        return;
 80050e0:	bf00      	nop
 80050e2:	e000      	b.n	80050e6 <lea_ecb_decrypt+0x5a>
        return;
 80050e4:	bf00      	nop
    }
}
 80050e6:	3718      	adds	r7, #24
 80050e8:	46bd      	mov	sp, r7
 80050ea:	bd80      	pop	{r7, pc}

080050ec <_write>:
/* USER CODE BEGIN 0 */
// Hivatkozás a generált UART handle-re
extern UART_HandleTypeDef huart2;

// A printf kimenetének átirányítása a soros portra a logoláshoz
int _write(int file, char *ptr, int len) {
 80050ec:	b580      	push	{r7, lr}
 80050ee:	b084      	sub	sp, #16
 80050f0:	af00      	add	r7, sp, #0
 80050f2:	60f8      	str	r0, [r7, #12]
 80050f4:	60b9      	str	r1, [r7, #8]
 80050f6:	607a      	str	r2, [r7, #4]
    HAL_UART_Transmit(&huart2, (uint8_t*)ptr, len, HAL_MAX_DELAY);
 80050f8:	687b      	ldr	r3, [r7, #4]
 80050fa:	b29a      	uxth	r2, r3
 80050fc:	f04f 33ff 	mov.w	r3, #4294967295
 8005100:	68b9      	ldr	r1, [r7, #8]
 8005102:	4804      	ldr	r0, [pc, #16]	@ (8005114 <_write+0x28>)
 8005104:	f7fc ff04 	bl	8001f10 <HAL_UART_Transmit>
    return len;
 8005108:	687b      	ldr	r3, [r7, #4]
}
 800510a:	4618      	mov	r0, r3
 800510c:	3710      	adds	r7, #16
 800510e:	46bd      	mov	sp, r7
 8005110:	bd80      	pop	{r7, pc}
 8005112:	bf00      	nop
 8005114:	2000008c 	.word	0x2000008c

08005118 <DWT_Init>:
#define DEMCR           (*(volatile uint32_t*)0xE000EDFC)
#define DEMCR_TRCENA    0x01000000
#define DWT_CR_CYCCNTENA 0x00000001

// DWT Inicializáló függvény
void DWT_Init(void) {
 8005118:	b480      	push	{r7}
 800511a:	af00      	add	r7, sp, #0
    DEMCR |= DEMCR_TRCENA;        // Trace engedélyezése
 800511c:	4b09      	ldr	r3, [pc, #36]	@ (8005144 <DWT_Init+0x2c>)
 800511e:	681b      	ldr	r3, [r3, #0]
 8005120:	4a08      	ldr	r2, [pc, #32]	@ (8005144 <DWT_Init+0x2c>)
 8005122:	f043 7380 	orr.w	r3, r3, #16777216	@ 0x1000000
 8005126:	6013      	str	r3, [r2, #0]
    DWT_CYCCNT = 0;               // Számláló nullázása
 8005128:	4b07      	ldr	r3, [pc, #28]	@ (8005148 <DWT_Init+0x30>)
 800512a:	2200      	movs	r2, #0
 800512c:	601a      	str	r2, [r3, #0]
    DWT_CTRL |= DWT_CR_CYCCNTENA; // Számláló elindítása
 800512e:	4b07      	ldr	r3, [pc, #28]	@ (800514c <DWT_Init+0x34>)
 8005130:	681b      	ldr	r3, [r3, #0]
 8005132:	4a06      	ldr	r2, [pc, #24]	@ (800514c <DWT_Init+0x34>)
 8005134:	f043 0301 	orr.w	r3, r3, #1
 8005138:	6013      	str	r3, [r2, #0]
}
 800513a:	bf00      	nop
 800513c:	46bd      	mov	sp, r7
 800513e:	f85d 7b04 	ldr.w	r7, [sp], #4
 8005142:	4770      	bx	lr
 8005144:	e000edfc 	.word	0xe000edfc
 8005148:	e0001004 	.word	0xe0001004
 800514c:	e0001000 	.word	0xe0001000

08005150 <main>:
/* USER CODE END 0 */

int main(void)
{
 8005150:	e92d 43f0 	stmdb	sp!, {r4, r5, r6, r7, r8, r9, lr}
 8005154:	f5ad 5d8d 	sub.w	sp, sp, #4512	@ 0x11a0
 8005158:	b085      	sub	sp, #20
 800515a:	af0a      	add	r7, sp, #40	@ 0x28
  /* MCU Configuration--------------------------------------------------------*/
  HAL_Init();
 800515c:	f7fb fa1e 	bl	800059c <HAL_Init>
  SystemClock_Config();
 8005160:	f000 fcd8 	bl	8005b14 <SystemClock_Config>

  /* Initialize all configured peripherals */
  MX_GPIO_Init();
 8005164:	f7ff f944 	bl	80043f0 <MX_GPIO_Init>
  MX_USART2_UART_Init();
 8005168:	f000 ff9e 	bl	80060a8 <MX_USART2_UART_Init>

  /* USER CODE BEGIN 2 */
  DWT_Init(); // DWT cikluszámláló bekapcsolása
 800516c:	f7ff ffd4 	bl	8005118 <DWT_Init>

  printf("\r\n========================================\r\n");
 8005170:	48be      	ldr	r0, [pc, #760]	@ (800546c <main+0x31c>)
 8005172:	f001 f989 	bl	8006488 <puts>
  printf("STM32 Advanced Crypto Benchmark Indul!\r\n");
 8005176:	48be      	ldr	r0, [pc, #760]	@ (8005470 <main+0x320>)
 8005178:	f001 f986 	bl	8006488 <puts>
  printf("Orajel: %lu Hz\r\n", HAL_RCC_GetHCLKFreq());
 800517c:	f7fc fafa 	bl	8001774 <HAL_RCC_GetHCLKFreq>
 8005180:	4603      	mov	r3, r0
 8005182:	4619      	mov	r1, r3
 8005184:	48bb      	ldr	r0, [pc, #748]	@ (8005474 <main+0x324>)
 8005186:	f001 f917 	bl	80063b8 <iprintf>
  printf("========================================\r\n");
 800518a:	48bb      	ldr	r0, [pc, #748]	@ (8005478 <main+0x328>)
 800518c:	f001 f97c 	bl	8006488 <puts>

  // Globális mérési beállítások
  #define ITERATIONS 100 // 100-szor futtatjuk le, majd átlagoljuk a zaj kiszűrése végett!
  const uint16_t test_sizes[] = {16, 64, 256, 1024};
 8005190:	4aba      	ldr	r2, [pc, #744]	@ (800547c <main+0x32c>)
 8005192:	f507 5389 	add.w	r3, r7, #4384	@ 0x1120
 8005196:	f103 030c 	add.w	r3, r3, #12
 800519a:	e892 0003 	ldmia.w	r2, {r0, r1}
 800519e:	e883 0003 	stmia.w	r3, {r0, r1}
  const int num_sizes = 4;
 80051a2:	2304      	movs	r3, #4
 80051a4:	f507 528a 	add.w	r2, r7, #4416	@ 0x1140
 80051a8:	6013      	str	r3, [r2, #0]

  // 1024 bájtos (+16 a tagnak) pufferek a legnagyobb tesztekhez
  uint8_t key[16] = {0x01, 0x23, 0x45, 0x67, 0x89, 0xAB, 0xCD, 0xEF, 0x01, 0x23, 0x45, 0x67, 0x89, 0xAB, 0xCD, 0xEF};
 80051aa:	4bb5      	ldr	r3, [pc, #724]	@ (8005480 <main+0x330>)
 80051ac:	f507 5488 	add.w	r4, r7, #4352	@ 0x1100
 80051b0:	f104 041c 	add.w	r4, r4, #28
 80051b4:	cb0f      	ldmia	r3, {r0, r1, r2, r3}
 80051b6:	e884 000f 	stmia.w	r4, {r0, r1, r2, r3}
  uint8_t plaintext[1040];
  volatile uint8_t ciphertext[1040];
  volatile uint8_t decrypted[1040];

  // Pufferek feltöltése dummy adattal
  for(int i=0; i<1040; i++) plaintext[i] = i % 256;
 80051ba:	2300      	movs	r3, #0
 80051bc:	f507 528c 	add.w	r2, r7, #4480	@ 0x1180
 80051c0:	f102 0204 	add.w	r2, r2, #4
 80051c4:	6013      	str	r3, [r2, #0]
 80051c6:	e023      	b.n	8005210 <main+0xc0>
 80051c8:	f507 538c 	add.w	r3, r7, #4480	@ 0x1180
 80051cc:	f103 0304 	add.w	r3, r3, #4
 80051d0:	681b      	ldr	r3, [r3, #0]
 80051d2:	425a      	negs	r2, r3
 80051d4:	b2db      	uxtb	r3, r3
 80051d6:	b2d2      	uxtb	r2, r2
 80051d8:	bf58      	it	pl
 80051da:	4253      	negpl	r3, r2
 80051dc:	b2d9      	uxtb	r1, r3
 80051de:	f507 538c 	add.w	r3, r7, #4480	@ 0x1180
 80051e2:	f103 0308 	add.w	r3, r3, #8
 80051e6:	f2a3 427c 	subw	r2, r3, #1148	@ 0x47c
 80051ea:	f507 538c 	add.w	r3, r7, #4480	@ 0x1180
 80051ee:	f103 0304 	add.w	r3, r3, #4
 80051f2:	681b      	ldr	r3, [r3, #0]
 80051f4:	4413      	add	r3, r2
 80051f6:	460a      	mov	r2, r1
 80051f8:	701a      	strb	r2, [r3, #0]
 80051fa:	f507 538c 	add.w	r3, r7, #4480	@ 0x1180
 80051fe:	f103 0304 	add.w	r3, r3, #4
 8005202:	681b      	ldr	r3, [r3, #0]
 8005204:	3301      	adds	r3, #1
 8005206:	f507 528c 	add.w	r2, r7, #4480	@ 0x1180
 800520a:	f102 0204 	add.w	r2, r2, #4
 800520e:	6013      	str	r3, [r2, #0]
 8005210:	f507 538c 	add.w	r3, r7, #4480	@ 0x1180
 8005214:	f103 0304 	add.w	r3, r3, #4
 8005218:	681b      	ldr	r3, [r3, #0]
 800521a:	f5b3 6f82 	cmp.w	r3, #1040	@ 0x410
 800521e:	dbd3      	blt.n	80051c8 <main+0x78>
  struct AES_ctx aes_ctx;
  LEA_KEY lea_key;
  uint64_t speck_rk[32]; // SPECK kiterjesztett kulcs

  // ASCON specifikus adatok
  uint8_t nonce[16] = {0};
 8005220:	f507 73c4 	add.w	r3, r7, #392	@ 0x188
 8005224:	f5a3 73b8 	sub.w	r3, r3, #368	@ 0x170
 8005228:	461a      	mov	r2, r3
 800522a:	2300      	movs	r3, #0
 800522c:	6013      	str	r3, [r2, #0]
 800522e:	6053      	str	r3, [r2, #4]
 8005230:	6093      	str	r3, [r2, #8]
 8005232:	60d3      	str	r3, [r2, #12]
  uint8_t ad[1] = {0};
 8005234:	f507 73c4 	add.w	r3, r7, #392	@ 0x188
 8005238:	f5a3 73ba 	sub.w	r3, r3, #372	@ 0x174
 800523c:	2200      	movs	r2, #0
 800523e:	701a      	strb	r2, [r3, #0]
  unsigned long long clen = 0;
 8005240:	f107 0308 	add.w	r3, r7, #8
 8005244:	4619      	mov	r1, r3
 8005246:	f04f 0200 	mov.w	r2, #0
 800524a:	f04f 0300 	mov.w	r3, #0
 800524e:	e9c1 2300 	strd	r2, r3, [r1]
  unsigned long long mlen = 0;
 8005252:	f107 0308 	add.w	r3, r7, #8
 8005256:	4619      	mov	r1, r3
 8005258:	f04f 0200 	mov.w	r2, #0
 800525c:	f04f 0300 	mov.w	r3, #0
 8005260:	e941 2302 	strd	r2, r3, [r1, #-8]
    // =========================================================================
    // 1. KULCSGENERÁLÁS MÉRÉSE (Key Schedule)
    // =========================================================================

    // AES KeyGen
    start = DWT_CYCCNT;
 8005264:	4b87      	ldr	r3, [pc, #540]	@ (8005484 <main+0x334>)
 8005266:	681b      	ldr	r3, [r3, #0]
 8005268:	f507 5289 	add.w	r2, r7, #4384	@ 0x1120
 800526c:	f102 021c 	add.w	r2, r2, #28
 8005270:	6013      	str	r3, [r2, #0]
    for(int i=0; i<ITERATIONS; i++) { AES_init_ctx(&aes_ctx, key); }
 8005272:	2300      	movs	r3, #0
 8005274:	f507 528c 	add.w	r2, r7, #4480	@ 0x1180
 8005278:	6013      	str	r3, [r2, #0]
 800527a:	e010      	b.n	800529e <main+0x14e>
 800527c:	f507 5288 	add.w	r2, r7, #4352	@ 0x1100
 8005280:	f102 021c 	add.w	r2, r2, #28
 8005284:	f207 432c 	addw	r3, r7, #1068	@ 0x42c
 8005288:	4611      	mov	r1, r2
 800528a:	4618      	mov	r0, r3
 800528c:	f7fd fbec 	bl	8002a68 <AES_init_ctx>
 8005290:	f507 538c 	add.w	r3, r7, #4480	@ 0x1180
 8005294:	681b      	ldr	r3, [r3, #0]
 8005296:	3301      	adds	r3, #1
 8005298:	f507 528c 	add.w	r2, r7, #4480	@ 0x1180
 800529c:	6013      	str	r3, [r2, #0]
 800529e:	f507 538c 	add.w	r3, r7, #4480	@ 0x1180
 80052a2:	681b      	ldr	r3, [r3, #0]
 80052a4:	2b63      	cmp	r3, #99	@ 0x63
 80052a6:	dde9      	ble.n	800527c <main+0x12c>
    end = DWT_CYCCNT;
 80052a8:	4b76      	ldr	r3, [pc, #472]	@ (8005484 <main+0x334>)
 80052aa:	681b      	ldr	r3, [r3, #0]
 80052ac:	f507 5289 	add.w	r2, r7, #4384	@ 0x1120
 80052b0:	f102 0218 	add.w	r2, r2, #24
 80052b4:	6013      	str	r3, [r2, #0]
    printf("AES-128,KeyGen,0,%lu\r\n", (end - start)/ITERATIONS);
 80052b6:	f507 5389 	add.w	r3, r7, #4384	@ 0x1120
 80052ba:	f103 0318 	add.w	r3, r3, #24
 80052be:	681a      	ldr	r2, [r3, #0]
 80052c0:	f507 5389 	add.w	r3, r7, #4384	@ 0x1120
 80052c4:	f103 031c 	add.w	r3, r3, #28
 80052c8:	681b      	ldr	r3, [r3, #0]
 80052ca:	1ad3      	subs	r3, r2, r3
 80052cc:	4a6e      	ldr	r2, [pc, #440]	@ (8005488 <main+0x338>)
 80052ce:	fba2 2303 	umull	r2, r3, r2, r3
 80052d2:	095b      	lsrs	r3, r3, #5
 80052d4:	4619      	mov	r1, r3
 80052d6:	486d      	ldr	r0, [pc, #436]	@ (800548c <main+0x33c>)
 80052d8:	f001 f86e 	bl	80063b8 <iprintf>

    // SPECK KeyGen
    start = DWT_CYCCNT;
 80052dc:	4b69      	ldr	r3, [pc, #420]	@ (8005484 <main+0x334>)
 80052de:	681b      	ldr	r3, [r3, #0]
 80052e0:	f507 5289 	add.w	r2, r7, #4384	@ 0x1120
 80052e4:	f102 021c 	add.w	r2, r2, #28
 80052e8:	6013      	str	r3, [r2, #0]
    for(int i=0; i<ITERATIONS; i++) { Speck128128KeySchedule((uint64_t*)key, speck_rk); }
 80052ea:	2300      	movs	r3, #0
 80052ec:	f507 528b 	add.w	r2, r7, #4448	@ 0x1160
 80052f0:	f102 021c 	add.w	r2, r2, #28
 80052f4:	6013      	str	r3, [r2, #0]
 80052f6:	e014      	b.n	8005322 <main+0x1d2>
 80052f8:	f107 0228 	add.w	r2, r7, #40	@ 0x28
 80052fc:	f507 5388 	add.w	r3, r7, #4352	@ 0x1100
 8005300:	f103 031c 	add.w	r3, r3, #28
 8005304:	4611      	mov	r1, r2
 8005306:	4618      	mov	r0, r3
 8005308:	f000 fc5c 	bl	8005bc4 <Speck128128KeySchedule>
 800530c:	f507 538b 	add.w	r3, r7, #4448	@ 0x1160
 8005310:	f103 031c 	add.w	r3, r3, #28
 8005314:	681b      	ldr	r3, [r3, #0]
 8005316:	3301      	adds	r3, #1
 8005318:	f507 528b 	add.w	r2, r7, #4448	@ 0x1160
 800531c:	f102 021c 	add.w	r2, r2, #28
 8005320:	6013      	str	r3, [r2, #0]
 8005322:	f507 538b 	add.w	r3, r7, #4448	@ 0x1160
 8005326:	f103 031c 	add.w	r3, r3, #28
 800532a:	681b      	ldr	r3, [r3, #0]
 800532c:	2b63      	cmp	r3, #99	@ 0x63
 800532e:	dde3      	ble.n	80052f8 <main+0x1a8>
    end = DWT_CYCCNT;
 8005330:	4b54      	ldr	r3, [pc, #336]	@ (8005484 <main+0x334>)
 8005332:	681b      	ldr	r3, [r3, #0]
 8005334:	f507 5289 	add.w	r2, r7, #4384	@ 0x1120
 8005338:	f102 0218 	add.w	r2, r2, #24
 800533c:	6013      	str	r3, [r2, #0]
    printf("SPECK-128,KeyGen,0,%lu\r\n", (end - start)/ITERATIONS);
 800533e:	f507 5389 	add.w	r3, r7, #4384	@ 0x1120
 8005342:	f103 0318 	add.w	r3, r3, #24
 8005346:	681a      	ldr	r2, [r3, #0]
 8005348:	f507 5389 	add.w	r3, r7, #4384	@ 0x1120
 800534c:	f103 031c 	add.w	r3, r3, #28
 8005350:	681b      	ldr	r3, [r3, #0]
 8005352:	1ad3      	subs	r3, r2, r3
 8005354:	4a4c      	ldr	r2, [pc, #304]	@ (8005488 <main+0x338>)
 8005356:	fba2 2303 	umull	r2, r3, r2, r3
 800535a:	095b      	lsrs	r3, r3, #5
 800535c:	4619      	mov	r1, r3
 800535e:	484c      	ldr	r0, [pc, #304]	@ (8005490 <main+0x340>)
 8005360:	f001 f82a 	bl	80063b8 <iprintf>

    // LEA KeyGen
    start = DWT_CYCCNT;
 8005364:	4b47      	ldr	r3, [pc, #284]	@ (8005484 <main+0x334>)
 8005366:	681b      	ldr	r3, [r3, #0]
 8005368:	f507 5289 	add.w	r2, r7, #4384	@ 0x1120
 800536c:	f102 021c 	add.w	r2, r2, #28
 8005370:	6013      	str	r3, [r2, #0]
    for(int i=0; i<ITERATIONS; i++) { lea_set_key(&lea_key, key, 16); }
 8005372:	2300      	movs	r3, #0
 8005374:	f507 528b 	add.w	r2, r7, #4448	@ 0x1160
 8005378:	f102 0218 	add.w	r2, r2, #24
 800537c:	6013      	str	r3, [r2, #0]
 800537e:	e014      	b.n	80053aa <main+0x25a>
 8005380:	f507 5188 	add.w	r1, r7, #4352	@ 0x1100
 8005384:	f101 011c 	add.w	r1, r1, #28
 8005388:	f507 7394 	add.w	r3, r7, #296	@ 0x128
 800538c:	2210      	movs	r2, #16
 800538e:	4618      	mov	r0, r3
 8005390:	f7ff f8e2 	bl	8004558 <lea_set_key>
 8005394:	f507 538b 	add.w	r3, r7, #4448	@ 0x1160
 8005398:	f103 0318 	add.w	r3, r3, #24
 800539c:	681b      	ldr	r3, [r3, #0]
 800539e:	3301      	adds	r3, #1
 80053a0:	f507 528b 	add.w	r2, r7, #4448	@ 0x1160
 80053a4:	f102 0218 	add.w	r2, r2, #24
 80053a8:	6013      	str	r3, [r2, #0]
 80053aa:	f507 538b 	add.w	r3, r7, #4448	@ 0x1160
 80053ae:	f103 0318 	add.w	r3, r3, #24
 80053b2:	681b      	ldr	r3, [r3, #0]
 80053b4:	2b63      	cmp	r3, #99	@ 0x63
 80053b6:	dde3      	ble.n	8005380 <main+0x230>
    end = DWT_CYCCNT;
 80053b8:	4b32      	ldr	r3, [pc, #200]	@ (8005484 <main+0x334>)
 80053ba:	681b      	ldr	r3, [r3, #0]
 80053bc:	f507 5289 	add.w	r2, r7, #4384	@ 0x1120
 80053c0:	f102 0218 	add.w	r2, r2, #24
 80053c4:	6013      	str	r3, [r2, #0]
    printf("LEA-128,KeyGen,0,%lu\r\n", (end - start)/ITERATIONS);
 80053c6:	f507 5389 	add.w	r3, r7, #4384	@ 0x1120
 80053ca:	f103 0318 	add.w	r3, r3, #24
 80053ce:	681a      	ldr	r2, [r3, #0]
 80053d0:	f507 5389 	add.w	r3, r7, #4384	@ 0x1120
 80053d4:	f103 031c 	add.w	r3, r3, #28
 80053d8:	681b      	ldr	r3, [r3, #0]
 80053da:	1ad3      	subs	r3, r2, r3
 80053dc:	4a2a      	ldr	r2, [pc, #168]	@ (8005488 <main+0x338>)
 80053de:	fba2 2303 	umull	r2, r3, r2, r3
 80053e2:	095b      	lsrs	r3, r3, #5
 80053e4:	4619      	mov	r1, r3
 80053e6:	482b      	ldr	r0, [pc, #172]	@ (8005494 <main+0x344>)
 80053e8:	f000 ffe6 	bl	80063b8 <iprintf>

    // ASCON (Nincs külön kulcsgenerálása a hagyományos értelemben)
    printf("ASCON-128,KeyGen,0,0\r\n");
 80053ec:	482a      	ldr	r0, [pc, #168]	@ (8005498 <main+0x348>)
 80053ee:	f001 f84b 	bl	8006488 <puts>
    HAL_Delay(100);
 80053f2:	2064      	movs	r0, #100	@ 0x64
 80053f4:	f7fb f946 	bl	8000684 <HAL_Delay>

    // =========================================================================
    // 2. SEBESSÉGMÉRÉS DINAMIKUS CSOMAGMÉRETEKKEL (16, 64, 256, 1024)
    // =========================================================================
    for(int s=0; s<num_sizes; s++)
 80053f8:	2300      	movs	r3, #0
 80053fa:	f507 528b 	add.w	r2, r7, #4448	@ 0x1160
 80053fe:	f102 0214 	add.w	r2, r2, #20
 8005402:	6013      	str	r3, [r2, #0]
 8005404:	e364      	b.n	8005ad0 <main+0x980>
    {
        uint16_t size = test_sizes[s];
 8005406:	f507 538b 	add.w	r3, r7, #4448	@ 0x1160
 800540a:	f103 0314 	add.w	r3, r3, #20
 800540e:	681b      	ldr	r3, [r3, #0]
 8005410:	005b      	lsls	r3, r3, #1
 8005412:	f503 538c 	add.w	r3, r3, #4480	@ 0x1180
 8005416:	f103 0308 	add.w	r3, r3, #8
 800541a:	443b      	add	r3, r7
 800541c:	f833 3c5c 	ldrh.w	r3, [r3, #-92]
 8005420:	f507 5289 	add.w	r2, r7, #4384	@ 0x1120
 8005424:	f102 0216 	add.w	r2, r2, #22
 8005428:	8013      	strh	r3, [r2, #0]

        // ------------------ AES-128 ------------------
        memcpy((void*)ciphertext, plaintext, size); // AES in-place dolgozik
 800542a:	f507 5389 	add.w	r3, r7, #4384	@ 0x1120
 800542e:	f103 0316 	add.w	r3, r3, #22
 8005432:	881a      	ldrh	r2, [r3, #0]
 8005434:	f607 510c 	addw	r1, r7, #3340	@ 0xd0c
 8005438:	f607 03fc 	addw	r3, r7, #2300	@ 0x8fc
 800543c:	4618      	mov	r0, r3
 800543e:	f001 f97c 	bl	800673a <memcpy>

        start = DWT_CYCCNT;
 8005442:	4b10      	ldr	r3, [pc, #64]	@ (8005484 <main+0x334>)
 8005444:	681b      	ldr	r3, [r3, #0]
 8005446:	f507 5289 	add.w	r2, r7, #4384	@ 0x1120
 800544a:	f102 021c 	add.w	r2, r2, #28
 800544e:	6013      	str	r3, [r2, #0]
        for(int k=0; k<ITERATIONS; k++) {
 8005450:	2300      	movs	r3, #0
 8005452:	f507 528b 	add.w	r2, r7, #4448	@ 0x1160
 8005456:	f102 0210 	add.w	r2, r2, #16
 800545a:	6013      	str	r3, [r2, #0]
 800545c:	e04e      	b.n	80054fc <main+0x3ac>
            for(int i=0; i<size; i+=16) { AES_ECB_encrypt(&aes_ctx, (uint8_t*)(ciphertext+i)); }
 800545e:	2300      	movs	r3, #0
 8005460:	f507 528b 	add.w	r2, r7, #4448	@ 0x1160
 8005464:	f102 020c 	add.w	r2, r2, #12
 8005468:	6013      	str	r3, [r2, #0]
 800546a:	e030      	b.n	80054ce <main+0x37e>
 800546c:	08007178 	.word	0x08007178
 8005470:	080071a4 	.word	0x080071a4
 8005474:	080071cc 	.word	0x080071cc
 8005478:	080071e0 	.word	0x080071e0
 800547c:	08007350 	.word	0x08007350
 8005480:	08007358 	.word	0x08007358
 8005484:	e0001004 	.word	0xe0001004
 8005488:	51eb851f 	.word	0x51eb851f
 800548c:	0800720c 	.word	0x0800720c
 8005490:	08007224 	.word	0x08007224
 8005494:	08007240 	.word	0x08007240
 8005498:	08007258 	.word	0x08007258
 800549c:	f507 538b 	add.w	r3, r7, #4448	@ 0x1160
 80054a0:	f103 030c 	add.w	r3, r3, #12
 80054a4:	681b      	ldr	r3, [r3, #0]
 80054a6:	f607 02fc 	addw	r2, r7, #2300	@ 0x8fc
 80054aa:	441a      	add	r2, r3
 80054ac:	f207 432c 	addw	r3, r7, #1068	@ 0x42c
 80054b0:	4611      	mov	r1, r2
 80054b2:	4618      	mov	r0, r3
 80054b4:	f7fe f881 	bl	80035ba <AES_ECB_encrypt>
 80054b8:	f507 538b 	add.w	r3, r7, #4448	@ 0x1160
 80054bc:	f103 030c 	add.w	r3, r3, #12
 80054c0:	681b      	ldr	r3, [r3, #0]
 80054c2:	3310      	adds	r3, #16
 80054c4:	f507 528b 	add.w	r2, r7, #4448	@ 0x1160
 80054c8:	f102 020c 	add.w	r2, r2, #12
 80054cc:	6013      	str	r3, [r2, #0]
 80054ce:	f507 5389 	add.w	r3, r7, #4384	@ 0x1120
 80054d2:	f103 0316 	add.w	r3, r3, #22
 80054d6:	881b      	ldrh	r3, [r3, #0]
 80054d8:	f507 528b 	add.w	r2, r7, #4448	@ 0x1160
 80054dc:	f102 020c 	add.w	r2, r2, #12
 80054e0:	6812      	ldr	r2, [r2, #0]
 80054e2:	429a      	cmp	r2, r3
 80054e4:	dbda      	blt.n	800549c <main+0x34c>
        for(int k=0; k<ITERATIONS; k++) {
 80054e6:	f507 538b 	add.w	r3, r7, #4448	@ 0x1160
 80054ea:	f103 0310 	add.w	r3, r3, #16
 80054ee:	681b      	ldr	r3, [r3, #0]
 80054f0:	3301      	adds	r3, #1
 80054f2:	f507 528b 	add.w	r2, r7, #4448	@ 0x1160
 80054f6:	f102 0210 	add.w	r2, r2, #16
 80054fa:	6013      	str	r3, [r2, #0]
 80054fc:	f507 538b 	add.w	r3, r7, #4448	@ 0x1160
 8005500:	f103 0310 	add.w	r3, r3, #16
 8005504:	681b      	ldr	r3, [r3, #0]
 8005506:	2b63      	cmp	r3, #99	@ 0x63
 8005508:	dda9      	ble.n	800545e <main+0x30e>
        }
        end = DWT_CYCCNT;
 800550a:	4bba      	ldr	r3, [pc, #744]	@ (80057f4 <main+0x6a4>)
 800550c:	681b      	ldr	r3, [r3, #0]
 800550e:	f507 5289 	add.w	r2, r7, #4384	@ 0x1120
 8005512:	f102 0218 	add.w	r2, r2, #24
 8005516:	6013      	str	r3, [r2, #0]
        printf("AES-128,Encrypt,%u,%lu\r\n", size, (end - start)/ITERATIONS);
 8005518:	f507 5389 	add.w	r3, r7, #4384	@ 0x1120
 800551c:	f103 0316 	add.w	r3, r3, #22
 8005520:	8819      	ldrh	r1, [r3, #0]
 8005522:	f507 5389 	add.w	r3, r7, #4384	@ 0x1120
 8005526:	f103 0318 	add.w	r3, r3, #24
 800552a:	681a      	ldr	r2, [r3, #0]
 800552c:	f507 5389 	add.w	r3, r7, #4384	@ 0x1120
 8005530:	f103 031c 	add.w	r3, r3, #28
 8005534:	681b      	ldr	r3, [r3, #0]
 8005536:	1ad3      	subs	r3, r2, r3
 8005538:	4aaf      	ldr	r2, [pc, #700]	@ (80057f8 <main+0x6a8>)
 800553a:	fba2 2303 	umull	r2, r3, r2, r3
 800553e:	095b      	lsrs	r3, r3, #5
 8005540:	461a      	mov	r2, r3
 8005542:	48ae      	ldr	r0, [pc, #696]	@ (80057fc <main+0x6ac>)
 8005544:	f000 ff38 	bl	80063b8 <iprintf>

        start = DWT_CYCCNT;
 8005548:	4baa      	ldr	r3, [pc, #680]	@ (80057f4 <main+0x6a4>)
 800554a:	681b      	ldr	r3, [r3, #0]
 800554c:	f507 5289 	add.w	r2, r7, #4384	@ 0x1120
 8005550:	f102 021c 	add.w	r2, r2, #28
 8005554:	6013      	str	r3, [r2, #0]
        for(int k=0; k<ITERATIONS; k++) {
 8005556:	2300      	movs	r3, #0
 8005558:	f507 528b 	add.w	r2, r7, #4448	@ 0x1160
 800555c:	f102 0208 	add.w	r2, r2, #8
 8005560:	6013      	str	r3, [r2, #0]
 8005562:	e036      	b.n	80055d2 <main+0x482>
            for(int i=0; i<size; i+=16) { AES_ECB_decrypt(&aes_ctx, (uint8_t*)(ciphertext+i)); }
 8005564:	2300      	movs	r3, #0
 8005566:	f507 528b 	add.w	r2, r7, #4448	@ 0x1160
 800556a:	f102 0204 	add.w	r2, r2, #4
 800556e:	6013      	str	r3, [r2, #0]
 8005570:	e018      	b.n	80055a4 <main+0x454>
 8005572:	f507 538b 	add.w	r3, r7, #4448	@ 0x1160
 8005576:	f103 0304 	add.w	r3, r3, #4
 800557a:	681b      	ldr	r3, [r3, #0]
 800557c:	f607 02fc 	addw	r2, r7, #2300	@ 0x8fc
 8005580:	441a      	add	r2, r3
 8005582:	f207 432c 	addw	r3, r7, #1068	@ 0x42c
 8005586:	4611      	mov	r1, r2
 8005588:	4618      	mov	r0, r3
 800558a:	f7fe f824 	bl	80035d6 <AES_ECB_decrypt>
 800558e:	f507 538b 	add.w	r3, r7, #4448	@ 0x1160
 8005592:	f103 0304 	add.w	r3, r3, #4
 8005596:	681b      	ldr	r3, [r3, #0]
 8005598:	3310      	adds	r3, #16
 800559a:	f507 528b 	add.w	r2, r7, #4448	@ 0x1160
 800559e:	f102 0204 	add.w	r2, r2, #4
 80055a2:	6013      	str	r3, [r2, #0]
 80055a4:	f507 5389 	add.w	r3, r7, #4384	@ 0x1120
 80055a8:	f103 0316 	add.w	r3, r3, #22
 80055ac:	881b      	ldrh	r3, [r3, #0]
 80055ae:	f507 528b 	add.w	r2, r7, #4448	@ 0x1160
 80055b2:	f102 0204 	add.w	r2, r2, #4
 80055b6:	6812      	ldr	r2, [r2, #0]
 80055b8:	429a      	cmp	r2, r3
 80055ba:	dbda      	blt.n	8005572 <main+0x422>
        for(int k=0; k<ITERATIONS; k++) {
 80055bc:	f507 538b 	add.w	r3, r7, #4448	@ 0x1160
 80055c0:	f103 0308 	add.w	r3, r3, #8
 80055c4:	681b      	ldr	r3, [r3, #0]
 80055c6:	3301      	adds	r3, #1
 80055c8:	f507 528b 	add.w	r2, r7, #4448	@ 0x1160
 80055cc:	f102 0208 	add.w	r2, r2, #8
 80055d0:	6013      	str	r3, [r2, #0]
 80055d2:	f507 538b 	add.w	r3, r7, #4448	@ 0x1160
 80055d6:	f103 0308 	add.w	r3, r3, #8
 80055da:	681b      	ldr	r3, [r3, #0]
 80055dc:	2b63      	cmp	r3, #99	@ 0x63
 80055de:	ddc1      	ble.n	8005564 <main+0x414>
        }
        end = DWT_CYCCNT;
 80055e0:	4b84      	ldr	r3, [pc, #528]	@ (80057f4 <main+0x6a4>)
 80055e2:	681b      	ldr	r3, [r3, #0]
 80055e4:	f507 5289 	add.w	r2, r7, #4384	@ 0x1120
 80055e8:	f102 0218 	add.w	r2, r2, #24
 80055ec:	6013      	str	r3, [r2, #0]
        printf("AES-128,Decrypt,%u,%lu\r\n", size, (end - start)/ITERATIONS);
 80055ee:	f507 5389 	add.w	r3, r7, #4384	@ 0x1120
 80055f2:	f103 0316 	add.w	r3, r3, #22
 80055f6:	8819      	ldrh	r1, [r3, #0]
 80055f8:	f507 5389 	add.w	r3, r7, #4384	@ 0x1120
 80055fc:	f103 0318 	add.w	r3, r3, #24
 8005600:	681a      	ldr	r2, [r3, #0]
 8005602:	f507 5389 	add.w	r3, r7, #4384	@ 0x1120
 8005606:	f103 031c 	add.w	r3, r3, #28
 800560a:	681b      	ldr	r3, [r3, #0]
 800560c:	1ad3      	subs	r3, r2, r3
 800560e:	4a7a      	ldr	r2, [pc, #488]	@ (80057f8 <main+0x6a8>)
 8005610:	fba2 2303 	umull	r2, r3, r2, r3
 8005614:	095b      	lsrs	r3, r3, #5
 8005616:	461a      	mov	r2, r3
 8005618:	4879      	ldr	r0, [pc, #484]	@ (8005800 <main+0x6b0>)
 800561a:	f000 fecd 	bl	80063b8 <iprintf>

        // ------------------ SPECK-128 ------------------
        start = DWT_CYCCNT;
 800561e:	4b75      	ldr	r3, [pc, #468]	@ (80057f4 <main+0x6a4>)
 8005620:	681b      	ldr	r3, [r3, #0]
 8005622:	f507 5289 	add.w	r2, r7, #4384	@ 0x1120
 8005626:	f102 021c 	add.w	r2, r2, #28
 800562a:	6013      	str	r3, [r2, #0]
        for(int k=0; k<ITERATIONS; k++) {
 800562c:	2300      	movs	r3, #0
 800562e:	f507 528b 	add.w	r2, r7, #4448	@ 0x1160
 8005632:	6013      	str	r3, [r2, #0]
 8005634:	e039      	b.n	80056aa <main+0x55a>
            for(int i=0; i<size; i+=16) {
 8005636:	2300      	movs	r3, #0
 8005638:	f507 528a 	add.w	r2, r7, #4416	@ 0x1140
 800563c:	f102 021c 	add.w	r2, r2, #28
 8005640:	6013      	str	r3, [r2, #0]
 8005642:	e01f      	b.n	8005684 <main+0x534>
                Speck128128Encrypt((uint64_t*)(plaintext+i), (uint64_t*)(ciphertext+i), speck_rk);
 8005644:	f507 538a 	add.w	r3, r7, #4416	@ 0x1140
 8005648:	f103 031c 	add.w	r3, r3, #28
 800564c:	681b      	ldr	r3, [r3, #0]
 800564e:	f607 520c 	addw	r2, r7, #3340	@ 0xd0c
 8005652:	18d0      	adds	r0, r2, r3
 8005654:	f507 538a 	add.w	r3, r7, #4416	@ 0x1140
 8005658:	f103 031c 	add.w	r3, r3, #28
 800565c:	681b      	ldr	r3, [r3, #0]
 800565e:	f607 02fc 	addw	r2, r7, #2300	@ 0x8fc
 8005662:	4413      	add	r3, r2
 8005664:	f107 0228 	add.w	r2, r7, #40	@ 0x28
 8005668:	4619      	mov	r1, r3
 800566a:	f000 fb27 	bl	8005cbc <Speck128128Encrypt>
            for(int i=0; i<size; i+=16) {
 800566e:	f507 538a 	add.w	r3, r7, #4416	@ 0x1140
 8005672:	f103 031c 	add.w	r3, r3, #28
 8005676:	681b      	ldr	r3, [r3, #0]
 8005678:	3310      	adds	r3, #16
 800567a:	f507 528a 	add.w	r2, r7, #4416	@ 0x1140
 800567e:	f102 021c 	add.w	r2, r2, #28
 8005682:	6013      	str	r3, [r2, #0]
 8005684:	f507 5389 	add.w	r3, r7, #4384	@ 0x1120
 8005688:	f103 0316 	add.w	r3, r3, #22
 800568c:	881b      	ldrh	r3, [r3, #0]
 800568e:	f507 528a 	add.w	r2, r7, #4416	@ 0x1140
 8005692:	f102 021c 	add.w	r2, r2, #28
 8005696:	6812      	ldr	r2, [r2, #0]
 8005698:	429a      	cmp	r2, r3
 800569a:	dbd3      	blt.n	8005644 <main+0x4f4>
        for(int k=0; k<ITERATIONS; k++) {
 800569c:	f507 538b 	add.w	r3, r7, #4448	@ 0x1160
 80056a0:	681b      	ldr	r3, [r3, #0]
 80056a2:	3301      	adds	r3, #1
 80056a4:	f507 528b 	add.w	r2, r7, #4448	@ 0x1160
 80056a8:	6013      	str	r3, [r2, #0]
 80056aa:	f507 538b 	add.w	r3, r7, #4448	@ 0x1160
 80056ae:	681b      	ldr	r3, [r3, #0]
 80056b0:	2b63      	cmp	r3, #99	@ 0x63
 80056b2:	ddc0      	ble.n	8005636 <main+0x4e6>
            }
        }
        end = DWT_CYCCNT;
 80056b4:	4b4f      	ldr	r3, [pc, #316]	@ (80057f4 <main+0x6a4>)
 80056b6:	681b      	ldr	r3, [r3, #0]
 80056b8:	f507 5289 	add.w	r2, r7, #4384	@ 0x1120
 80056bc:	f102 0218 	add.w	r2, r2, #24
 80056c0:	6013      	str	r3, [r2, #0]
        printf("SPECK-128,Encrypt,%u,%lu\r\n", size, (end - start)/ITERATIONS);
 80056c2:	f507 5389 	add.w	r3, r7, #4384	@ 0x1120
 80056c6:	f103 0316 	add.w	r3, r3, #22
 80056ca:	8819      	ldrh	r1, [r3, #0]
 80056cc:	f507 5389 	add.w	r3, r7, #4384	@ 0x1120
 80056d0:	f103 0318 	add.w	r3, r3, #24
 80056d4:	681a      	ldr	r2, [r3, #0]
 80056d6:	f507 5389 	add.w	r3, r7, #4384	@ 0x1120
 80056da:	f103 031c 	add.w	r3, r3, #28
 80056de:	681b      	ldr	r3, [r3, #0]
 80056e0:	1ad3      	subs	r3, r2, r3
 80056e2:	4a45      	ldr	r2, [pc, #276]	@ (80057f8 <main+0x6a8>)
 80056e4:	fba2 2303 	umull	r2, r3, r2, r3
 80056e8:	095b      	lsrs	r3, r3, #5
 80056ea:	461a      	mov	r2, r3
 80056ec:	4845      	ldr	r0, [pc, #276]	@ (8005804 <main+0x6b4>)
 80056ee:	f000 fe63 	bl	80063b8 <iprintf>

        start = DWT_CYCCNT;
 80056f2:	4b40      	ldr	r3, [pc, #256]	@ (80057f4 <main+0x6a4>)
 80056f4:	681b      	ldr	r3, [r3, #0]
 80056f6:	f507 5289 	add.w	r2, r7, #4384	@ 0x1120
 80056fa:	f102 021c 	add.w	r2, r2, #28
 80056fe:	6013      	str	r3, [r2, #0]
        for(int k=0; k<ITERATIONS; k++) {
 8005700:	2300      	movs	r3, #0
 8005702:	f507 528a 	add.w	r2, r7, #4416	@ 0x1140
 8005706:	f102 0218 	add.w	r2, r2, #24
 800570a:	6013      	str	r3, [r2, #0]
 800570c:	e03d      	b.n	800578a <main+0x63a>
            for(int i=0; i<size; i+=16) {
 800570e:	2300      	movs	r3, #0
 8005710:	f507 528a 	add.w	r2, r7, #4416	@ 0x1140
 8005714:	f102 0214 	add.w	r2, r2, #20
 8005718:	6013      	str	r3, [r2, #0]
 800571a:	e01f      	b.n	800575c <main+0x60c>
                Speck128128Decrypt((uint64_t*)(ciphertext+i), (uint64_t*)(decrypted+i), speck_rk);
 800571c:	f507 538a 	add.w	r3, r7, #4416	@ 0x1140
 8005720:	f103 0314 	add.w	r3, r3, #20
 8005724:	681b      	ldr	r3, [r3, #0]
 8005726:	f607 02fc 	addw	r2, r7, #2300	@ 0x8fc
 800572a:	18d0      	adds	r0, r2, r3
 800572c:	f507 538a 	add.w	r3, r7, #4416	@ 0x1140
 8005730:	f103 0314 	add.w	r3, r3, #20
 8005734:	681b      	ldr	r3, [r3, #0]
 8005736:	f207 42ec 	addw	r2, r7, #1260	@ 0x4ec
 800573a:	4413      	add	r3, r2
 800573c:	f107 0228 	add.w	r2, r7, #40	@ 0x28
 8005740:	4619      	mov	r1, r3
 8005742:	f000 fb48 	bl	8005dd6 <Speck128128Decrypt>
            for(int i=0; i<size; i+=16) {
 8005746:	f507 538a 	add.w	r3, r7, #4416	@ 0x1140
 800574a:	f103 0314 	add.w	r3, r3, #20
 800574e:	681b      	ldr	r3, [r3, #0]
 8005750:	3310      	adds	r3, #16
 8005752:	f507 528a 	add.w	r2, r7, #4416	@ 0x1140
 8005756:	f102 0214 	add.w	r2, r2, #20
 800575a:	6013      	str	r3, [r2, #0]
 800575c:	f507 5389 	add.w	r3, r7, #4384	@ 0x1120
 8005760:	f103 0316 	add.w	r3, r3, #22
 8005764:	881b      	ldrh	r3, [r3, #0]
 8005766:	f507 528a 	add.w	r2, r7, #4416	@ 0x1140
 800576a:	f102 0214 	add.w	r2, r2, #20
 800576e:	6812      	ldr	r2, [r2, #0]
 8005770:	429a      	cmp	r2, r3
 8005772:	dbd3      	blt.n	800571c <main+0x5cc>
        for(int k=0; k<ITERATIONS; k++) {
 8005774:	f507 538a 	add.w	r3, r7, #4416	@ 0x1140
 8005778:	f103 0318 	add.w	r3, r3, #24
 800577c:	681b      	ldr	r3, [r3, #0]
 800577e:	3301      	adds	r3, #1
 8005780:	f507 528a 	add.w	r2, r7, #4416	@ 0x1140
 8005784:	f102 0218 	add.w	r2, r2, #24
 8005788:	6013      	str	r3, [r2, #0]
 800578a:	f507 538a 	add.w	r3, r7, #4416	@ 0x1140
 800578e:	f103 0318 	add.w	r3, r3, #24
 8005792:	681b      	ldr	r3, [r3, #0]
 8005794:	2b63      	cmp	r3, #99	@ 0x63
 8005796:	ddba      	ble.n	800570e <main+0x5be>
            }
        }
        end = DWT_CYCCNT;
 8005798:	4b16      	ldr	r3, [pc, #88]	@ (80057f4 <main+0x6a4>)
 800579a:	681b      	ldr	r3, [r3, #0]
 800579c:	f507 5289 	add.w	r2, r7, #4384	@ 0x1120
 80057a0:	f102 0218 	add.w	r2, r2, #24
 80057a4:	6013      	str	r3, [r2, #0]
        printf("SPECK-128,Decrypt,%u,%lu\r\n", size, (end - start)/ITERATIONS);
 80057a6:	f507 5389 	add.w	r3, r7, #4384	@ 0x1120
 80057aa:	f103 0316 	add.w	r3, r3, #22
 80057ae:	8819      	ldrh	r1, [r3, #0]
 80057b0:	f507 5389 	add.w	r3, r7, #4384	@ 0x1120
 80057b4:	f103 0318 	add.w	r3, r3, #24
 80057b8:	681a      	ldr	r2, [r3, #0]
 80057ba:	f507 5389 	add.w	r3, r7, #4384	@ 0x1120
 80057be:	f103 031c 	add.w	r3, r3, #28
 80057c2:	681b      	ldr	r3, [r3, #0]
 80057c4:	1ad3      	subs	r3, r2, r3
 80057c6:	4a0c      	ldr	r2, [pc, #48]	@ (80057f8 <main+0x6a8>)
 80057c8:	fba2 2303 	umull	r2, r3, r2, r3
 80057cc:	095b      	lsrs	r3, r3, #5
 80057ce:	461a      	mov	r2, r3
 80057d0:	480d      	ldr	r0, [pc, #52]	@ (8005808 <main+0x6b8>)
 80057d2:	f000 fdf1 	bl	80063b8 <iprintf>

        // ------------------ LEA-128 ------------------
        start = DWT_CYCCNT;
 80057d6:	4b07      	ldr	r3, [pc, #28]	@ (80057f4 <main+0x6a4>)
 80057d8:	681b      	ldr	r3, [r3, #0]
 80057da:	f507 5289 	add.w	r2, r7, #4384	@ 0x1120
 80057de:	f102 021c 	add.w	r2, r2, #28
 80057e2:	6013      	str	r3, [r2, #0]
        for(int k=0; k<ITERATIONS; k++) {
 80057e4:	2300      	movs	r3, #0
 80057e6:	f507 528a 	add.w	r2, r7, #4416	@ 0x1140
 80057ea:	f102 0210 	add.w	r2, r2, #16
 80057ee:	6013      	str	r3, [r2, #0]
 80057f0:	e024      	b.n	800583c <main+0x6ec>
 80057f2:	bf00      	nop
 80057f4:	e0001004 	.word	0xe0001004
 80057f8:	51eb851f 	.word	0x51eb851f
 80057fc:	08007270 	.word	0x08007270
 8005800:	0800728c 	.word	0x0800728c
 8005804:	080072a8 	.word	0x080072a8
 8005808:	080072c4 	.word	0x080072c4
            lea_ecb_encrypt((uint8_t*)ciphertext, plaintext, size, &lea_key);
 800580c:	f507 5389 	add.w	r3, r7, #4384	@ 0x1120
 8005810:	f103 0316 	add.w	r3, r3, #22
 8005814:	881a      	ldrh	r2, [r3, #0]
 8005816:	f507 7394 	add.w	r3, r7, #296	@ 0x128
 800581a:	f607 510c 	addw	r1, r7, #3340	@ 0xd0c
 800581e:	f607 00fc 	addw	r0, r7, #2300	@ 0x8fc
 8005822:	f7ff fc03 	bl	800502c <lea_ecb_encrypt>
        for(int k=0; k<ITERATIONS; k++) {
 8005826:	f507 538a 	add.w	r3, r7, #4416	@ 0x1140
 800582a:	f103 0310 	add.w	r3, r3, #16
 800582e:	681b      	ldr	r3, [r3, #0]
 8005830:	3301      	adds	r3, #1
 8005832:	f507 528a 	add.w	r2, r7, #4416	@ 0x1140
 8005836:	f102 0210 	add.w	r2, r2, #16
 800583a:	6013      	str	r3, [r2, #0]
 800583c:	f507 538a 	add.w	r3, r7, #4416	@ 0x1140
 8005840:	f103 0310 	add.w	r3, r3, #16
 8005844:	681b      	ldr	r3, [r3, #0]
 8005846:	2b63      	cmp	r3, #99	@ 0x63
 8005848:	dde0      	ble.n	800580c <main+0x6bc>
        }
        end = DWT_CYCCNT;
 800584a:	4bab      	ldr	r3, [pc, #684]	@ (8005af8 <main+0x9a8>)
 800584c:	681b      	ldr	r3, [r3, #0]
 800584e:	f507 5289 	add.w	r2, r7, #4384	@ 0x1120
 8005852:	f102 0218 	add.w	r2, r2, #24
 8005856:	6013      	str	r3, [r2, #0]
        printf("LEA-128,Encrypt,%u,%lu\r\n", size, (end - start)/ITERATIONS);
 8005858:	f507 5389 	add.w	r3, r7, #4384	@ 0x1120
 800585c:	f103 0316 	add.w	r3, r3, #22
 8005860:	8819      	ldrh	r1, [r3, #0]
 8005862:	f507 5389 	add.w	r3, r7, #4384	@ 0x1120
 8005866:	f103 0318 	add.w	r3, r3, #24
 800586a:	681a      	ldr	r2, [r3, #0]
 800586c:	f507 5389 	add.w	r3, r7, #4384	@ 0x1120
 8005870:	f103 031c 	add.w	r3, r3, #28
 8005874:	681b      	ldr	r3, [r3, #0]
 8005876:	1ad3      	subs	r3, r2, r3
 8005878:	4aa0      	ldr	r2, [pc, #640]	@ (8005afc <main+0x9ac>)
 800587a:	fba2 2303 	umull	r2, r3, r2, r3
 800587e:	095b      	lsrs	r3, r3, #5
 8005880:	461a      	mov	r2, r3
 8005882:	489f      	ldr	r0, [pc, #636]	@ (8005b00 <main+0x9b0>)
 8005884:	f000 fd98 	bl	80063b8 <iprintf>

        start = DWT_CYCCNT;
 8005888:	4b9b      	ldr	r3, [pc, #620]	@ (8005af8 <main+0x9a8>)
 800588a:	681b      	ldr	r3, [r3, #0]
 800588c:	f507 5289 	add.w	r2, r7, #4384	@ 0x1120
 8005890:	f102 021c 	add.w	r2, r2, #28
 8005894:	6013      	str	r3, [r2, #0]
        for(int k=0; k<ITERATIONS; k++) {
 8005896:	2300      	movs	r3, #0
 8005898:	f507 528a 	add.w	r2, r7, #4416	@ 0x1140
 800589c:	f102 020c 	add.w	r2, r2, #12
 80058a0:	6013      	str	r3, [r2, #0]
 80058a2:	e017      	b.n	80058d4 <main+0x784>
            lea_ecb_decrypt((uint8_t*)decrypted, (uint8_t*)ciphertext, size, &lea_key);
 80058a4:	f507 5389 	add.w	r3, r7, #4384	@ 0x1120
 80058a8:	f103 0316 	add.w	r3, r3, #22
 80058ac:	881a      	ldrh	r2, [r3, #0]
 80058ae:	f507 7394 	add.w	r3, r7, #296	@ 0x128
 80058b2:	f607 01fc 	addw	r1, r7, #2300	@ 0x8fc
 80058b6:	f207 40ec 	addw	r0, r7, #1260	@ 0x4ec
 80058ba:	f7ff fbe7 	bl	800508c <lea_ecb_decrypt>
        for(int k=0; k<ITERATIONS; k++) {
 80058be:	f507 538a 	add.w	r3, r7, #4416	@ 0x1140
 80058c2:	f103 030c 	add.w	r3, r3, #12
 80058c6:	681b      	ldr	r3, [r3, #0]
 80058c8:	3301      	adds	r3, #1
 80058ca:	f507 528a 	add.w	r2, r7, #4416	@ 0x1140
 80058ce:	f102 020c 	add.w	r2, r2, #12
 80058d2:	6013      	str	r3, [r2, #0]
 80058d4:	f507 538a 	add.w	r3, r7, #4416	@ 0x1140
 80058d8:	f103 030c 	add.w	r3, r3, #12
 80058dc:	681b      	ldr	r3, [r3, #0]
 80058de:	2b63      	cmp	r3, #99	@ 0x63
 80058e0:	dde0      	ble.n	80058a4 <main+0x754>
        }
        end = DWT_CYCCNT;
 80058e2:	4b85      	ldr	r3, [pc, #532]	@ (8005af8 <main+0x9a8>)
 80058e4:	681b      	ldr	r3, [r3, #0]
 80058e6:	f507 5289 	add.w	r2, r7, #4384	@ 0x1120
 80058ea:	f102 0218 	add.w	r2, r2, #24
 80058ee:	6013      	str	r3, [r2, #0]
        printf("LEA-128,Decrypt,%u,%lu\r\n", size, (end - start)/ITERATIONS);
 80058f0:	f507 5389 	add.w	r3, r7, #4384	@ 0x1120
 80058f4:	f103 0316 	add.w	r3, r3, #22
 80058f8:	8819      	ldrh	r1, [r3, #0]
 80058fa:	f507 5389 	add.w	r3, r7, #4384	@ 0x1120
 80058fe:	f103 0318 	add.w	r3, r3, #24
 8005902:	681a      	ldr	r2, [r3, #0]
 8005904:	f507 5389 	add.w	r3, r7, #4384	@ 0x1120
 8005908:	f103 031c 	add.w	r3, r3, #28
 800590c:	681b      	ldr	r3, [r3, #0]
 800590e:	1ad3      	subs	r3, r2, r3
 8005910:	4a7a      	ldr	r2, [pc, #488]	@ (8005afc <main+0x9ac>)
 8005912:	fba2 2303 	umull	r2, r3, r2, r3
 8005916:	095b      	lsrs	r3, r3, #5
 8005918:	461a      	mov	r2, r3
 800591a:	487a      	ldr	r0, [pc, #488]	@ (8005b04 <main+0x9b4>)
 800591c:	f000 fd4c 	bl	80063b8 <iprintf>

        // ------------------ ASCON-128 ------------------
        start = DWT_CYCCNT;
 8005920:	4b75      	ldr	r3, [pc, #468]	@ (8005af8 <main+0x9a8>)
 8005922:	681b      	ldr	r3, [r3, #0]
 8005924:	f507 5289 	add.w	r2, r7, #4384	@ 0x1120
 8005928:	f102 021c 	add.w	r2, r2, #28
 800592c:	6013      	str	r3, [r2, #0]
        for(int k=0; k<ITERATIONS; k++) {
 800592e:	2300      	movs	r3, #0
 8005930:	f507 528a 	add.w	r2, r7, #4416	@ 0x1140
 8005934:	f102 0208 	add.w	r2, r2, #8
 8005938:	6013      	str	r3, [r2, #0]
 800593a:	e032      	b.n	80059a2 <main+0x852>
            ascon128_aead_encrypt((uint8_t*)ciphertext, &clen, plaintext, size, ad, 0, NULL, nonce, key);
 800593c:	f507 5389 	add.w	r3, r7, #4384	@ 0x1120
 8005940:	f103 0316 	add.w	r3, r3, #22
 8005944:	881b      	ldrh	r3, [r3, #0]
 8005946:	2200      	movs	r2, #0
 8005948:	4698      	mov	r8, r3
 800594a:	4691      	mov	r9, r2
 800594c:	f607 540c 	addw	r4, r7, #3340	@ 0xd0c
 8005950:	f107 0108 	add.w	r1, r7, #8
 8005954:	f607 00fc 	addw	r0, r7, #2300	@ 0x8fc
 8005958:	f507 5388 	add.w	r3, r7, #4352	@ 0x1100
 800595c:	f103 031c 	add.w	r3, r3, #28
 8005960:	9308      	str	r3, [sp, #32]
 8005962:	f107 0328 	add.w	r3, r7, #40	@ 0x28
 8005966:	3b10      	subs	r3, #16
 8005968:	9307      	str	r3, [sp, #28]
 800596a:	2300      	movs	r3, #0
 800596c:	9306      	str	r3, [sp, #24]
 800596e:	f04f 0200 	mov.w	r2, #0
 8005972:	f04f 0300 	mov.w	r3, #0
 8005976:	e9cd 2304 	strd	r2, r3, [sp, #16]
 800597a:	f107 0328 	add.w	r3, r7, #40	@ 0x28
 800597e:	3b14      	subs	r3, #20
 8005980:	9302      	str	r3, [sp, #8]
 8005982:	e9cd 8900 	strd	r8, r9, [sp]
 8005986:	4622      	mov	r2, r4
 8005988:	f7fe f976 	bl	8003c78 <ascon128_aead_encrypt>
        for(int k=0; k<ITERATIONS; k++) {
 800598c:	f507 538a 	add.w	r3, r7, #4416	@ 0x1140
 8005990:	f103 0308 	add.w	r3, r3, #8
 8005994:	681b      	ldr	r3, [r3, #0]
 8005996:	3301      	adds	r3, #1
 8005998:	f507 528a 	add.w	r2, r7, #4416	@ 0x1140
 800599c:	f102 0208 	add.w	r2, r2, #8
 80059a0:	6013      	str	r3, [r2, #0]
 80059a2:	f507 538a 	add.w	r3, r7, #4416	@ 0x1140
 80059a6:	f103 0308 	add.w	r3, r3, #8
 80059aa:	681b      	ldr	r3, [r3, #0]
 80059ac:	2b63      	cmp	r3, #99	@ 0x63
 80059ae:	ddc5      	ble.n	800593c <main+0x7ec>
        }
        end = DWT_CYCCNT;
 80059b0:	4b51      	ldr	r3, [pc, #324]	@ (8005af8 <main+0x9a8>)
 80059b2:	681b      	ldr	r3, [r3, #0]
 80059b4:	f507 5289 	add.w	r2, r7, #4384	@ 0x1120
 80059b8:	f102 0218 	add.w	r2, r2, #24
 80059bc:	6013      	str	r3, [r2, #0]
        printf("ASCON-128,Encrypt,%u,%lu\r\n", size, (end - start)/ITERATIONS);
 80059be:	f507 5389 	add.w	r3, r7, #4384	@ 0x1120
 80059c2:	f103 0316 	add.w	r3, r3, #22
 80059c6:	8819      	ldrh	r1, [r3, #0]
 80059c8:	f507 5389 	add.w	r3, r7, #4384	@ 0x1120
 80059cc:	f103 0318 	add.w	r3, r3, #24
 80059d0:	681a      	ldr	r2, [r3, #0]
 80059d2:	f507 5389 	add.w	r3, r7, #4384	@ 0x1120
 80059d6:	f103 031c 	add.w	r3, r3, #28
 80059da:	681b      	ldr	r3, [r3, #0]
 80059dc:	1ad3      	subs	r3, r2, r3
 80059de:	4a47      	ldr	r2, [pc, #284]	@ (8005afc <main+0x9ac>)
 80059e0:	fba2 2303 	umull	r2, r3, r2, r3
 80059e4:	095b      	lsrs	r3, r3, #5
 80059e6:	461a      	mov	r2, r3
 80059e8:	4847      	ldr	r0, [pc, #284]	@ (8005b08 <main+0x9b8>)
 80059ea:	f000 fce5 	bl	80063b8 <iprintf>

        start = DWT_CYCCNT;
 80059ee:	4b42      	ldr	r3, [pc, #264]	@ (8005af8 <main+0x9a8>)
 80059f0:	681b      	ldr	r3, [r3, #0]
 80059f2:	f507 5289 	add.w	r2, r7, #4384	@ 0x1120
 80059f6:	f102 021c 	add.w	r2, r2, #28
 80059fa:	6013      	str	r3, [r2, #0]
        for(int k=0; k<ITERATIONS; k++) {
 80059fc:	2300      	movs	r3, #0
 80059fe:	f507 528a 	add.w	r2, r7, #4416	@ 0x1140
 8005a02:	f102 0204 	add.w	r2, r2, #4
 8005a06:	6013      	str	r3, [r2, #0]
 8005a08:	e02e      	b.n	8005a68 <main+0x918>
            ascon128_aead_decrypt((uint8_t*)decrypted, &mlen, NULL, (uint8_t*)ciphertext, clen, ad, 0, nonce, key);
 8005a0a:	f107 0308 	add.w	r3, r7, #8
 8005a0e:	e9d3 4500 	ldrd	r4, r5, [r3]
 8005a12:	f607 06fc 	addw	r6, r7, #2300	@ 0x8fc
 8005a16:	f107 0108 	add.w	r1, r7, #8
 8005a1a:	3908      	subs	r1, #8
 8005a1c:	f207 40ec 	addw	r0, r7, #1260	@ 0x4ec
 8005a20:	f507 5388 	add.w	r3, r7, #4352	@ 0x1100
 8005a24:	f103 031c 	add.w	r3, r3, #28
 8005a28:	9307      	str	r3, [sp, #28]
 8005a2a:	f107 0328 	add.w	r3, r7, #40	@ 0x28
 8005a2e:	3b10      	subs	r3, #16
 8005a30:	9306      	str	r3, [sp, #24]
 8005a32:	f04f 0200 	mov.w	r2, #0
 8005a36:	f04f 0300 	mov.w	r3, #0
 8005a3a:	e9cd 2304 	strd	r2, r3, [sp, #16]
 8005a3e:	f107 0328 	add.w	r3, r7, #40	@ 0x28
 8005a42:	3b14      	subs	r3, #20
 8005a44:	9302      	str	r3, [sp, #8]
 8005a46:	e9cd 4500 	strd	r4, r5, [sp]
 8005a4a:	4633      	mov	r3, r6
 8005a4c:	2200      	movs	r2, #0
 8005a4e:	f7fe fac7 	bl	8003fe0 <ascon128_aead_decrypt>
        for(int k=0; k<ITERATIONS; k++) {
 8005a52:	f507 538a 	add.w	r3, r7, #4416	@ 0x1140
 8005a56:	f103 0304 	add.w	r3, r3, #4
 8005a5a:	681b      	ldr	r3, [r3, #0]
 8005a5c:	3301      	adds	r3, #1
 8005a5e:	f507 528a 	add.w	r2, r7, #4416	@ 0x1140
 8005a62:	f102 0204 	add.w	r2, r2, #4
 8005a66:	6013      	str	r3, [r2, #0]
 8005a68:	f507 538a 	add.w	r3, r7, #4416	@ 0x1140
 8005a6c:	f103 0304 	add.w	r3, r3, #4
 8005a70:	681b      	ldr	r3, [r3, #0]
 8005a72:	2b63      	cmp	r3, #99	@ 0x63
 8005a74:	ddc9      	ble.n	8005a0a <main+0x8ba>
        }
        end = DWT_CYCCNT;
 8005a76:	4b20      	ldr	r3, [pc, #128]	@ (8005af8 <main+0x9a8>)
 8005a78:	681b      	ldr	r3, [r3, #0]
 8005a7a:	f507 5289 	add.w	r2, r7, #4384	@ 0x1120
 8005a7e:	f102 0218 	add.w	r2, r2, #24
 8005a82:	6013      	str	r3, [r2, #0]
        printf("ASCON-128,Decrypt,%u,%lu\r\n", size, (end - start)/ITERATIONS);
 8005a84:	f507 5389 	add.w	r3, r7, #4384	@ 0x1120
 8005a88:	f103 0316 	add.w	r3, r3, #22
 8005a8c:	8819      	ldrh	r1, [r3, #0]
 8005a8e:	f507 5389 	add.w	r3, r7, #4384	@ 0x1120
 8005a92:	f103 0318 	add.w	r3, r3, #24
 8005a96:	681a      	ldr	r2, [r3, #0]
 8005a98:	f507 5389 	add.w	r3, r7, #4384	@ 0x1120
 8005a9c:	f103 031c 	add.w	r3, r3, #28
 8005aa0:	681b      	ldr	r3, [r3, #0]
 8005aa2:	1ad3      	subs	r3, r2, r3
 8005aa4:	4a15      	ldr	r2, [pc, #84]	@ (8005afc <main+0x9ac>)
 8005aa6:	fba2 2303 	umull	r2, r3, r2, r3
 8005aaa:	095b      	lsrs	r3, r3, #5
 8005aac:	461a      	mov	r2, r3
 8005aae:	4817      	ldr	r0, [pc, #92]	@ (8005b0c <main+0x9bc>)
 8005ab0:	f000 fc82 	bl	80063b8 <iprintf>

        HAL_Delay(100); // Kicsi szünet a méretek között az UART kímélésére
 8005ab4:	2064      	movs	r0, #100	@ 0x64
 8005ab6:	f7fa fde5 	bl	8000684 <HAL_Delay>
    for(int s=0; s<num_sizes; s++)
 8005aba:	f507 538b 	add.w	r3, r7, #4448	@ 0x1160
 8005abe:	f103 0314 	add.w	r3, r3, #20
 8005ac2:	681b      	ldr	r3, [r3, #0]
 8005ac4:	3301      	adds	r3, #1
 8005ac6:	f507 528b 	add.w	r2, r7, #4448	@ 0x1160
 8005aca:	f102 0214 	add.w	r2, r2, #20
 8005ace:	6013      	str	r3, [r2, #0]
 8005ad0:	f507 538b 	add.w	r3, r7, #4448	@ 0x1160
 8005ad4:	f103 0314 	add.w	r3, r3, #20
 8005ad8:	681a      	ldr	r2, [r3, #0]
 8005ada:	f507 538a 	add.w	r3, r7, #4416	@ 0x1140
 8005ade:	681b      	ldr	r3, [r3, #0]
 8005ae0:	429a      	cmp	r2, r3
 8005ae2:	f6ff ac90 	blt.w	8005406 <main+0x2b6>
    }

    printf("========================================\r\n");
 8005ae6:	480a      	ldr	r0, [pc, #40]	@ (8005b10 <main+0x9c0>)
 8005ae8:	f000 fcce 	bl	8006488 <puts>
    HAL_Delay(10000); // 10 másodperc szünet egy teljes tesztkör után
 8005aec:	f242 7010 	movw	r0, #10000	@ 0x2710
 8005af0:	f7fa fdc8 	bl	8000684 <HAL_Delay>
    start = DWT_CYCCNT;
 8005af4:	f7ff bbb6 	b.w	8005264 <main+0x114>
 8005af8:	e0001004 	.word	0xe0001004
 8005afc:	51eb851f 	.word	0x51eb851f
 8005b00:	080072e0 	.word	0x080072e0
 8005b04:	080072fc 	.word	0x080072fc
 8005b08:	08007318 	.word	0x08007318
 8005b0c:	08007334 	.word	0x08007334
 8005b10:	080071e0 	.word	0x080071e0

08005b14 <SystemClock_Config>:
  }
  /* USER CODE END 3 */
}

void SystemClock_Config(void)
{
 8005b14:	b580      	push	{r7, lr}
 8005b16:	b096      	sub	sp, #88	@ 0x58
 8005b18:	af00      	add	r7, sp, #0
  RCC_OscInitTypeDef RCC_OscInitStruct = {0};
 8005b1a:	f107 0314 	add.w	r3, r7, #20
 8005b1e:	2244      	movs	r2, #68	@ 0x44
 8005b20:	2100      	movs	r1, #0
 8005b22:	4618      	mov	r0, r3
 8005b24:	f000 fd8e 	bl	8006644 <memset>
  RCC_ClkInitTypeDef RCC_ClkInitStruct = {0};
 8005b28:	463b      	mov	r3, r7
 8005b2a:	2200      	movs	r2, #0
 8005b2c:	601a      	str	r2, [r3, #0]
 8005b2e:	605a      	str	r2, [r3, #4]
 8005b30:	609a      	str	r2, [r3, #8]
 8005b32:	60da      	str	r2, [r3, #12]
 8005b34:	611a      	str	r2, [r3, #16]

  if (HAL_PWREx_ControlVoltageScaling(PWR_REGULATOR_VOLTAGE_SCALE1) != HAL_OK)
 8005b36:	f44f 7000 	mov.w	r0, #512	@ 0x200
 8005b3a:	f7fb f825 	bl	8000b88 <HAL_PWREx_ControlVoltageScaling>
 8005b3e:	4603      	mov	r3, r0
 8005b40:	2b00      	cmp	r3, #0
 8005b42:	d001      	beq.n	8005b48 <SystemClock_Config+0x34>
  {
    Error_Handler();
 8005b44:	f000 f838 	bl	8005bb8 <Error_Handler>
  }

  RCC_OscInitStruct.OscillatorType = RCC_OSCILLATORTYPE_MSI;
 8005b48:	2310      	movs	r3, #16
 8005b4a:	617b      	str	r3, [r7, #20]
  RCC_OscInitStruct.MSIState = RCC_MSI_ON;
 8005b4c:	2301      	movs	r3, #1
 8005b4e:	62fb      	str	r3, [r7, #44]	@ 0x2c
  RCC_OscInitStruct.MSICalibrationValue = 0;
 8005b50:	2300      	movs	r3, #0
 8005b52:	633b      	str	r3, [r7, #48]	@ 0x30
  RCC_OscInitStruct.MSIClockRange = RCC_MSIRANGE_6;
 8005b54:	2360      	movs	r3, #96	@ 0x60
 8005b56:	637b      	str	r3, [r7, #52]	@ 0x34
  RCC_OscInitStruct.PLL.PLLState = RCC_PLL_ON;
 8005b58:	2302      	movs	r3, #2
 8005b5a:	63fb      	str	r3, [r7, #60]	@ 0x3c
  RCC_OscInitStruct.PLL.PLLSource = RCC_PLLSOURCE_MSI;
 8005b5c:	2301      	movs	r3, #1
 8005b5e:	643b      	str	r3, [r7, #64]	@ 0x40
  RCC_OscInitStruct.PLL.PLLM = 1;
 8005b60:	2301      	movs	r3, #1
 8005b62:	647b      	str	r3, [r7, #68]	@ 0x44
  RCC_OscInitStruct.PLL.PLLN = 40;
 8005b64:	2328      	movs	r3, #40	@ 0x28
 8005b66:	64bb      	str	r3, [r7, #72]	@ 0x48
  RCC_OscInitStruct.PLL.PLLP = RCC_PLLP_DIV7;
 8005b68:	2307      	movs	r3, #7
 8005b6a:	64fb      	str	r3, [r7, #76]	@ 0x4c
  RCC_OscInitStruct.PLL.PLLQ = RCC_PLLQ_DIV2;
 8005b6c:	2302      	movs	r3, #2
 8005b6e:	653b      	str	r3, [r7, #80]	@ 0x50
  RCC_OscInitStruct.PLL.PLLR = RCC_PLLR_DIV2;
 8005b70:	2302      	movs	r3, #2
 8005b72:	657b      	str	r3, [r7, #84]	@ 0x54
  if (HAL_RCC_OscConfig(&RCC_OscInitStruct) != HAL_OK)
 8005b74:	f107 0314 	add.w	r3, r7, #20
 8005b78:	4618      	mov	r0, r3
 8005b7a:	f7fb f85b 	bl	8000c34 <HAL_RCC_OscConfig>
 8005b7e:	4603      	mov	r3, r0
 8005b80:	2b00      	cmp	r3, #0
 8005b82:	d001      	beq.n	8005b88 <SystemClock_Config+0x74>
  {
    Error_Handler();
 8005b84:	f000 f818 	bl	8005bb8 <Error_Handler>
  }

  RCC_ClkInitStruct.ClockType = RCC_CLOCKTYPE_HCLK|RCC_CLOCKTYPE_SYSCLK
 8005b88:	230f      	movs	r3, #15
 8005b8a:	603b      	str	r3, [r7, #0]
                              |RCC_CLOCKTYPE_PCLK1|RCC_CLOCKTYPE_PCLK2;
  RCC_ClkInitStruct.SYSCLKSource = RCC_SYSCLKSOURCE_PLLCLK;
 8005b8c:	2303      	movs	r3, #3
 8005b8e:	607b      	str	r3, [r7, #4]
  RCC_ClkInitStruct.AHBCLKDivider = RCC_SYSCLK_DIV1;
 8005b90:	2300      	movs	r3, #0
 8005b92:	60bb      	str	r3, [r7, #8]
  RCC_ClkInitStruct.APB1CLKDivider = RCC_HCLK_DIV1;
 8005b94:	2300      	movs	r3, #0
 8005b96:	60fb      	str	r3, [r7, #12]
  RCC_ClkInitStruct.APB2CLKDivider = RCC_HCLK_DIV1;
 8005b98:	2300      	movs	r3, #0
 8005b9a:	613b      	str	r3, [r7, #16]

  if (HAL_RCC_ClockConfig(&RCC_ClkInitStruct, FLASH_LATENCY_4) != HAL_OK)
 8005b9c:	463b      	mov	r3, r7
 8005b9e:	2104      	movs	r1, #4
 8005ba0:	4618      	mov	r0, r3
 8005ba2:	f7fb fc5b 	bl	800145c <HAL_RCC_ClockConfig>
 8005ba6:	4603      	mov	r3, r0
 8005ba8:	2b00      	cmp	r3, #0
 8005baa:	d001      	beq.n	8005bb0 <SystemClock_Config+0x9c>
  {
    Error_Handler();
 8005bac:	f000 f804 	bl	8005bb8 <Error_Handler>
  }
}
 8005bb0:	bf00      	nop
 8005bb2:	3758      	adds	r7, #88	@ 0x58
 8005bb4:	46bd      	mov	sp, r7
 8005bb6:	bd80      	pop	{r7, pc}

08005bb8 <Error_Handler>:

void Error_Handler(void)
{
 8005bb8:	b480      	push	{r7}
 8005bba:	af00      	add	r7, sp, #0
  __ASM volatile ("cpsid i" : : : "memory");
 8005bbc:	b672      	cpsid	i
}
 8005bbe:	bf00      	nop
  __disable_irq();
  while (1)
 8005bc0:	bf00      	nop
 8005bc2:	e7fd      	b.n	8005bc0 <Error_Handler+0x8>

08005bc4 <Speck128128KeySchedule>:
 * 32 round key, rk[i] generalaasa:
 *   rk[0] = K[0]
 *   for i = 0..30: ER64(K[1], K[0], i) -> rk[i+1]
 */
void Speck128128KeySchedule(const u64 K[2], u64 rk[SPECK128_ROUNDS])
{
 8005bc4:	e92d 0ff0 	stmdb	sp!, {r4, r5, r6, r7, r8, r9, sl, fp}
 8005bc8:	b08e      	sub	sp, #56	@ 0x38
 8005bca:	af00      	add	r7, sp, #0
 8005bcc:	61f8      	str	r0, [r7, #28]
 8005bce:	61b9      	str	r1, [r7, #24]
    u64 i, B = K[1], A = K[0];
 8005bd0:	69fb      	ldr	r3, [r7, #28]
 8005bd2:	3308      	adds	r3, #8
 8005bd4:	e9d3 2300 	ldrd	r2, r3, [r3]
 8005bd8:	e9c7 230a 	strd	r2, r3, [r7, #40]	@ 0x28
 8005bdc:	69fb      	ldr	r3, [r7, #28]
 8005bde:	e9d3 2300 	ldrd	r2, r3, [r3]
 8005be2:	e9c7 2308 	strd	r2, r3, [r7, #32]
    for (i = 0; i < 31; ) {
 8005be6:	f04f 0200 	mov.w	r2, #0
 8005bea:	f04f 0300 	mov.w	r3, #0
 8005bee:	e9c7 230c 	strd	r2, r3, [r7, #48]	@ 0x30
 8005bf2:	e04f      	b.n	8005c94 <Speck128128KeySchedule+0xd0>
        rk[i] = A;
 8005bf4:	6b3b      	ldr	r3, [r7, #48]	@ 0x30
 8005bf6:	00db      	lsls	r3, r3, #3
 8005bf8:	69ba      	ldr	r2, [r7, #24]
 8005bfa:	18d1      	adds	r1, r2, r3
 8005bfc:	e9d7 2308 	ldrd	r2, r3, [r7, #32]
 8005c00:	e9c1 2300 	strd	r2, r3, [r1]
        ER64(B, A, i++);
 8005c04:	6afb      	ldr	r3, [r7, #44]	@ 0x2c
 8005c06:	061a      	lsls	r2, r3, #24
 8005c08:	6abb      	ldr	r3, [r7, #40]	@ 0x28
 8005c0a:	0a1b      	lsrs	r3, r3, #8
 8005c0c:	ea42 0403 	orr.w	r4, r2, r3
 8005c10:	6abb      	ldr	r3, [r7, #40]	@ 0x28
 8005c12:	061a      	lsls	r2, r3, #24
 8005c14:	6afb      	ldr	r3, [r7, #44]	@ 0x2c
 8005c16:	0a1b      	lsrs	r3, r3, #8
 8005c18:	ea42 0503 	orr.w	r5, r2, r3
 8005c1c:	e9c7 450a 	strd	r4, r5, [r7, #40]	@ 0x28
 8005c20:	e9d7 010a 	ldrd	r0, r1, [r7, #40]	@ 0x28
 8005c24:	e9d7 2308 	ldrd	r2, r3, [r7, #32]
 8005c28:	eb10 0802 	adds.w	r8, r0, r2
 8005c2c:	eb41 0903 	adc.w	r9, r1, r3
 8005c30:	e9c7 890a 	strd	r8, r9, [r7, #40]	@ 0x28
 8005c34:	e9d7 010c 	ldrd	r0, r1, [r7, #48]	@ 0x30
 8005c38:	f110 0a01 	adds.w	sl, r0, #1
 8005c3c:	f141 0b00 	adc.w	fp, r1, #0
 8005c40:	e9c7 ab0c 	strd	sl, fp, [r7, #48]	@ 0x30
 8005c44:	e9d7 230a 	ldrd	r2, r3, [r7, #40]	@ 0x28
 8005c48:	ea82 0600 	eor.w	r6, r2, r0
 8005c4c:	613e      	str	r6, [r7, #16]
 8005c4e:	404b      	eors	r3, r1
 8005c50:	617b      	str	r3, [r7, #20]
 8005c52:	e9d7 2304 	ldrd	r2, r3, [r7, #16]
 8005c56:	e9c7 230a 	strd	r2, r3, [r7, #40]	@ 0x28
 8005c5a:	6a7b      	ldr	r3, [r7, #36]	@ 0x24
 8005c5c:	0f5a      	lsrs	r2, r3, #29
 8005c5e:	6a3b      	ldr	r3, [r7, #32]
 8005c60:	00db      	lsls	r3, r3, #3
 8005c62:	4313      	orrs	r3, r2
 8005c64:	60bb      	str	r3, [r7, #8]
 8005c66:	6a3b      	ldr	r3, [r7, #32]
 8005c68:	0f5a      	lsrs	r2, r3, #29
 8005c6a:	6a7b      	ldr	r3, [r7, #36]	@ 0x24
 8005c6c:	00db      	lsls	r3, r3, #3
 8005c6e:	4313      	orrs	r3, r2
 8005c70:	60fb      	str	r3, [r7, #12]
 8005c72:	e9d7 2302 	ldrd	r2, r3, [r7, #8]
 8005c76:	e9c7 2308 	strd	r2, r3, [r7, #32]
 8005c7a:	e9d7 0108 	ldrd	r0, r1, [r7, #32]
 8005c7e:	e9d7 230a 	ldrd	r2, r3, [r7, #40]	@ 0x28
 8005c82:	ea80 0602 	eor.w	r6, r0, r2
 8005c86:	603e      	str	r6, [r7, #0]
 8005c88:	404b      	eors	r3, r1
 8005c8a:	607b      	str	r3, [r7, #4]
 8005c8c:	e9d7 2300 	ldrd	r2, r3, [r7]
 8005c90:	e9c7 2308 	strd	r2, r3, [r7, #32]
    for (i = 0; i < 31; ) {
 8005c94:	e9d7 230c 	ldrd	r2, r3, [r7, #48]	@ 0x30
 8005c98:	2a1f      	cmp	r2, #31
 8005c9a:	f173 0300 	sbcs.w	r3, r3, #0
 8005c9e:	d3a9      	bcc.n	8005bf4 <Speck128128KeySchedule+0x30>
    }
    rk[i] = A;
 8005ca0:	6b3b      	ldr	r3, [r7, #48]	@ 0x30
 8005ca2:	00db      	lsls	r3, r3, #3
 8005ca4:	69ba      	ldr	r2, [r7, #24]
 8005ca6:	18d1      	adds	r1, r2, r3
 8005ca8:	e9d7 2308 	ldrd	r2, r3, [r7, #32]
 8005cac:	e9c1 2300 	strd	r2, r3, [r1]
}
 8005cb0:	bf00      	nop
 8005cb2:	3738      	adds	r7, #56	@ 0x38
 8005cb4:	46bd      	mov	sp, r7
 8005cb6:	e8bd 0ff0 	ldmia.w	sp!, {r4, r5, r6, r7, r8, r9, sl, fp}
 8005cba:	4770      	bx	lr

08005cbc <Speck128128Encrypt>:

/* --- Titkositas (Section 6) --- */
void Speck128128Encrypt(const u64 Pt[2], u64 Ct[2], const u64 rk[SPECK128_ROUNDS])
{
 8005cbc:	e92d 0fb0 	stmdb	sp!, {r4, r5, r7, r8, r9, sl, fp}
 8005cc0:	b08f      	sub	sp, #60	@ 0x3c
 8005cc2:	af00      	add	r7, sp, #0
 8005cc4:	62f8      	str	r0, [r7, #44]	@ 0x2c
 8005cc6:	62b9      	str	r1, [r7, #40]	@ 0x28
 8005cc8:	627a      	str	r2, [r7, #36]	@ 0x24
    u64 i;
    Ct[0] = Pt[0]; Ct[1] = Pt[1];
 8005cca:	6afb      	ldr	r3, [r7, #44]	@ 0x2c
 8005ccc:	e9d3 0100 	ldrd	r0, r1, [r3]
 8005cd0:	6abb      	ldr	r3, [r7, #40]	@ 0x28
 8005cd2:	e9c3 0100 	strd	r0, r1, [r3]
 8005cd6:	6afb      	ldr	r3, [r7, #44]	@ 0x2c
 8005cd8:	f103 0208 	add.w	r2, r3, #8
 8005cdc:	6abb      	ldr	r3, [r7, #40]	@ 0x28
 8005cde:	f103 0108 	add.w	r1, r3, #8
 8005ce2:	e9d2 2300 	ldrd	r2, r3, [r2]
 8005ce6:	e9c1 2300 	strd	r2, r3, [r1]
    for (i = 0; i < 32; ) ER64(Ct[1], Ct[0], rk[i++]);
 8005cea:	f04f 0200 	mov.w	r2, #0
 8005cee:	f04f 0300 	mov.w	r3, #0
 8005cf2:	e9c7 230c 	strd	r2, r3, [r7, #48]	@ 0x30
 8005cf6:	e061      	b.n	8005dbc <Speck128128Encrypt+0x100>
 8005cf8:	6abb      	ldr	r3, [r7, #40]	@ 0x28
 8005cfa:	3308      	adds	r3, #8
 8005cfc:	e9d3 2300 	ldrd	r2, r3, [r3]
 8005d00:	6ab9      	ldr	r1, [r7, #40]	@ 0x28
 8005d02:	f101 0408 	add.w	r4, r1, #8
 8005d06:	0618      	lsls	r0, r3, #24
 8005d08:	0a11      	lsrs	r1, r2, #8
 8005d0a:	4301      	orrs	r1, r0
 8005d0c:	61b9      	str	r1, [r7, #24]
 8005d0e:	0611      	lsls	r1, r2, #24
 8005d10:	0a1b      	lsrs	r3, r3, #8
 8005d12:	430b      	orrs	r3, r1
 8005d14:	61fb      	str	r3, [r7, #28]
 8005d16:	e9d7 2306 	ldrd	r2, r3, [r7, #24]
 8005d1a:	e9c4 2300 	strd	r2, r3, [r4]
 8005d1e:	6abb      	ldr	r3, [r7, #40]	@ 0x28
 8005d20:	3308      	adds	r3, #8
 8005d22:	e9d3 4500 	ldrd	r4, r5, [r3]
 8005d26:	6abb      	ldr	r3, [r7, #40]	@ 0x28
 8005d28:	e9d3 2300 	ldrd	r2, r3, [r3]
 8005d2c:	6ab9      	ldr	r1, [r7, #40]	@ 0x28
 8005d2e:	3108      	adds	r1, #8
 8005d30:	18a0      	adds	r0, r4, r2
 8005d32:	6138      	str	r0, [r7, #16]
 8005d34:	eb45 0303 	adc.w	r3, r5, r3
 8005d38:	617b      	str	r3, [r7, #20]
 8005d3a:	e9d7 3404 	ldrd	r3, r4, [r7, #16]
 8005d3e:	e9c1 3400 	strd	r3, r4, [r1]
 8005d42:	e9d7 230c 	ldrd	r2, r3, [r7, #48]	@ 0x30
 8005d46:	1c51      	adds	r1, r2, #1
 8005d48:	6039      	str	r1, [r7, #0]
 8005d4a:	f143 0100 	adc.w	r1, r3, #0
 8005d4e:	6079      	str	r1, [r7, #4]
 8005d50:	e9d7 0100 	ldrd	r0, r1, [r7]
 8005d54:	e9c7 010c 	strd	r0, r1, [r7, #48]	@ 0x30
 8005d58:	4613      	mov	r3, r2
 8005d5a:	00db      	lsls	r3, r3, #3
 8005d5c:	6a7a      	ldr	r2, [r7, #36]	@ 0x24
 8005d5e:	4413      	add	r3, r2
 8005d60:	e9d3 4500 	ldrd	r4, r5, [r3]
 8005d64:	6abb      	ldr	r3, [r7, #40]	@ 0x28
 8005d66:	3308      	adds	r3, #8
 8005d68:	e9d3 0100 	ldrd	r0, r1, [r3]
 8005d6c:	6abb      	ldr	r3, [r7, #40]	@ 0x28
 8005d6e:	3308      	adds	r3, #8
 8005d70:	ea84 0200 	eor.w	r2, r4, r0
 8005d74:	60ba      	str	r2, [r7, #8]
 8005d76:	ea85 0201 	eor.w	r2, r5, r1
 8005d7a:	60fa      	str	r2, [r7, #12]
 8005d7c:	e9d7 1202 	ldrd	r1, r2, [r7, #8]
 8005d80:	e9c3 1200 	strd	r1, r2, [r3]
 8005d84:	6abb      	ldr	r3, [r7, #40]	@ 0x28
 8005d86:	e9d3 2300 	ldrd	r2, r3, [r3]
 8005d8a:	0f58      	lsrs	r0, r3, #29
 8005d8c:	00d1      	lsls	r1, r2, #3
 8005d8e:	ea40 0801 	orr.w	r8, r0, r1
 8005d92:	0f51      	lsrs	r1, r2, #29
 8005d94:	00db      	lsls	r3, r3, #3
 8005d96:	ea41 0903 	orr.w	r9, r1, r3
 8005d9a:	6abb      	ldr	r3, [r7, #40]	@ 0x28
 8005d9c:	e9c3 8900 	strd	r8, r9, [r3]
 8005da0:	6abb      	ldr	r3, [r7, #40]	@ 0x28
 8005da2:	e9d3 0100 	ldrd	r0, r1, [r3]
 8005da6:	6abb      	ldr	r3, [r7, #40]	@ 0x28
 8005da8:	3308      	adds	r3, #8
 8005daa:	e9d3 2300 	ldrd	r2, r3, [r3]
 8005dae:	ea80 0a02 	eor.w	sl, r0, r2
 8005db2:	ea81 0b03 	eor.w	fp, r1, r3
 8005db6:	6abb      	ldr	r3, [r7, #40]	@ 0x28
 8005db8:	e9c3 ab00 	strd	sl, fp, [r3]
 8005dbc:	e9d7 230c 	ldrd	r2, r3, [r7, #48]	@ 0x30
 8005dc0:	2a20      	cmp	r2, #32
 8005dc2:	f173 0300 	sbcs.w	r3, r3, #0
 8005dc6:	d397      	bcc.n	8005cf8 <Speck128128Encrypt+0x3c>
}
 8005dc8:	bf00      	nop
 8005dca:	bf00      	nop
 8005dcc:	373c      	adds	r7, #60	@ 0x3c
 8005dce:	46bd      	mov	sp, r7
 8005dd0:	e8bd 0fb0 	ldmia.w	sp!, {r4, r5, r7, r8, r9, sl, fp}
 8005dd4:	4770      	bx	lr

08005dd6 <Speck128128Decrypt>:

/* --- Visszafejtes (Section 6) --- */
void Speck128128Decrypt(const u64 Ct[2], u64 Pt[2], const u64 rk[SPECK128_ROUNDS])
{
 8005dd6:	e92d 0fb0 	stmdb	sp!, {r4, r5, r7, r8, r9, sl, fp}
 8005dda:	b08d      	sub	sp, #52	@ 0x34
 8005ddc:	af00      	add	r7, sp, #0
 8005dde:	6278      	str	r0, [r7, #36]	@ 0x24
 8005de0:	6239      	str	r1, [r7, #32]
 8005de2:	61fa      	str	r2, [r7, #28]
    int i;
    Pt[0] = Ct[0]; Pt[1] = Ct[1];
 8005de4:	6a7b      	ldr	r3, [r7, #36]	@ 0x24
 8005de6:	e9d3 2300 	ldrd	r2, r3, [r3]
 8005dea:	6a39      	ldr	r1, [r7, #32]
 8005dec:	e9c1 2300 	strd	r2, r3, [r1]
 8005df0:	6a7b      	ldr	r3, [r7, #36]	@ 0x24
 8005df2:	3308      	adds	r3, #8
 8005df4:	6a3a      	ldr	r2, [r7, #32]
 8005df6:	f102 0108 	add.w	r1, r2, #8
 8005dfa:	e9d3 2300 	ldrd	r2, r3, [r3]
 8005dfe:	e9c1 2300 	strd	r2, r3, [r1]
    for (i = 31; i >= 0; ) DR64(Pt[1], Pt[0], rk[i--]);
 8005e02:	231f      	movs	r3, #31
 8005e04:	62fb      	str	r3, [r7, #44]	@ 0x2c
 8005e06:	e058      	b.n	8005eba <Speck128128Decrypt+0xe4>
 8005e08:	6a3b      	ldr	r3, [r7, #32]
 8005e0a:	e9d3 0100 	ldrd	r0, r1, [r3]
 8005e0e:	6a3b      	ldr	r3, [r7, #32]
 8005e10:	3308      	adds	r3, #8
 8005e12:	e9d3 2300 	ldrd	r2, r3, [r3]
 8005e16:	ea80 0802 	eor.w	r8, r0, r2
 8005e1a:	ea81 0903 	eor.w	r9, r1, r3
 8005e1e:	6a3b      	ldr	r3, [r7, #32]
 8005e20:	e9c3 8900 	strd	r8, r9, [r3]
 8005e24:	6a3b      	ldr	r3, [r7, #32]
 8005e26:	e9d3 2300 	ldrd	r2, r3, [r3]
 8005e2a:	0758      	lsls	r0, r3, #29
 8005e2c:	08d1      	lsrs	r1, r2, #3
 8005e2e:	ea40 0a01 	orr.w	sl, r0, r1
 8005e32:	0751      	lsls	r1, r2, #29
 8005e34:	08db      	lsrs	r3, r3, #3
 8005e36:	ea41 0b03 	orr.w	fp, r1, r3
 8005e3a:	6a3b      	ldr	r3, [r7, #32]
 8005e3c:	e9c3 ab00 	strd	sl, fp, [r3]
 8005e40:	6afb      	ldr	r3, [r7, #44]	@ 0x2c
 8005e42:	1e5a      	subs	r2, r3, #1
 8005e44:	62fa      	str	r2, [r7, #44]	@ 0x2c
 8005e46:	00db      	lsls	r3, r3, #3
 8005e48:	69fa      	ldr	r2, [r7, #28]
 8005e4a:	4413      	add	r3, r2
 8005e4c:	e9d3 4500 	ldrd	r4, r5, [r3]
 8005e50:	6a3b      	ldr	r3, [r7, #32]
 8005e52:	3308      	adds	r3, #8
 8005e54:	e9d3 0100 	ldrd	r0, r1, [r3]
 8005e58:	6a3b      	ldr	r3, [r7, #32]
 8005e5a:	3308      	adds	r3, #8
 8005e5c:	ea84 0200 	eor.w	r2, r4, r0
 8005e60:	613a      	str	r2, [r7, #16]
 8005e62:	ea85 0201 	eor.w	r2, r5, r1
 8005e66:	617a      	str	r2, [r7, #20]
 8005e68:	e9d7 1204 	ldrd	r1, r2, [r7, #16]
 8005e6c:	e9c3 1200 	strd	r1, r2, [r3]
 8005e70:	6a3b      	ldr	r3, [r7, #32]
 8005e72:	3308      	adds	r3, #8
 8005e74:	e9d3 0100 	ldrd	r0, r1, [r3]
 8005e78:	6a3b      	ldr	r3, [r7, #32]
 8005e7a:	e9d3 2300 	ldrd	r2, r3, [r3]
 8005e7e:	6a3c      	ldr	r4, [r7, #32]
 8005e80:	3408      	adds	r4, #8
 8005e82:	1a85      	subs	r5, r0, r2
 8005e84:	60bd      	str	r5, [r7, #8]
 8005e86:	eb61 0303 	sbc.w	r3, r1, r3
 8005e8a:	60fb      	str	r3, [r7, #12]
 8005e8c:	e9d7 2302 	ldrd	r2, r3, [r7, #8]
 8005e90:	e9c4 2300 	strd	r2, r3, [r4]
 8005e94:	6a3b      	ldr	r3, [r7, #32]
 8005e96:	3308      	adds	r3, #8
 8005e98:	e9d3 2300 	ldrd	r2, r3, [r3]
 8005e9c:	6a39      	ldr	r1, [r7, #32]
 8005e9e:	f101 0008 	add.w	r0, r1, #8
 8005ea2:	0e1c      	lsrs	r4, r3, #24
 8005ea4:	0211      	lsls	r1, r2, #8
 8005ea6:	4321      	orrs	r1, r4
 8005ea8:	6039      	str	r1, [r7, #0]
 8005eaa:	0e11      	lsrs	r1, r2, #24
 8005eac:	021b      	lsls	r3, r3, #8
 8005eae:	430b      	orrs	r3, r1
 8005eb0:	607b      	str	r3, [r7, #4]
 8005eb2:	e9d7 3400 	ldrd	r3, r4, [r7]
 8005eb6:	e9c0 3400 	strd	r3, r4, [r0]
 8005eba:	6afb      	ldr	r3, [r7, #44]	@ 0x2c
 8005ebc:	2b00      	cmp	r3, #0
 8005ebe:	daa3      	bge.n	8005e08 <Speck128128Decrypt+0x32>
}
 8005ec0:	bf00      	nop
 8005ec2:	bf00      	nop
 8005ec4:	3734      	adds	r7, #52	@ 0x34
 8005ec6:	46bd      	mov	sp, r7
 8005ec8:	e8bd 0fb0 	ldmia.w	sp!, {r4, r5, r7, r8, r9, sl, fp}
 8005ecc:	4770      	bx	lr
	...

08005ed0 <HAL_MspInit>:
/* USER CODE END 0 */
/**
  * Initializes the Global MSP.
  */
void HAL_MspInit(void)
{
 8005ed0:	b480      	push	{r7}
 8005ed2:	b083      	sub	sp, #12
 8005ed4:	af00      	add	r7, sp, #0

  /* USER CODE BEGIN MspInit 0 */

  /* USER CODE END MspInit 0 */

  __HAL_RCC_SYSCFG_CLK_ENABLE();
 8005ed6:	4b0f      	ldr	r3, [pc, #60]	@ (8005f14 <HAL_MspInit+0x44>)
 8005ed8:	6e1b      	ldr	r3, [r3, #96]	@ 0x60
 8005eda:	4a0e      	ldr	r2, [pc, #56]	@ (8005f14 <HAL_MspInit+0x44>)
 8005edc:	f043 0301 	orr.w	r3, r3, #1
 8005ee0:	6613      	str	r3, [r2, #96]	@ 0x60
 8005ee2:	4b0c      	ldr	r3, [pc, #48]	@ (8005f14 <HAL_MspInit+0x44>)
 8005ee4:	6e1b      	ldr	r3, [r3, #96]	@ 0x60
 8005ee6:	f003 0301 	and.w	r3, r3, #1
 8005eea:	607b      	str	r3, [r7, #4]
 8005eec:	687b      	ldr	r3, [r7, #4]
  __HAL_RCC_PWR_CLK_ENABLE();
 8005eee:	4b09      	ldr	r3, [pc, #36]	@ (8005f14 <HAL_MspInit+0x44>)
 8005ef0:	6d9b      	ldr	r3, [r3, #88]	@ 0x58
 8005ef2:	4a08      	ldr	r2, [pc, #32]	@ (8005f14 <HAL_MspInit+0x44>)
 8005ef4:	f043 5380 	orr.w	r3, r3, #268435456	@ 0x10000000
 8005ef8:	6593      	str	r3, [r2, #88]	@ 0x58
 8005efa:	4b06      	ldr	r3, [pc, #24]	@ (8005f14 <HAL_MspInit+0x44>)
 8005efc:	6d9b      	ldr	r3, [r3, #88]	@ 0x58
 8005efe:	f003 5380 	and.w	r3, r3, #268435456	@ 0x10000000
 8005f02:	603b      	str	r3, [r7, #0]
 8005f04:	683b      	ldr	r3, [r7, #0]
  /* System interrupt init*/

  /* USER CODE BEGIN MspInit 1 */

  /* USER CODE END MspInit 1 */
}
 8005f06:	bf00      	nop
 8005f08:	370c      	adds	r7, #12
 8005f0a:	46bd      	mov	sp, r7
 8005f0c:	f85d 7b04 	ldr.w	r7, [sp], #4
 8005f10:	4770      	bx	lr
 8005f12:	bf00      	nop
 8005f14:	40021000 	.word	0x40021000

08005f18 <NMI_Handler>:
/******************************************************************************/
/**
  * @brief This function handles Non maskable interrupt.
  */
void NMI_Handler(void)
{
 8005f18:	b480      	push	{r7}
 8005f1a:	af00      	add	r7, sp, #0
  /* USER CODE BEGIN NonMaskableInt_IRQn 0 */

  /* USER CODE END NonMaskableInt_IRQn 0 */
  /* USER CODE BEGIN NonMaskableInt_IRQn 1 */
   while (1)
 8005f1c:	bf00      	nop
 8005f1e:	e7fd      	b.n	8005f1c <NMI_Handler+0x4>

08005f20 <HardFault_Handler>:

/**
  * @brief This function handles Hard fault interrupt.
  */
void HardFault_Handler(void)
{
 8005f20:	b480      	push	{r7}
 8005f22:	af00      	add	r7, sp, #0
  /* USER CODE BEGIN HardFault_IRQn 0 */

  /* USER CODE END HardFault_IRQn 0 */
  while (1)
 8005f24:	bf00      	nop
 8005f26:	e7fd      	b.n	8005f24 <HardFault_Handler+0x4>

08005f28 <MemManage_Handler>:

/**
  * @brief This function handles Memory management fault.
  */
void MemManage_Handler(void)
{
 8005f28:	b480      	push	{r7}
 8005f2a:	af00      	add	r7, sp, #0
  /* USER CODE BEGIN MemoryManagement_IRQn 0 */

  /* USER CODE END MemoryManagement_IRQn 0 */
  while (1)
 8005f2c:	bf00      	nop
 8005f2e:	e7fd      	b.n	8005f2c <MemManage_Handler+0x4>

08005f30 <BusFault_Handler>:

/**
  * @brief This function handles Prefetch fault, memory access fault.
  */
void BusFault_Handler(void)
{
 8005f30:	b480      	push	{r7}
 8005f32:	af00      	add	r7, sp, #0
  /* USER CODE BEGIN BusFault_IRQn 0 */

  /* USER CODE END BusFault_IRQn 0 */
  while (1)
 8005f34:	bf00      	nop
 8005f36:	e7fd      	b.n	8005f34 <BusFault_Handler+0x4>

08005f38 <UsageFault_Handler>:

/**
  * @brief This function handles Undefined instruction or illegal state.
  */
void UsageFault_Handler(void)
{
 8005f38:	b480      	push	{r7}
 8005f3a:	af00      	add	r7, sp, #0
  /* USER CODE BEGIN UsageFault_IRQn 0 */

  /* USER CODE END UsageFault_IRQn 0 */
  while (1)
 8005f3c:	bf00      	nop
 8005f3e:	e7fd      	b.n	8005f3c <UsageFault_Handler+0x4>

08005f40 <SVC_Handler>:

/**
  * @brief This function handles System service call via SWI instruction.
  */
void SVC_Handler(void)
{
 8005f40:	b480      	push	{r7}
 8005f42:	af00      	add	r7, sp, #0

  /* USER CODE END SVCall_IRQn 0 */
  /* USER CODE BEGIN SVCall_IRQn 1 */

  /* USER CODE END SVCall_IRQn 1 */
}
 8005f44:	bf00      	nop
 8005f46:	46bd      	mov	sp, r7
 8005f48:	f85d 7b04 	ldr.w	r7, [sp], #4
 8005f4c:	4770      	bx	lr

08005f4e <DebugMon_Handler>:

/**
  * @brief This function handles Debug monitor.
  */
void DebugMon_Handler(void)
{
 8005f4e:	b480      	push	{r7}
 8005f50:	af00      	add	r7, sp, #0

  /* USER CODE END DebugMonitor_IRQn 0 */
  /* USER CODE BEGIN DebugMonitor_IRQn 1 */

  /* USER CODE END DebugMonitor_IRQn 1 */
}
 8005f52:	bf00      	nop
 8005f54:	46bd      	mov	sp, r7
 8005f56:	f85d 7b04 	ldr.w	r7, [sp], #4
 8005f5a:	4770      	bx	lr

08005f5c <PendSV_Handler>:

/**
  * @brief This function handles Pendable request for system service.
  */
void PendSV_Handler(void)
{
 8005f5c:	b480      	push	{r7}
 8005f5e:	af00      	add	r7, sp, #0

  /* USER CODE END PendSV_IRQn 0 */
  /* USER CODE BEGIN PendSV_IRQn 1 */

  /* USER CODE END PendSV_IRQn 1 */
}
 8005f60:	bf00      	nop
 8005f62:	46bd      	mov	sp, r7
 8005f64:	f85d 7b04 	ldr.w	r7, [sp], #4
 8005f68:	4770      	bx	lr

08005f6a <SysTick_Handler>:

/**
  * @brief This function handles System tick timer.
  */
void SysTick_Handler(void)
{
 8005f6a:	b580      	push	{r7, lr}
 8005f6c:	af00      	add	r7, sp, #0
  /* USER CODE BEGIN SysTick_IRQn 0 */

  /* USER CODE END SysTick_IRQn 0 */
  HAL_IncTick();
 8005f6e:	f7fa fb69 	bl	8000644 <HAL_IncTick>
  /* USER CODE BEGIN SysTick_IRQn 1 */

  /* USER CODE END SysTick_IRQn 1 */
}
 8005f72:	bf00      	nop
 8005f74:	bd80      	pop	{r7, pc}

08005f76 <_read>:
  _kill(status, -1);
  while (1) {}    /* Make sure we hang here */
}

__attribute__((weak)) int _read(int file, char *ptr, int len)
{
 8005f76:	b580      	push	{r7, lr}
 8005f78:	b086      	sub	sp, #24
 8005f7a:	af00      	add	r7, sp, #0
 8005f7c:	60f8      	str	r0, [r7, #12]
 8005f7e:	60b9      	str	r1, [r7, #8]
 8005f80:	607a      	str	r2, [r7, #4]
  (void)file;
  int DataIdx;

  for (DataIdx = 0; DataIdx < len; DataIdx++)
 8005f82:	2300      	movs	r3, #0
 8005f84:	617b      	str	r3, [r7, #20]
 8005f86:	e00a      	b.n	8005f9e <_read+0x28>
  {
    *ptr++ = __io_getchar();
 8005f88:	f3af 8000 	nop.w
 8005f8c:	4601      	mov	r1, r0
 8005f8e:	68bb      	ldr	r3, [r7, #8]
 8005f90:	1c5a      	adds	r2, r3, #1
 8005f92:	60ba      	str	r2, [r7, #8]
 8005f94:	b2ca      	uxtb	r2, r1
 8005f96:	701a      	strb	r2, [r3, #0]
  for (DataIdx = 0; DataIdx < len; DataIdx++)
 8005f98:	697b      	ldr	r3, [r7, #20]
 8005f9a:	3301      	adds	r3, #1
 8005f9c:	617b      	str	r3, [r7, #20]
 8005f9e:	697a      	ldr	r2, [r7, #20]
 8005fa0:	687b      	ldr	r3, [r7, #4]
 8005fa2:	429a      	cmp	r2, r3
 8005fa4:	dbf0      	blt.n	8005f88 <_read+0x12>
  }

  return len;
 8005fa6:	687b      	ldr	r3, [r7, #4]
}
 8005fa8:	4618      	mov	r0, r3
 8005faa:	3718      	adds	r7, #24
 8005fac:	46bd      	mov	sp, r7
 8005fae:	bd80      	pop	{r7, pc}

08005fb0 <_close>:
  }
  return len;
}

int _close(int file)
{
 8005fb0:	b480      	push	{r7}
 8005fb2:	b083      	sub	sp, #12
 8005fb4:	af00      	add	r7, sp, #0
 8005fb6:	6078      	str	r0, [r7, #4]
  (void)file;
  return -1;
 8005fb8:	f04f 33ff 	mov.w	r3, #4294967295
}
 8005fbc:	4618      	mov	r0, r3
 8005fbe:	370c      	adds	r7, #12
 8005fc0:	46bd      	mov	sp, r7
 8005fc2:	f85d 7b04 	ldr.w	r7, [sp], #4
 8005fc6:	4770      	bx	lr

08005fc8 <_fstat>:


int _fstat(int file, struct stat *st)
{
 8005fc8:	b480      	push	{r7}
 8005fca:	b083      	sub	sp, #12
 8005fcc:	af00      	add	r7, sp, #0
 8005fce:	6078      	str	r0, [r7, #4]
 8005fd0:	6039      	str	r1, [r7, #0]
  (void)file;
  st->st_mode = S_IFCHR;
 8005fd2:	683b      	ldr	r3, [r7, #0]
 8005fd4:	f44f 5200 	mov.w	r2, #8192	@ 0x2000
 8005fd8:	605a      	str	r2, [r3, #4]
  return 0;
 8005fda:	2300      	movs	r3, #0
}
 8005fdc:	4618      	mov	r0, r3
 8005fde:	370c      	adds	r7, #12
 8005fe0:	46bd      	mov	sp, r7
 8005fe2:	f85d 7b04 	ldr.w	r7, [sp], #4
 8005fe6:	4770      	bx	lr

08005fe8 <_isatty>:

int _isatty(int file)
{
 8005fe8:	b480      	push	{r7}
 8005fea:	b083      	sub	sp, #12
 8005fec:	af00      	add	r7, sp, #0
 8005fee:	6078      	str	r0, [r7, #4]
  (void)file;
  return 1;
 8005ff0:	2301      	movs	r3, #1
}
 8005ff2:	4618      	mov	r0, r3
 8005ff4:	370c      	adds	r7, #12
 8005ff6:	46bd      	mov	sp, r7
 8005ff8:	f85d 7b04 	ldr.w	r7, [sp], #4
 8005ffc:	4770      	bx	lr

08005ffe <_lseek>:

int _lseek(int file, int ptr, int dir)
{
 8005ffe:	b480      	push	{r7}
 8006000:	b085      	sub	sp, #20
 8006002:	af00      	add	r7, sp, #0
 8006004:	60f8      	str	r0, [r7, #12]
 8006006:	60b9      	str	r1, [r7, #8]
 8006008:	607a      	str	r2, [r7, #4]
  (void)file;
  (void)ptr;
  (void)dir;
  return 0;
 800600a:	2300      	movs	r3, #0
}
 800600c:	4618      	mov	r0, r3
 800600e:	3714      	adds	r7, #20
 8006010:	46bd      	mov	sp, r7
 8006012:	f85d 7b04 	ldr.w	r7, [sp], #4
 8006016:	4770      	bx	lr

08006018 <_sbrk>:
 *
 * @param incr Memory size
 * @return Pointer to allocated memory
 */
void *_sbrk(ptrdiff_t incr)
{
 8006018:	b580      	push	{r7, lr}
 800601a:	b086      	sub	sp, #24
 800601c:	af00      	add	r7, sp, #0
 800601e:	6078      	str	r0, [r7, #4]
  extern uint8_t _end; /* Symbol defined in the linker script */
  extern uint8_t _estack; /* Symbol defined in the linker script */
  extern uint32_t _Min_Stack_Size; /* Symbol defined in the linker script */
  const uint32_t stack_limit = (uint32_t)&_estack - (uint32_t)&_Min_Stack_Size;
 8006020:	4a14      	ldr	r2, [pc, #80]	@ (8006074 <_sbrk+0x5c>)
 8006022:	4b15      	ldr	r3, [pc, #84]	@ (8006078 <_sbrk+0x60>)
 8006024:	1ad3      	subs	r3, r2, r3
 8006026:	617b      	str	r3, [r7, #20]
  const uint8_t *max_heap = (uint8_t *)stack_limit;
 8006028:	697b      	ldr	r3, [r7, #20]
 800602a:	613b      	str	r3, [r7, #16]
  uint8_t *prev_heap_end;

  /* Initialize heap end at first call */
  if (NULL == __sbrk_heap_end)
 800602c:	4b13      	ldr	r3, [pc, #76]	@ (800607c <_sbrk+0x64>)
 800602e:	681b      	ldr	r3, [r3, #0]
 8006030:	2b00      	cmp	r3, #0
 8006032:	d102      	bne.n	800603a <_sbrk+0x22>
  {
    __sbrk_heap_end = &_end;
 8006034:	4b11      	ldr	r3, [pc, #68]	@ (800607c <_sbrk+0x64>)
 8006036:	4a12      	ldr	r2, [pc, #72]	@ (8006080 <_sbrk+0x68>)
 8006038:	601a      	str	r2, [r3, #0]
  }

  /* Protect heap from growing into the reserved MSP stack */
  if (__sbrk_heap_end + incr > max_heap)
 800603a:	4b10      	ldr	r3, [pc, #64]	@ (800607c <_sbrk+0x64>)
 800603c:	681a      	ldr	r2, [r3, #0]
 800603e:	687b      	ldr	r3, [r7, #4]
 8006040:	4413      	add	r3, r2
 8006042:	693a      	ldr	r2, [r7, #16]
 8006044:	429a      	cmp	r2, r3
 8006046:	d207      	bcs.n	8006058 <_sbrk+0x40>
  {
    errno = ENOMEM;
 8006048:	f000 fb4a 	bl	80066e0 <__errno>
 800604c:	4603      	mov	r3, r0
 800604e:	220c      	movs	r2, #12
 8006050:	601a      	str	r2, [r3, #0]
    return (void *)-1;
 8006052:	f04f 33ff 	mov.w	r3, #4294967295
 8006056:	e009      	b.n	800606c <_sbrk+0x54>
  }

  prev_heap_end = __sbrk_heap_end;
 8006058:	4b08      	ldr	r3, [pc, #32]	@ (800607c <_sbrk+0x64>)
 800605a:	681b      	ldr	r3, [r3, #0]
 800605c:	60fb      	str	r3, [r7, #12]
  __sbrk_heap_end += incr;
 800605e:	4b07      	ldr	r3, [pc, #28]	@ (800607c <_sbrk+0x64>)
 8006060:	681a      	ldr	r2, [r3, #0]
 8006062:	687b      	ldr	r3, [r7, #4]
 8006064:	4413      	add	r3, r2
 8006066:	4a05      	ldr	r2, [pc, #20]	@ (800607c <_sbrk+0x64>)
 8006068:	6013      	str	r3, [r2, #0]

  return (void *)prev_heap_end;
 800606a:	68fb      	ldr	r3, [r7, #12]
}
 800606c:	4618      	mov	r0, r3
 800606e:	3718      	adds	r7, #24
 8006070:	46bd      	mov	sp, r7
 8006072:	bd80      	pop	{r7, pc}
 8006074:	2000c000 	.word	0x2000c000
 8006078:	00000400 	.word	0x00000400
 800607c:	20000088 	.word	0x20000088
 8006080:	20000260 	.word	0x20000260

08006084 <SystemInit>:
  * @brief  Setup the microcontroller system.
  * @retval None
  */

void SystemInit(void)
{
 8006084:	b480      	push	{r7}
 8006086:	af00      	add	r7, sp, #0
  SCB->VTOR = VECT_TAB_BASE_ADDRESS | VECT_TAB_OFFSET;
#endif

  /* FPU settings ------------------------------------------------------------*/
#if (__FPU_PRESENT == 1) && (__FPU_USED == 1)
  SCB->CPACR |= ((3UL << 20U)|(3UL << 22U));  /* set CP10 and CP11 Full Access */
 8006088:	4b06      	ldr	r3, [pc, #24]	@ (80060a4 <SystemInit+0x20>)
 800608a:	f8d3 3088 	ldr.w	r3, [r3, #136]	@ 0x88
 800608e:	4a05      	ldr	r2, [pc, #20]	@ (80060a4 <SystemInit+0x20>)
 8006090:	f443 0370 	orr.w	r3, r3, #15728640	@ 0xf00000
 8006094:	f8c2 3088 	str.w	r3, [r2, #136]	@ 0x88
#endif
}
 8006098:	bf00      	nop
 800609a:	46bd      	mov	sp, r7
 800609c:	f85d 7b04 	ldr.w	r7, [sp], #4
 80060a0:	4770      	bx	lr
 80060a2:	bf00      	nop
 80060a4:	e000ed00 	.word	0xe000ed00

080060a8 <MX_USART2_UART_Init>:
UART_HandleTypeDef huart2;

/* USART2 init function */

void MX_USART2_UART_Init(void)
{
 80060a8:	b580      	push	{r7, lr}
 80060aa:	af00      	add	r7, sp, #0
  /* USER CODE END USART2_Init 0 */

  /* USER CODE BEGIN USART2_Init 1 */

  /* USER CODE END USART2_Init 1 */
  huart2.Instance = USART2;
 80060ac:	4b14      	ldr	r3, [pc, #80]	@ (8006100 <MX_USART2_UART_Init+0x58>)
 80060ae:	4a15      	ldr	r2, [pc, #84]	@ (8006104 <MX_USART2_UART_Init+0x5c>)
 80060b0:	601a      	str	r2, [r3, #0]
  huart2.Init.BaudRate = 115200;
 80060b2:	4b13      	ldr	r3, [pc, #76]	@ (8006100 <MX_USART2_UART_Init+0x58>)
 80060b4:	f44f 32e1 	mov.w	r2, #115200	@ 0x1c200
 80060b8:	605a      	str	r2, [r3, #4]
  huart2.Init.WordLength = UART_WORDLENGTH_8B;
 80060ba:	4b11      	ldr	r3, [pc, #68]	@ (8006100 <MX_USART2_UART_Init+0x58>)
 80060bc:	2200      	movs	r2, #0
 80060be:	609a      	str	r2, [r3, #8]
  huart2.Init.StopBits = UART_STOPBITS_1;
 80060c0:	4b0f      	ldr	r3, [pc, #60]	@ (8006100 <MX_USART2_UART_Init+0x58>)
 80060c2:	2200      	movs	r2, #0
 80060c4:	60da      	str	r2, [r3, #12]
  huart2.Init.Parity = UART_PARITY_NONE;
 80060c6:	4b0e      	ldr	r3, [pc, #56]	@ (8006100 <MX_USART2_UART_Init+0x58>)
 80060c8:	2200      	movs	r2, #0
 80060ca:	611a      	str	r2, [r3, #16]
  huart2.Init.Mode = UART_MODE_TX_RX;
 80060cc:	4b0c      	ldr	r3, [pc, #48]	@ (8006100 <MX_USART2_UART_Init+0x58>)
 80060ce:	220c      	movs	r2, #12
 80060d0:	615a      	str	r2, [r3, #20]
  huart2.Init.HwFlowCtl = UART_HWCONTROL_NONE;
 80060d2:	4b0b      	ldr	r3, [pc, #44]	@ (8006100 <MX_USART2_UART_Init+0x58>)
 80060d4:	2200      	movs	r2, #0
 80060d6:	619a      	str	r2, [r3, #24]
  huart2.Init.OverSampling = UART_OVERSAMPLING_16;
 80060d8:	4b09      	ldr	r3, [pc, #36]	@ (8006100 <MX_USART2_UART_Init+0x58>)
 80060da:	2200      	movs	r2, #0
 80060dc:	61da      	str	r2, [r3, #28]
  huart2.Init.OneBitSampling = UART_ONE_BIT_SAMPLE_DISABLE;
 80060de:	4b08      	ldr	r3, [pc, #32]	@ (8006100 <MX_USART2_UART_Init+0x58>)
 80060e0:	2200      	movs	r2, #0
 80060e2:	621a      	str	r2, [r3, #32]
  huart2.AdvancedInit.AdvFeatureInit = UART_ADVFEATURE_NO_INIT;
 80060e4:	4b06      	ldr	r3, [pc, #24]	@ (8006100 <MX_USART2_UART_Init+0x58>)
 80060e6:	2200      	movs	r2, #0
 80060e8:	625a      	str	r2, [r3, #36]	@ 0x24
  if (HAL_UART_Init(&huart2) != HAL_OK)
 80060ea:	4805      	ldr	r0, [pc, #20]	@ (8006100 <MX_USART2_UART_Init+0x58>)
 80060ec:	f7fb fec2 	bl	8001e74 <HAL_UART_Init>
 80060f0:	4603      	mov	r3, r0
 80060f2:	2b00      	cmp	r3, #0
 80060f4:	d001      	beq.n	80060fa <MX_USART2_UART_Init+0x52>
  {
    Error_Handler();
 80060f6:	f7ff fd5f 	bl	8005bb8 <Error_Handler>
  }
  /* USER CODE BEGIN USART2_Init 2 */

  /* USER CODE END USART2_Init 2 */

}
 80060fa:	bf00      	nop
 80060fc:	bd80      	pop	{r7, pc}
 80060fe:	bf00      	nop
 8006100:	2000008c 	.word	0x2000008c
 8006104:	40004400 	.word	0x40004400

08006108 <HAL_UART_MspInit>:

void HAL_UART_MspInit(UART_HandleTypeDef* uartHandle)
{
 8006108:	b580      	push	{r7, lr}
 800610a:	b09e      	sub	sp, #120	@ 0x78
 800610c:	af00      	add	r7, sp, #0
 800610e:	6078      	str	r0, [r7, #4]

  GPIO_InitTypeDef GPIO_InitStruct = {0};
 8006110:	f107 0364 	add.w	r3, r7, #100	@ 0x64
 8006114:	2200      	movs	r2, #0
 8006116:	601a      	str	r2, [r3, #0]
 8006118:	605a      	str	r2, [r3, #4]
 800611a:	609a      	str	r2, [r3, #8]
 800611c:	60da      	str	r2, [r3, #12]
 800611e:	611a      	str	r2, [r3, #16]
  RCC_PeriphCLKInitTypeDef PeriphClkInit = {0};
 8006120:	f107 0310 	add.w	r3, r7, #16
 8006124:	2254      	movs	r2, #84	@ 0x54
 8006126:	2100      	movs	r1, #0
 8006128:	4618      	mov	r0, r3
 800612a:	f000 fa8b 	bl	8006644 <memset>
  if(uartHandle->Instance==USART2)
 800612e:	687b      	ldr	r3, [r7, #4]
 8006130:	681b      	ldr	r3, [r3, #0]
 8006132:	4a28      	ldr	r2, [pc, #160]	@ (80061d4 <HAL_UART_MspInit+0xcc>)
 8006134:	4293      	cmp	r3, r2
 8006136:	d148      	bne.n	80061ca <HAL_UART_MspInit+0xc2>

  /* USER CODE END USART2_MspInit 0 */

  /** Initializes the peripherals clock
  */
    PeriphClkInit.PeriphClockSelection = RCC_PERIPHCLK_USART2;
 8006138:	2302      	movs	r3, #2
 800613a:	613b      	str	r3, [r7, #16]
    PeriphClkInit.Usart2ClockSelection = RCC_USART2CLKSOURCE_PCLK1;
 800613c:	2300      	movs	r3, #0
 800613e:	637b      	str	r3, [r7, #52]	@ 0x34
    if (HAL_RCCEx_PeriphCLKConfig(&PeriphClkInit) != HAL_OK)
 8006140:	f107 0310 	add.w	r3, r7, #16
 8006144:	4618      	mov	r0, r3
 8006146:	f7fb fbad 	bl	80018a4 <HAL_RCCEx_PeriphCLKConfig>
 800614a:	4603      	mov	r3, r0
 800614c:	2b00      	cmp	r3, #0
 800614e:	d001      	beq.n	8006154 <HAL_UART_MspInit+0x4c>
    {
      Error_Handler();
 8006150:	f7ff fd32 	bl	8005bb8 <Error_Handler>
    }

    /* USART2 clock enable */
    __HAL_RCC_USART2_CLK_ENABLE();
 8006154:	4b20      	ldr	r3, [pc, #128]	@ (80061d8 <HAL_UART_MspInit+0xd0>)
 8006156:	6d9b      	ldr	r3, [r3, #88]	@ 0x58
 8006158:	4a1f      	ldr	r2, [pc, #124]	@ (80061d8 <HAL_UART_MspInit+0xd0>)
 800615a:	f443 3300 	orr.w	r3, r3, #131072	@ 0x20000
 800615e:	6593      	str	r3, [r2, #88]	@ 0x58
 8006160:	4b1d      	ldr	r3, [pc, #116]	@ (80061d8 <HAL_UART_MspInit+0xd0>)
 8006162:	6d9b      	ldr	r3, [r3, #88]	@ 0x58
 8006164:	f403 3300 	and.w	r3, r3, #131072	@ 0x20000
 8006168:	60fb      	str	r3, [r7, #12]
 800616a:	68fb      	ldr	r3, [r7, #12]

    __HAL_RCC_GPIOA_CLK_ENABLE();
 800616c:	4b1a      	ldr	r3, [pc, #104]	@ (80061d8 <HAL_UART_MspInit+0xd0>)
 800616e:	6cdb      	ldr	r3, [r3, #76]	@ 0x4c
 8006170:	4a19      	ldr	r2, [pc, #100]	@ (80061d8 <HAL_UART_MspInit+0xd0>)
 8006172:	f043 0301 	orr.w	r3, r3, #1
 8006176:	64d3      	str	r3, [r2, #76]	@ 0x4c
 8006178:	4b17      	ldr	r3, [pc, #92]	@ (80061d8 <HAL_UART_MspInit+0xd0>)
 800617a:	6cdb      	ldr	r3, [r3, #76]	@ 0x4c
 800617c:	f003 0301 	and.w	r3, r3, #1
 8006180:	60bb      	str	r3, [r7, #8]
 8006182:	68bb      	ldr	r3, [r7, #8]
    /**USART2 GPIO Configuration
    PA2     ------> USART2_TX
    PA15 (JTDI)     ------> USART2_RX
    */
    GPIO_InitStruct.Pin = VCP_TX_Pin;
 8006184:	2304      	movs	r3, #4
 8006186:	667b      	str	r3, [r7, #100]	@ 0x64
    GPIO_InitStruct.Mode = GPIO_MODE_AF_PP;
 8006188:	2302      	movs	r3, #2
 800618a:	66bb      	str	r3, [r7, #104]	@ 0x68
    GPIO_InitStruct.Pull = GPIO_NOPULL;
 800618c:	2300      	movs	r3, #0
 800618e:	66fb      	str	r3, [r7, #108]	@ 0x6c
    GPIO_InitStruct.Speed = GPIO_SPEED_FREQ_VERY_HIGH;
 8006190:	2303      	movs	r3, #3
 8006192:	673b      	str	r3, [r7, #112]	@ 0x70
    GPIO_InitStruct.Alternate = GPIO_AF7_USART2;
 8006194:	2307      	movs	r3, #7
 8006196:	677b      	str	r3, [r7, #116]	@ 0x74
    HAL_GPIO_Init(VCP_TX_GPIO_Port, &GPIO_InitStruct);
 8006198:	f107 0364 	add.w	r3, r7, #100	@ 0x64
 800619c:	4619      	mov	r1, r3
 800619e:	f04f 4090 	mov.w	r0, #1207959552	@ 0x48000000
 80061a2:	f7fa fb79 	bl	8000898 <HAL_GPIO_Init>

    GPIO_InitStruct.Pin = VCP_RX_Pin;
 80061a6:	f44f 4300 	mov.w	r3, #32768	@ 0x8000
 80061aa:	667b      	str	r3, [r7, #100]	@ 0x64
    GPIO_InitStruct.Mode = GPIO_MODE_AF_PP;
 80061ac:	2302      	movs	r3, #2
 80061ae:	66bb      	str	r3, [r7, #104]	@ 0x68
    GPIO_InitStruct.Pull = GPIO_NOPULL;
 80061b0:	2300      	movs	r3, #0
 80061b2:	66fb      	str	r3, [r7, #108]	@ 0x6c
    GPIO_InitStruct.Speed = GPIO_SPEED_FREQ_VERY_HIGH;
 80061b4:	2303      	movs	r3, #3
 80061b6:	673b      	str	r3, [r7, #112]	@ 0x70
    GPIO_InitStruct.Alternate = GPIO_AF3_USART2;
 80061b8:	2303      	movs	r3, #3
 80061ba:	677b      	str	r3, [r7, #116]	@ 0x74
    HAL_GPIO_Init(VCP_RX_GPIO_Port, &GPIO_InitStruct);
 80061bc:	f107 0364 	add.w	r3, r7, #100	@ 0x64
 80061c0:	4619      	mov	r1, r3
 80061c2:	f04f 4090 	mov.w	r0, #1207959552	@ 0x48000000
 80061c6:	f7fa fb67 	bl	8000898 <HAL_GPIO_Init>

  /* USER CODE BEGIN USART2_MspInit 1 */

  /* USER CODE END USART2_MspInit 1 */
  }
}
 80061ca:	bf00      	nop
 80061cc:	3778      	adds	r7, #120	@ 0x78
 80061ce:	46bd      	mov	sp, r7
 80061d0:	bd80      	pop	{r7, pc}
 80061d2:	bf00      	nop
 80061d4:	40004400 	.word	0x40004400
 80061d8:	40021000 	.word	0x40021000

080061dc <Reset_Handler>:

    .section	.text.Reset_Handler
	.weak	Reset_Handler
	.type	Reset_Handler, %function
Reset_Handler:
  ldr   sp, =_estack    /* Set stack pointer */
 80061dc:	f8df d034 	ldr.w	sp, [pc, #52]	@ 8006214 <LoopForever+0x2>

/* Call the clock system initialization function.*/
    bl  SystemInit
 80061e0:	f7ff ff50 	bl	8006084 <SystemInit>

/* Copy the data segment initializers from flash to SRAM */
  ldr r0, =_sdata
 80061e4:	480c      	ldr	r0, [pc, #48]	@ (8006218 <LoopForever+0x6>)
  ldr r1, =_edata
 80061e6:	490d      	ldr	r1, [pc, #52]	@ (800621c <LoopForever+0xa>)
  ldr r2, =_sidata
 80061e8:	4a0d      	ldr	r2, [pc, #52]	@ (8006220 <LoopForever+0xe>)
  movs r3, #0
 80061ea:	2300      	movs	r3, #0
  b LoopCopyDataInit
 80061ec:	e002      	b.n	80061f4 <LoopCopyDataInit>

080061ee <CopyDataInit>:

CopyDataInit:
  ldr r4, [r2, r3]
 80061ee:	58d4      	ldr	r4, [r2, r3]
  str r4, [r0, r3]
 80061f0:	50c4      	str	r4, [r0, r3]
  adds r3, r3, #4
 80061f2:	3304      	adds	r3, #4

080061f4 <LoopCopyDataInit>:

LoopCopyDataInit:
  adds r4, r0, r3
 80061f4:	18c4      	adds	r4, r0, r3
  cmp r4, r1
 80061f6:	428c      	cmp	r4, r1
  bcc CopyDataInit
 80061f8:	d3f9      	bcc.n	80061ee <CopyDataInit>
  
/* Zero fill the bss segment. */
  ldr r2, =_sbss
 80061fa:	4a0a      	ldr	r2, [pc, #40]	@ (8006224 <LoopForever+0x12>)
  ldr r4, =_ebss
 80061fc:	4c0a      	ldr	r4, [pc, #40]	@ (8006228 <LoopForever+0x16>)
  movs r3, #0
 80061fe:	2300      	movs	r3, #0
  b LoopFillZerobss
 8006200:	e001      	b.n	8006206 <LoopFillZerobss>

08006202 <FillZerobss>:

FillZerobss:
  str  r3, [r2]
 8006202:	6013      	str	r3, [r2, #0]
  adds r2, r2, #4
 8006204:	3204      	adds	r2, #4

08006206 <LoopFillZerobss>:

LoopFillZerobss:
  cmp r2, r4
 8006206:	42a2      	cmp	r2, r4
  bcc FillZerobss
 8006208:	d3fb      	bcc.n	8006202 <FillZerobss>

/* Call static constructors */
    bl __libc_init_array
 800620a:	f000 fa6f 	bl	80066ec <__libc_init_array>
/* Call the application's entry point.*/
	bl	main
 800620e:	f7fe ff9f 	bl	8005150 <main>

08006212 <LoopForever>:

LoopForever:
    b LoopForever
 8006212:	e7fe      	b.n	8006212 <LoopForever>
  ldr   sp, =_estack    /* Set stack pointer */
 8006214:	2000c000 	.word	0x2000c000
  ldr r0, =_sdata
 8006218:	20000000 	.word	0x20000000
  ldr r1, =_edata
 800621c:	20000068 	.word	0x20000068
  ldr r2, =_sidata
 8006220:	08007620 	.word	0x08007620
  ldr r2, =_sbss
 8006224:	20000068 	.word	0x20000068
  ldr r4, =_ebss
 8006228:	20000260 	.word	0x20000260

0800622c <ADC1_IRQHandler>:
 * @retval : None
*/
    .section	.text.Default_Handler,"ax",%progbits
Default_Handler:
Infinite_Loop:
	b	Infinite_Loop
 800622c:	e7fe      	b.n	800622c <ADC1_IRQHandler>
	...

08006230 <std>:
 8006230:	2300      	movs	r3, #0
 8006232:	b510      	push	{r4, lr}
 8006234:	4604      	mov	r4, r0
 8006236:	e9c0 3300 	strd	r3, r3, [r0]
 800623a:	e9c0 3304 	strd	r3, r3, [r0, #16]
 800623e:	6083      	str	r3, [r0, #8]
 8006240:	8181      	strh	r1, [r0, #12]
 8006242:	6643      	str	r3, [r0, #100]	@ 0x64
 8006244:	81c2      	strh	r2, [r0, #14]
 8006246:	6183      	str	r3, [r0, #24]
 8006248:	4619      	mov	r1, r3
 800624a:	2208      	movs	r2, #8
 800624c:	305c      	adds	r0, #92	@ 0x5c
 800624e:	f000 f9f9 	bl	8006644 <memset>
 8006252:	4b0d      	ldr	r3, [pc, #52]	@ (8006288 <std+0x58>)
 8006254:	6263      	str	r3, [r4, #36]	@ 0x24
 8006256:	4b0d      	ldr	r3, [pc, #52]	@ (800628c <std+0x5c>)
 8006258:	62a3      	str	r3, [r4, #40]	@ 0x28
 800625a:	4b0d      	ldr	r3, [pc, #52]	@ (8006290 <std+0x60>)
 800625c:	62e3      	str	r3, [r4, #44]	@ 0x2c
 800625e:	4b0d      	ldr	r3, [pc, #52]	@ (8006294 <std+0x64>)
 8006260:	6323      	str	r3, [r4, #48]	@ 0x30
 8006262:	4b0d      	ldr	r3, [pc, #52]	@ (8006298 <std+0x68>)
 8006264:	6224      	str	r4, [r4, #32]
 8006266:	429c      	cmp	r4, r3
 8006268:	d006      	beq.n	8006278 <std+0x48>
 800626a:	f103 0268 	add.w	r2, r3, #104	@ 0x68
 800626e:	4294      	cmp	r4, r2
 8006270:	d002      	beq.n	8006278 <std+0x48>
 8006272:	33d0      	adds	r3, #208	@ 0xd0
 8006274:	429c      	cmp	r4, r3
 8006276:	d105      	bne.n	8006284 <std+0x54>
 8006278:	f104 0058 	add.w	r0, r4, #88	@ 0x58
 800627c:	e8bd 4010 	ldmia.w	sp!, {r4, lr}
 8006280:	f000 ba58 	b.w	8006734 <__retarget_lock_init_recursive>
 8006284:	bd10      	pop	{r4, pc}
 8006286:	bf00      	nop
 8006288:	08006499 	.word	0x08006499
 800628c:	080064bb 	.word	0x080064bb
 8006290:	080064f3 	.word	0x080064f3
 8006294:	08006519 	.word	0x08006519
 8006298:	20000114 	.word	0x20000114

0800629c <stdio_exit_handler>:
 800629c:	4a02      	ldr	r2, [pc, #8]	@ (80062a8 <stdio_exit_handler+0xc>)
 800629e:	4903      	ldr	r1, [pc, #12]	@ (80062ac <stdio_exit_handler+0x10>)
 80062a0:	4803      	ldr	r0, [pc, #12]	@ (80062b0 <stdio_exit_handler+0x14>)
 80062a2:	f000 b86b 	b.w	800637c <_fwalk_sglue>
 80062a6:	bf00      	nop
 80062a8:	2000000c 	.word	0x2000000c
 80062ac:	08006ff1 	.word	0x08006ff1
 80062b0:	2000001c 	.word	0x2000001c

080062b4 <cleanup_stdio>:
 80062b4:	6841      	ldr	r1, [r0, #4]
 80062b6:	4b0c      	ldr	r3, [pc, #48]	@ (80062e8 <cleanup_stdio+0x34>)
 80062b8:	4299      	cmp	r1, r3
 80062ba:	b510      	push	{r4, lr}
 80062bc:	4604      	mov	r4, r0
 80062be:	d001      	beq.n	80062c4 <cleanup_stdio+0x10>
 80062c0:	f000 fe96 	bl	8006ff0 <_fflush_r>
 80062c4:	68a1      	ldr	r1, [r4, #8]
 80062c6:	4b09      	ldr	r3, [pc, #36]	@ (80062ec <cleanup_stdio+0x38>)
 80062c8:	4299      	cmp	r1, r3
 80062ca:	d002      	beq.n	80062d2 <cleanup_stdio+0x1e>
 80062cc:	4620      	mov	r0, r4
 80062ce:	f000 fe8f 	bl	8006ff0 <_fflush_r>
 80062d2:	68e1      	ldr	r1, [r4, #12]
 80062d4:	4b06      	ldr	r3, [pc, #24]	@ (80062f0 <cleanup_stdio+0x3c>)
 80062d6:	4299      	cmp	r1, r3
 80062d8:	d004      	beq.n	80062e4 <cleanup_stdio+0x30>
 80062da:	4620      	mov	r0, r4
 80062dc:	e8bd 4010 	ldmia.w	sp!, {r4, lr}
 80062e0:	f000 be86 	b.w	8006ff0 <_fflush_r>
 80062e4:	bd10      	pop	{r4, pc}
 80062e6:	bf00      	nop
 80062e8:	20000114 	.word	0x20000114
 80062ec:	2000017c 	.word	0x2000017c
 80062f0:	200001e4 	.word	0x200001e4

080062f4 <global_stdio_init.part.0>:
 80062f4:	4b0c      	ldr	r3, [pc, #48]	@ (8006328 <global_stdio_init.part.0+0x34>)
 80062f6:	4a0d      	ldr	r2, [pc, #52]	@ (800632c <global_stdio_init.part.0+0x38>)
 80062f8:	480d      	ldr	r0, [pc, #52]	@ (8006330 <global_stdio_init.part.0+0x3c>)
 80062fa:	b510      	push	{r4, lr}
 80062fc:	2104      	movs	r1, #4
 80062fe:	601a      	str	r2, [r3, #0]
 8006300:	2200      	movs	r2, #0
 8006302:	f7ff ff95 	bl	8006230 <std>
 8006306:	4b0a      	ldr	r3, [pc, #40]	@ (8006330 <global_stdio_init.part.0+0x3c>)
 8006308:	2201      	movs	r2, #1
 800630a:	461c      	mov	r4, r3
 800630c:	2109      	movs	r1, #9
 800630e:	f103 0068 	add.w	r0, r3, #104	@ 0x68
 8006312:	f7ff ff8d 	bl	8006230 <std>
 8006316:	f104 00d0 	add.w	r0, r4, #208	@ 0xd0
 800631a:	2202      	movs	r2, #2
 800631c:	e8bd 4010 	ldmia.w	sp!, {r4, lr}
 8006320:	2112      	movs	r1, #18
 8006322:	f7ff bf85 	b.w	8006230 <std>
 8006326:	bf00      	nop
 8006328:	2000024c 	.word	0x2000024c
 800632c:	0800629d 	.word	0x0800629d
 8006330:	20000114 	.word	0x20000114

08006334 <__sfp_lock_acquire>:
 8006334:	4801      	ldr	r0, [pc, #4]	@ (800633c <__sfp_lock_acquire+0x8>)
 8006336:	f000 b9fe 	b.w	8006736 <__retarget_lock_acquire_recursive>
 800633a:	bf00      	nop
 800633c:	20000255 	.word	0x20000255

08006340 <__sfp_lock_release>:
 8006340:	4801      	ldr	r0, [pc, #4]	@ (8006348 <__sfp_lock_release+0x8>)
 8006342:	f000 b9f9 	b.w	8006738 <__retarget_lock_release_recursive>
 8006346:	bf00      	nop
 8006348:	20000255 	.word	0x20000255

0800634c <__sinit>:
 800634c:	b510      	push	{r4, lr}
 800634e:	4604      	mov	r4, r0
 8006350:	f7ff fff0 	bl	8006334 <__sfp_lock_acquire>
 8006354:	6a23      	ldr	r3, [r4, #32]
 8006356:	b11b      	cbz	r3, 8006360 <__sinit+0x14>
 8006358:	e8bd 4010 	ldmia.w	sp!, {r4, lr}
 800635c:	f7ff bff0 	b.w	8006340 <__sfp_lock_release>
 8006360:	4b04      	ldr	r3, [pc, #16]	@ (8006374 <__sinit+0x28>)
 8006362:	6223      	str	r3, [r4, #32]
 8006364:	4b04      	ldr	r3, [pc, #16]	@ (8006378 <__sinit+0x2c>)
 8006366:	681b      	ldr	r3, [r3, #0]
 8006368:	2b00      	cmp	r3, #0
 800636a:	d1f5      	bne.n	8006358 <__sinit+0xc>
 800636c:	f7ff ffc2 	bl	80062f4 <global_stdio_init.part.0>
 8006370:	e7f2      	b.n	8006358 <__sinit+0xc>
 8006372:	bf00      	nop
 8006374:	080062b5 	.word	0x080062b5
 8006378:	2000024c 	.word	0x2000024c

0800637c <_fwalk_sglue>:
 800637c:	e92d 43f8 	stmdb	sp!, {r3, r4, r5, r6, r7, r8, r9, lr}
 8006380:	4607      	mov	r7, r0
 8006382:	4688      	mov	r8, r1
 8006384:	4614      	mov	r4, r2
 8006386:	2600      	movs	r6, #0
 8006388:	e9d4 9501 	ldrd	r9, r5, [r4, #4]
 800638c:	f1b9 0901 	subs.w	r9, r9, #1
 8006390:	d505      	bpl.n	800639e <_fwalk_sglue+0x22>
 8006392:	6824      	ldr	r4, [r4, #0]
 8006394:	2c00      	cmp	r4, #0
 8006396:	d1f7      	bne.n	8006388 <_fwalk_sglue+0xc>
 8006398:	4630      	mov	r0, r6
 800639a:	e8bd 83f8 	ldmia.w	sp!, {r3, r4, r5, r6, r7, r8, r9, pc}
 800639e:	89ab      	ldrh	r3, [r5, #12]
 80063a0:	2b01      	cmp	r3, #1
 80063a2:	d907      	bls.n	80063b4 <_fwalk_sglue+0x38>
 80063a4:	f9b5 300e 	ldrsh.w	r3, [r5, #14]
 80063a8:	3301      	adds	r3, #1
 80063aa:	d003      	beq.n	80063b4 <_fwalk_sglue+0x38>
 80063ac:	4629      	mov	r1, r5
 80063ae:	4638      	mov	r0, r7
 80063b0:	47c0      	blx	r8
 80063b2:	4306      	orrs	r6, r0
 80063b4:	3568      	adds	r5, #104	@ 0x68
 80063b6:	e7e9      	b.n	800638c <_fwalk_sglue+0x10>

080063b8 <iprintf>:
 80063b8:	b40f      	push	{r0, r1, r2, r3}
 80063ba:	b507      	push	{r0, r1, r2, lr}
 80063bc:	4906      	ldr	r1, [pc, #24]	@ (80063d8 <iprintf+0x20>)
 80063be:	ab04      	add	r3, sp, #16
 80063c0:	6808      	ldr	r0, [r1, #0]
 80063c2:	f853 2b04 	ldr.w	r2, [r3], #4
 80063c6:	6881      	ldr	r1, [r0, #8]
 80063c8:	9301      	str	r3, [sp, #4]
 80063ca:	f000 fae7 	bl	800699c <_vfiprintf_r>
 80063ce:	b003      	add	sp, #12
 80063d0:	f85d eb04 	ldr.w	lr, [sp], #4
 80063d4:	b004      	add	sp, #16
 80063d6:	4770      	bx	lr
 80063d8:	20000018 	.word	0x20000018

080063dc <_puts_r>:
 80063dc:	6a03      	ldr	r3, [r0, #32]
 80063de:	b570      	push	{r4, r5, r6, lr}
 80063e0:	6884      	ldr	r4, [r0, #8]
 80063e2:	4605      	mov	r5, r0
 80063e4:	460e      	mov	r6, r1
 80063e6:	b90b      	cbnz	r3, 80063ec <_puts_r+0x10>
 80063e8:	f7ff ffb0 	bl	800634c <__sinit>
 80063ec:	6e63      	ldr	r3, [r4, #100]	@ 0x64
 80063ee:	07db      	lsls	r3, r3, #31
 80063f0:	d405      	bmi.n	80063fe <_puts_r+0x22>
 80063f2:	89a3      	ldrh	r3, [r4, #12]
 80063f4:	0598      	lsls	r0, r3, #22
 80063f6:	d402      	bmi.n	80063fe <_puts_r+0x22>
 80063f8:	6da0      	ldr	r0, [r4, #88]	@ 0x58
 80063fa:	f000 f99c 	bl	8006736 <__retarget_lock_acquire_recursive>
 80063fe:	89a3      	ldrh	r3, [r4, #12]
 8006400:	0719      	lsls	r1, r3, #28
 8006402:	d502      	bpl.n	800640a <_puts_r+0x2e>
 8006404:	6923      	ldr	r3, [r4, #16]
 8006406:	2b00      	cmp	r3, #0
 8006408:	d135      	bne.n	8006476 <_puts_r+0x9a>
 800640a:	4621      	mov	r1, r4
 800640c:	4628      	mov	r0, r5
 800640e:	f000 f8c5 	bl	800659c <__swsetup_r>
 8006412:	b380      	cbz	r0, 8006476 <_puts_r+0x9a>
 8006414:	f04f 35ff 	mov.w	r5, #4294967295
 8006418:	6e63      	ldr	r3, [r4, #100]	@ 0x64
 800641a:	07da      	lsls	r2, r3, #31
 800641c:	d405      	bmi.n	800642a <_puts_r+0x4e>
 800641e:	89a3      	ldrh	r3, [r4, #12]
 8006420:	059b      	lsls	r3, r3, #22
 8006422:	d402      	bmi.n	800642a <_puts_r+0x4e>
 8006424:	6da0      	ldr	r0, [r4, #88]	@ 0x58
 8006426:	f000 f987 	bl	8006738 <__retarget_lock_release_recursive>
 800642a:	4628      	mov	r0, r5
 800642c:	bd70      	pop	{r4, r5, r6, pc}
 800642e:	2b00      	cmp	r3, #0
 8006430:	da04      	bge.n	800643c <_puts_r+0x60>
 8006432:	69a2      	ldr	r2, [r4, #24]
 8006434:	4293      	cmp	r3, r2
 8006436:	db17      	blt.n	8006468 <_puts_r+0x8c>
 8006438:	290a      	cmp	r1, #10
 800643a:	d015      	beq.n	8006468 <_puts_r+0x8c>
 800643c:	6823      	ldr	r3, [r4, #0]
 800643e:	1c5a      	adds	r2, r3, #1
 8006440:	6022      	str	r2, [r4, #0]
 8006442:	7019      	strb	r1, [r3, #0]
 8006444:	68a3      	ldr	r3, [r4, #8]
 8006446:	f816 1f01 	ldrb.w	r1, [r6, #1]!
 800644a:	3b01      	subs	r3, #1
 800644c:	60a3      	str	r3, [r4, #8]
 800644e:	2900      	cmp	r1, #0
 8006450:	d1ed      	bne.n	800642e <_puts_r+0x52>
 8006452:	2b00      	cmp	r3, #0
 8006454:	da11      	bge.n	800647a <_puts_r+0x9e>
 8006456:	4622      	mov	r2, r4
 8006458:	210a      	movs	r1, #10
 800645a:	4628      	mov	r0, r5
 800645c:	f000 f860 	bl	8006520 <__swbuf_r>
 8006460:	3001      	adds	r0, #1
 8006462:	d0d7      	beq.n	8006414 <_puts_r+0x38>
 8006464:	250a      	movs	r5, #10
 8006466:	e7d7      	b.n	8006418 <_puts_r+0x3c>
 8006468:	4622      	mov	r2, r4
 800646a:	4628      	mov	r0, r5
 800646c:	f000 f858 	bl	8006520 <__swbuf_r>
 8006470:	3001      	adds	r0, #1
 8006472:	d1e7      	bne.n	8006444 <_puts_r+0x68>
 8006474:	e7ce      	b.n	8006414 <_puts_r+0x38>
 8006476:	3e01      	subs	r6, #1
 8006478:	e7e4      	b.n	8006444 <_puts_r+0x68>
 800647a:	6823      	ldr	r3, [r4, #0]
 800647c:	1c5a      	adds	r2, r3, #1
 800647e:	6022      	str	r2, [r4, #0]
 8006480:	220a      	movs	r2, #10
 8006482:	701a      	strb	r2, [r3, #0]
 8006484:	e7ee      	b.n	8006464 <_puts_r+0x88>
	...

08006488 <puts>:
 8006488:	4b02      	ldr	r3, [pc, #8]	@ (8006494 <puts+0xc>)
 800648a:	4601      	mov	r1, r0
 800648c:	6818      	ldr	r0, [r3, #0]
 800648e:	f7ff bfa5 	b.w	80063dc <_puts_r>
 8006492:	bf00      	nop
 8006494:	20000018 	.word	0x20000018

08006498 <__sread>:
 8006498:	b510      	push	{r4, lr}
 800649a:	460c      	mov	r4, r1
 800649c:	f9b1 100e 	ldrsh.w	r1, [r1, #14]
 80064a0:	f000 f8fa 	bl	8006698 <_read_r>
 80064a4:	2800      	cmp	r0, #0
 80064a6:	bfab      	itete	ge
 80064a8:	6d63      	ldrge	r3, [r4, #84]	@ 0x54
 80064aa:	89a3      	ldrhlt	r3, [r4, #12]
 80064ac:	181b      	addge	r3, r3, r0
 80064ae:	f423 5380 	biclt.w	r3, r3, #4096	@ 0x1000
 80064b2:	bfac      	ite	ge
 80064b4:	6563      	strge	r3, [r4, #84]	@ 0x54
 80064b6:	81a3      	strhlt	r3, [r4, #12]
 80064b8:	bd10      	pop	{r4, pc}

080064ba <__swrite>:
 80064ba:	e92d 41f0 	stmdb	sp!, {r4, r5, r6, r7, r8, lr}
 80064be:	461f      	mov	r7, r3
 80064c0:	898b      	ldrh	r3, [r1, #12]
 80064c2:	05db      	lsls	r3, r3, #23
 80064c4:	4605      	mov	r5, r0
 80064c6:	460c      	mov	r4, r1
 80064c8:	4616      	mov	r6, r2
 80064ca:	d505      	bpl.n	80064d8 <__swrite+0x1e>
 80064cc:	f9b1 100e 	ldrsh.w	r1, [r1, #14]
 80064d0:	2302      	movs	r3, #2
 80064d2:	2200      	movs	r2, #0
 80064d4:	f000 f8ce 	bl	8006674 <_lseek_r>
 80064d8:	89a3      	ldrh	r3, [r4, #12]
 80064da:	f9b4 100e 	ldrsh.w	r1, [r4, #14]
 80064de:	f423 5380 	bic.w	r3, r3, #4096	@ 0x1000
 80064e2:	81a3      	strh	r3, [r4, #12]
 80064e4:	4632      	mov	r2, r6
 80064e6:	463b      	mov	r3, r7
 80064e8:	4628      	mov	r0, r5
 80064ea:	e8bd 41f0 	ldmia.w	sp!, {r4, r5, r6, r7, r8, lr}
 80064ee:	f000 b8e5 	b.w	80066bc <_write_r>

080064f2 <__sseek>:
 80064f2:	b510      	push	{r4, lr}
 80064f4:	460c      	mov	r4, r1
 80064f6:	f9b1 100e 	ldrsh.w	r1, [r1, #14]
 80064fa:	f000 f8bb 	bl	8006674 <_lseek_r>
 80064fe:	f9b4 300c 	ldrsh.w	r3, [r4, #12]
 8006502:	1c42      	adds	r2, r0, #1
 8006504:	bf0b      	itete	eq
 8006506:	f423 5380 	biceq.w	r3, r3, #4096	@ 0x1000
 800650a:	f443 5380 	orrne.w	r3, r3, #4096	@ 0x1000
 800650e:	81a3      	strheq	r3, [r4, #12]
 8006510:	81a3      	strhne	r3, [r4, #12]
 8006512:	bf18      	it	ne
 8006514:	6560      	strne	r0, [r4, #84]	@ 0x54
 8006516:	bd10      	pop	{r4, pc}

08006518 <__sclose>:
 8006518:	f9b1 100e 	ldrsh.w	r1, [r1, #14]
 800651c:	f000 b89a 	b.w	8006654 <_close_r>

08006520 <__swbuf_r>:
 8006520:	b5f8      	push	{r3, r4, r5, r6, r7, lr}
 8006522:	460e      	mov	r6, r1
 8006524:	4614      	mov	r4, r2
 8006526:	4605      	mov	r5, r0
 8006528:	b118      	cbz	r0, 8006532 <__swbuf_r+0x12>
 800652a:	6a03      	ldr	r3, [r0, #32]
 800652c:	b90b      	cbnz	r3, 8006532 <__swbuf_r+0x12>
 800652e:	f7ff ff0d 	bl	800634c <__sinit>
 8006532:	69a3      	ldr	r3, [r4, #24]
 8006534:	60a3      	str	r3, [r4, #8]
 8006536:	89a3      	ldrh	r3, [r4, #12]
 8006538:	071a      	lsls	r2, r3, #28
 800653a:	d501      	bpl.n	8006540 <__swbuf_r+0x20>
 800653c:	6923      	ldr	r3, [r4, #16]
 800653e:	b943      	cbnz	r3, 8006552 <__swbuf_r+0x32>
 8006540:	4621      	mov	r1, r4
 8006542:	4628      	mov	r0, r5
 8006544:	f000 f82a 	bl	800659c <__swsetup_r>
 8006548:	b118      	cbz	r0, 8006552 <__swbuf_r+0x32>
 800654a:	f04f 37ff 	mov.w	r7, #4294967295
 800654e:	4638      	mov	r0, r7
 8006550:	bdf8      	pop	{r3, r4, r5, r6, r7, pc}
 8006552:	6823      	ldr	r3, [r4, #0]
 8006554:	6922      	ldr	r2, [r4, #16]
 8006556:	1a98      	subs	r0, r3, r2
 8006558:	6963      	ldr	r3, [r4, #20]
 800655a:	b2f6      	uxtb	r6, r6
 800655c:	4283      	cmp	r3, r0
 800655e:	4637      	mov	r7, r6
 8006560:	dc05      	bgt.n	800656e <__swbuf_r+0x4e>
 8006562:	4621      	mov	r1, r4
 8006564:	4628      	mov	r0, r5
 8006566:	f000 fd43 	bl	8006ff0 <_fflush_r>
 800656a:	2800      	cmp	r0, #0
 800656c:	d1ed      	bne.n	800654a <__swbuf_r+0x2a>
 800656e:	68a3      	ldr	r3, [r4, #8]
 8006570:	3b01      	subs	r3, #1
 8006572:	60a3      	str	r3, [r4, #8]
 8006574:	6823      	ldr	r3, [r4, #0]
 8006576:	1c5a      	adds	r2, r3, #1
 8006578:	6022      	str	r2, [r4, #0]
 800657a:	701e      	strb	r6, [r3, #0]
 800657c:	6962      	ldr	r2, [r4, #20]
 800657e:	1c43      	adds	r3, r0, #1
 8006580:	429a      	cmp	r2, r3
 8006582:	d004      	beq.n	800658e <__swbuf_r+0x6e>
 8006584:	89a3      	ldrh	r3, [r4, #12]
 8006586:	07db      	lsls	r3, r3, #31
 8006588:	d5e1      	bpl.n	800654e <__swbuf_r+0x2e>
 800658a:	2e0a      	cmp	r6, #10
 800658c:	d1df      	bne.n	800654e <__swbuf_r+0x2e>
 800658e:	4621      	mov	r1, r4
 8006590:	4628      	mov	r0, r5
 8006592:	f000 fd2d 	bl	8006ff0 <_fflush_r>
 8006596:	2800      	cmp	r0, #0
 8006598:	d0d9      	beq.n	800654e <__swbuf_r+0x2e>
 800659a:	e7d6      	b.n	800654a <__swbuf_r+0x2a>

0800659c <__swsetup_r>:
 800659c:	b538      	push	{r3, r4, r5, lr}
 800659e:	4b28      	ldr	r3, [pc, #160]	@ (8006640 <__swsetup_r+0xa4>)
 80065a0:	4605      	mov	r5, r0
 80065a2:	6818      	ldr	r0, [r3, #0]
 80065a4:	460c      	mov	r4, r1
 80065a6:	b118      	cbz	r0, 80065b0 <__swsetup_r+0x14>
 80065a8:	6a03      	ldr	r3, [r0, #32]
 80065aa:	b90b      	cbnz	r3, 80065b0 <__swsetup_r+0x14>
 80065ac:	f7ff fece 	bl	800634c <__sinit>
 80065b0:	f9b4 300c 	ldrsh.w	r3, [r4, #12]
 80065b4:	071a      	lsls	r2, r3, #28
 80065b6:	d421      	bmi.n	80065fc <__swsetup_r+0x60>
 80065b8:	06d8      	lsls	r0, r3, #27
 80065ba:	d407      	bmi.n	80065cc <__swsetup_r+0x30>
 80065bc:	2209      	movs	r2, #9
 80065be:	602a      	str	r2, [r5, #0]
 80065c0:	f043 0340 	orr.w	r3, r3, #64	@ 0x40
 80065c4:	81a3      	strh	r3, [r4, #12]
 80065c6:	f04f 30ff 	mov.w	r0, #4294967295
 80065ca:	e030      	b.n	800662e <__swsetup_r+0x92>
 80065cc:	0759      	lsls	r1, r3, #29
 80065ce:	d512      	bpl.n	80065f6 <__swsetup_r+0x5a>
 80065d0:	6b61      	ldr	r1, [r4, #52]	@ 0x34
 80065d2:	b141      	cbz	r1, 80065e6 <__swsetup_r+0x4a>
 80065d4:	f104 0344 	add.w	r3, r4, #68	@ 0x44
 80065d8:	4299      	cmp	r1, r3
 80065da:	d002      	beq.n	80065e2 <__swsetup_r+0x46>
 80065dc:	4628      	mov	r0, r5
 80065de:	f000 f8bb 	bl	8006758 <_free_r>
 80065e2:	2300      	movs	r3, #0
 80065e4:	6363      	str	r3, [r4, #52]	@ 0x34
 80065e6:	2200      	movs	r2, #0
 80065e8:	f9b4 300c 	ldrsh.w	r3, [r4, #12]
 80065ec:	6062      	str	r2, [r4, #4]
 80065ee:	6922      	ldr	r2, [r4, #16]
 80065f0:	6022      	str	r2, [r4, #0]
 80065f2:	f023 0324 	bic.w	r3, r3, #36	@ 0x24
 80065f6:	f043 0308 	orr.w	r3, r3, #8
 80065fa:	81a3      	strh	r3, [r4, #12]
 80065fc:	6922      	ldr	r2, [r4, #16]
 80065fe:	b93a      	cbnz	r2, 8006610 <__swsetup_r+0x74>
 8006600:	059a      	lsls	r2, r3, #22
 8006602:	d501      	bpl.n	8006608 <__swsetup_r+0x6c>
 8006604:	0618      	lsls	r0, r3, #24
 8006606:	d503      	bpl.n	8006610 <__swsetup_r+0x74>
 8006608:	4621      	mov	r1, r4
 800660a:	4628      	mov	r0, r5
 800660c:	f000 fd3c 	bl	8007088 <__smakebuf_r>
 8006610:	f9b4 300c 	ldrsh.w	r3, [r4, #12]
 8006614:	f013 0201 	ands.w	r2, r3, #1
 8006618:	d00a      	beq.n	8006630 <__swsetup_r+0x94>
 800661a:	2200      	movs	r2, #0
 800661c:	60a2      	str	r2, [r4, #8]
 800661e:	6962      	ldr	r2, [r4, #20]
 8006620:	4252      	negs	r2, r2
 8006622:	61a2      	str	r2, [r4, #24]
 8006624:	6922      	ldr	r2, [r4, #16]
 8006626:	b942      	cbnz	r2, 800663a <__swsetup_r+0x9e>
 8006628:	f013 0080 	ands.w	r0, r3, #128	@ 0x80
 800662c:	d1c8      	bne.n	80065c0 <__swsetup_r+0x24>
 800662e:	bd38      	pop	{r3, r4, r5, pc}
 8006630:	0799      	lsls	r1, r3, #30
 8006632:	bf58      	it	pl
 8006634:	6962      	ldrpl	r2, [r4, #20]
 8006636:	60a2      	str	r2, [r4, #8]
 8006638:	e7f4      	b.n	8006624 <__swsetup_r+0x88>
 800663a:	2000      	movs	r0, #0
 800663c:	e7f7      	b.n	800662e <__swsetup_r+0x92>
 800663e:	bf00      	nop
 8006640:	20000018 	.word	0x20000018

08006644 <memset>:
 8006644:	4402      	add	r2, r0
 8006646:	4603      	mov	r3, r0
 8006648:	4293      	cmp	r3, r2
 800664a:	d100      	bne.n	800664e <memset+0xa>
 800664c:	4770      	bx	lr
 800664e:	f803 1b01 	strb.w	r1, [r3], #1
 8006652:	e7f9      	b.n	8006648 <memset+0x4>

08006654 <_close_r>:
 8006654:	b538      	push	{r3, r4, r5, lr}
 8006656:	4d06      	ldr	r5, [pc, #24]	@ (8006670 <_close_r+0x1c>)
 8006658:	2300      	movs	r3, #0
 800665a:	4604      	mov	r4, r0
 800665c:	4608      	mov	r0, r1
 800665e:	602b      	str	r3, [r5, #0]
 8006660:	f7ff fca6 	bl	8005fb0 <_close>
 8006664:	1c43      	adds	r3, r0, #1
 8006666:	d102      	bne.n	800666e <_close_r+0x1a>
 8006668:	682b      	ldr	r3, [r5, #0]
 800666a:	b103      	cbz	r3, 800666e <_close_r+0x1a>
 800666c:	6023      	str	r3, [r4, #0]
 800666e:	bd38      	pop	{r3, r4, r5, pc}
 8006670:	20000250 	.word	0x20000250

08006674 <_lseek_r>:
 8006674:	b538      	push	{r3, r4, r5, lr}
 8006676:	4d07      	ldr	r5, [pc, #28]	@ (8006694 <_lseek_r+0x20>)
 8006678:	4604      	mov	r4, r0
 800667a:	4608      	mov	r0, r1
 800667c:	4611      	mov	r1, r2
 800667e:	2200      	movs	r2, #0
 8006680:	602a      	str	r2, [r5, #0]
 8006682:	461a      	mov	r2, r3
 8006684:	f7ff fcbb 	bl	8005ffe <_lseek>
 8006688:	1c43      	adds	r3, r0, #1
 800668a:	d102      	bne.n	8006692 <_lseek_r+0x1e>
 800668c:	682b      	ldr	r3, [r5, #0]
 800668e:	b103      	cbz	r3, 8006692 <_lseek_r+0x1e>
 8006690:	6023      	str	r3, [r4, #0]
 8006692:	bd38      	pop	{r3, r4, r5, pc}
 8006694:	20000250 	.word	0x20000250

08006698 <_read_r>:
 8006698:	b538      	push	{r3, r4, r5, lr}
 800669a:	4d07      	ldr	r5, [pc, #28]	@ (80066b8 <_read_r+0x20>)
 800669c:	4604      	mov	r4, r0
 800669e:	4608      	mov	r0, r1
 80066a0:	4611      	mov	r1, r2
 80066a2:	2200      	movs	r2, #0
 80066a4:	602a      	str	r2, [r5, #0]
 80066a6:	461a      	mov	r2, r3
 80066a8:	f7ff fc65 	bl	8005f76 <_read>
 80066ac:	1c43      	adds	r3, r0, #1
 80066ae:	d102      	bne.n	80066b6 <_read_r+0x1e>
 80066b0:	682b      	ldr	r3, [r5, #0]
 80066b2:	b103      	cbz	r3, 80066b6 <_read_r+0x1e>
 80066b4:	6023      	str	r3, [r4, #0]
 80066b6:	bd38      	pop	{r3, r4, r5, pc}
 80066b8:	20000250 	.word	0x20000250

080066bc <_write_r>:
 80066bc:	b538      	push	{r3, r4, r5, lr}
 80066be:	4d07      	ldr	r5, [pc, #28]	@ (80066dc <_write_r+0x20>)
 80066c0:	4604      	mov	r4, r0
 80066c2:	4608      	mov	r0, r1
 80066c4:	4611      	mov	r1, r2
 80066c6:	2200      	movs	r2, #0
 80066c8:	602a      	str	r2, [r5, #0]
 80066ca:	461a      	mov	r2, r3
 80066cc:	f7fe fd0e 	bl	80050ec <_write>
 80066d0:	1c43      	adds	r3, r0, #1
 80066d2:	d102      	bne.n	80066da <_write_r+0x1e>
 80066d4:	682b      	ldr	r3, [r5, #0]
 80066d6:	b103      	cbz	r3, 80066da <_write_r+0x1e>
 80066d8:	6023      	str	r3, [r4, #0]
 80066da:	bd38      	pop	{r3, r4, r5, pc}
 80066dc:	20000250 	.word	0x20000250

080066e0 <__errno>:
 80066e0:	4b01      	ldr	r3, [pc, #4]	@ (80066e8 <__errno+0x8>)
 80066e2:	6818      	ldr	r0, [r3, #0]
 80066e4:	4770      	bx	lr
 80066e6:	bf00      	nop
 80066e8:	20000018 	.word	0x20000018

080066ec <__libc_init_array>:
 80066ec:	b570      	push	{r4, r5, r6, lr}
 80066ee:	4b0d      	ldr	r3, [pc, #52]	@ (8006724 <__libc_init_array+0x38>)
 80066f0:	4d0d      	ldr	r5, [pc, #52]	@ (8006728 <__libc_init_array+0x3c>)
 80066f2:	1b5b      	subs	r3, r3, r5
 80066f4:	109c      	asrs	r4, r3, #2
 80066f6:	2600      	movs	r6, #0
 80066f8:	42a6      	cmp	r6, r4
 80066fa:	d109      	bne.n	8006710 <__libc_init_array+0x24>
 80066fc:	f000 fd30 	bl	8007160 <_init>
 8006700:	4d0a      	ldr	r5, [pc, #40]	@ (800672c <__libc_init_array+0x40>)
 8006702:	4b0b      	ldr	r3, [pc, #44]	@ (8006730 <__libc_init_array+0x44>)
 8006704:	1b5b      	subs	r3, r3, r5
 8006706:	109c      	asrs	r4, r3, #2
 8006708:	2600      	movs	r6, #0
 800670a:	42a6      	cmp	r6, r4
 800670c:	d105      	bne.n	800671a <__libc_init_array+0x2e>
 800670e:	bd70      	pop	{r4, r5, r6, pc}
 8006710:	f855 3b04 	ldr.w	r3, [r5], #4
 8006714:	4798      	blx	r3
 8006716:	3601      	adds	r6, #1
 8006718:	e7ee      	b.n	80066f8 <__libc_init_array+0xc>
 800671a:	f855 3b04 	ldr.w	r3, [r5], #4
 800671e:	4798      	blx	r3
 8006720:	3601      	adds	r6, #1
 8006722:	e7f2      	b.n	800670a <__libc_init_array+0x1e>
 8006724:	08007618 	.word	0x08007618
 8006728:	08007618 	.word	0x08007618
 800672c:	08007618 	.word	0x08007618
 8006730:	0800761c 	.word	0x0800761c

08006734 <__retarget_lock_init_recursive>:
 8006734:	4770      	bx	lr

08006736 <__retarget_lock_acquire_recursive>:
 8006736:	4770      	bx	lr

08006738 <__retarget_lock_release_recursive>:
 8006738:	4770      	bx	lr

0800673a <memcpy>:
 800673a:	440a      	add	r2, r1
 800673c:	4291      	cmp	r1, r2
 800673e:	f100 33ff 	add.w	r3, r0, #4294967295
 8006742:	d100      	bne.n	8006746 <memcpy+0xc>
 8006744:	4770      	bx	lr
 8006746:	b510      	push	{r4, lr}
 8006748:	f811 4b01 	ldrb.w	r4, [r1], #1
 800674c:	f803 4f01 	strb.w	r4, [r3, #1]!
 8006750:	4291      	cmp	r1, r2
 8006752:	d1f9      	bne.n	8006748 <memcpy+0xe>
 8006754:	bd10      	pop	{r4, pc}
	...

08006758 <_free_r>:
 8006758:	b538      	push	{r3, r4, r5, lr}
 800675a:	4605      	mov	r5, r0
 800675c:	2900      	cmp	r1, #0
 800675e:	d041      	beq.n	80067e4 <_free_r+0x8c>
 8006760:	f851 3c04 	ldr.w	r3, [r1, #-4]
 8006764:	1f0c      	subs	r4, r1, #4
 8006766:	2b00      	cmp	r3, #0
 8006768:	bfb8      	it	lt
 800676a:	18e4      	addlt	r4, r4, r3
 800676c:	f000 f8e0 	bl	8006930 <__malloc_lock>
 8006770:	4a1d      	ldr	r2, [pc, #116]	@ (80067e8 <_free_r+0x90>)
 8006772:	6813      	ldr	r3, [r2, #0]
 8006774:	b933      	cbnz	r3, 8006784 <_free_r+0x2c>
 8006776:	6063      	str	r3, [r4, #4]
 8006778:	6014      	str	r4, [r2, #0]
 800677a:	4628      	mov	r0, r5
 800677c:	e8bd 4038 	ldmia.w	sp!, {r3, r4, r5, lr}
 8006780:	f000 b8dc 	b.w	800693c <__malloc_unlock>
 8006784:	42a3      	cmp	r3, r4
 8006786:	d908      	bls.n	800679a <_free_r+0x42>
 8006788:	6820      	ldr	r0, [r4, #0]
 800678a:	1821      	adds	r1, r4, r0
 800678c:	428b      	cmp	r3, r1
 800678e:	bf01      	itttt	eq
 8006790:	6819      	ldreq	r1, [r3, #0]
 8006792:	685b      	ldreq	r3, [r3, #4]
 8006794:	1809      	addeq	r1, r1, r0
 8006796:	6021      	streq	r1, [r4, #0]
 8006798:	e7ed      	b.n	8006776 <_free_r+0x1e>
 800679a:	461a      	mov	r2, r3
 800679c:	685b      	ldr	r3, [r3, #4]
 800679e:	b10b      	cbz	r3, 80067a4 <_free_r+0x4c>
 80067a0:	42a3      	cmp	r3, r4
 80067a2:	d9fa      	bls.n	800679a <_free_r+0x42>
 80067a4:	6811      	ldr	r1, [r2, #0]
 80067a6:	1850      	adds	r0, r2, r1
 80067a8:	42a0      	cmp	r0, r4
 80067aa:	d10b      	bne.n	80067c4 <_free_r+0x6c>
 80067ac:	6820      	ldr	r0, [r4, #0]
 80067ae:	4401      	add	r1, r0
 80067b0:	1850      	adds	r0, r2, r1
 80067b2:	4283      	cmp	r3, r0
 80067b4:	6011      	str	r1, [r2, #0]
 80067b6:	d1e0      	bne.n	800677a <_free_r+0x22>
 80067b8:	6818      	ldr	r0, [r3, #0]
 80067ba:	685b      	ldr	r3, [r3, #4]
 80067bc:	6053      	str	r3, [r2, #4]
 80067be:	4408      	add	r0, r1
 80067c0:	6010      	str	r0, [r2, #0]
 80067c2:	e7da      	b.n	800677a <_free_r+0x22>
 80067c4:	d902      	bls.n	80067cc <_free_r+0x74>
 80067c6:	230c      	movs	r3, #12
 80067c8:	602b      	str	r3, [r5, #0]
 80067ca:	e7d6      	b.n	800677a <_free_r+0x22>
 80067cc:	6820      	ldr	r0, [r4, #0]
 80067ce:	1821      	adds	r1, r4, r0
 80067d0:	428b      	cmp	r3, r1
 80067d2:	bf04      	itt	eq
 80067d4:	6819      	ldreq	r1, [r3, #0]
 80067d6:	685b      	ldreq	r3, [r3, #4]
 80067d8:	6063      	str	r3, [r4, #4]
 80067da:	bf04      	itt	eq
 80067dc:	1809      	addeq	r1, r1, r0
 80067de:	6021      	streq	r1, [r4, #0]
 80067e0:	6054      	str	r4, [r2, #4]
 80067e2:	e7ca      	b.n	800677a <_free_r+0x22>
 80067e4:	bd38      	pop	{r3, r4, r5, pc}
 80067e6:	bf00      	nop
 80067e8:	2000025c 	.word	0x2000025c

080067ec <sbrk_aligned>:
 80067ec:	b570      	push	{r4, r5, r6, lr}
 80067ee:	4e0f      	ldr	r6, [pc, #60]	@ (800682c <sbrk_aligned+0x40>)
 80067f0:	460c      	mov	r4, r1
 80067f2:	6831      	ldr	r1, [r6, #0]
 80067f4:	4605      	mov	r5, r0
 80067f6:	b911      	cbnz	r1, 80067fe <sbrk_aligned+0x12>
 80067f8:	f000 fca2 	bl	8007140 <_sbrk_r>
 80067fc:	6030      	str	r0, [r6, #0]
 80067fe:	4621      	mov	r1, r4
 8006800:	4628      	mov	r0, r5
 8006802:	f000 fc9d 	bl	8007140 <_sbrk_r>
 8006806:	1c43      	adds	r3, r0, #1
 8006808:	d103      	bne.n	8006812 <sbrk_aligned+0x26>
 800680a:	f04f 34ff 	mov.w	r4, #4294967295
 800680e:	4620      	mov	r0, r4
 8006810:	bd70      	pop	{r4, r5, r6, pc}
 8006812:	1cc4      	adds	r4, r0, #3
 8006814:	f024 0403 	bic.w	r4, r4, #3
 8006818:	42a0      	cmp	r0, r4
 800681a:	d0f8      	beq.n	800680e <sbrk_aligned+0x22>
 800681c:	1a21      	subs	r1, r4, r0
 800681e:	4628      	mov	r0, r5
 8006820:	f000 fc8e 	bl	8007140 <_sbrk_r>
 8006824:	3001      	adds	r0, #1
 8006826:	d1f2      	bne.n	800680e <sbrk_aligned+0x22>
 8006828:	e7ef      	b.n	800680a <sbrk_aligned+0x1e>
 800682a:	bf00      	nop
 800682c:	20000258 	.word	0x20000258

08006830 <_malloc_r>:
 8006830:	e92d 43f8 	stmdb	sp!, {r3, r4, r5, r6, r7, r8, r9, lr}
 8006834:	1ccd      	adds	r5, r1, #3
 8006836:	f025 0503 	bic.w	r5, r5, #3
 800683a:	3508      	adds	r5, #8
 800683c:	2d0c      	cmp	r5, #12
 800683e:	bf38      	it	cc
 8006840:	250c      	movcc	r5, #12
 8006842:	2d00      	cmp	r5, #0
 8006844:	4606      	mov	r6, r0
 8006846:	db01      	blt.n	800684c <_malloc_r+0x1c>
 8006848:	42a9      	cmp	r1, r5
 800684a:	d904      	bls.n	8006856 <_malloc_r+0x26>
 800684c:	230c      	movs	r3, #12
 800684e:	6033      	str	r3, [r6, #0]
 8006850:	2000      	movs	r0, #0
 8006852:	e8bd 83f8 	ldmia.w	sp!, {r3, r4, r5, r6, r7, r8, r9, pc}
 8006856:	f8df 80d4 	ldr.w	r8, [pc, #212]	@ 800692c <_malloc_r+0xfc>
 800685a:	f000 f869 	bl	8006930 <__malloc_lock>
 800685e:	f8d8 3000 	ldr.w	r3, [r8]
 8006862:	461c      	mov	r4, r3
 8006864:	bb44      	cbnz	r4, 80068b8 <_malloc_r+0x88>
 8006866:	4629      	mov	r1, r5
 8006868:	4630      	mov	r0, r6
 800686a:	f7ff ffbf 	bl	80067ec <sbrk_aligned>
 800686e:	1c43      	adds	r3, r0, #1
 8006870:	4604      	mov	r4, r0
 8006872:	d158      	bne.n	8006926 <_malloc_r+0xf6>
 8006874:	f8d8 4000 	ldr.w	r4, [r8]
 8006878:	4627      	mov	r7, r4
 800687a:	2f00      	cmp	r7, #0
 800687c:	d143      	bne.n	8006906 <_malloc_r+0xd6>
 800687e:	2c00      	cmp	r4, #0
 8006880:	d04b      	beq.n	800691a <_malloc_r+0xea>
 8006882:	6823      	ldr	r3, [r4, #0]
 8006884:	4639      	mov	r1, r7
 8006886:	4630      	mov	r0, r6
 8006888:	eb04 0903 	add.w	r9, r4, r3
 800688c:	f000 fc58 	bl	8007140 <_sbrk_r>
 8006890:	4581      	cmp	r9, r0
 8006892:	d142      	bne.n	800691a <_malloc_r+0xea>
 8006894:	6821      	ldr	r1, [r4, #0]
 8006896:	1a6d      	subs	r5, r5, r1
 8006898:	4629      	mov	r1, r5
 800689a:	4630      	mov	r0, r6
 800689c:	f7ff ffa6 	bl	80067ec <sbrk_aligned>
 80068a0:	3001      	adds	r0, #1
 80068a2:	d03a      	beq.n	800691a <_malloc_r+0xea>
 80068a4:	6823      	ldr	r3, [r4, #0]
 80068a6:	442b      	add	r3, r5
 80068a8:	6023      	str	r3, [r4, #0]
 80068aa:	f8d8 3000 	ldr.w	r3, [r8]
 80068ae:	685a      	ldr	r2, [r3, #4]
 80068b0:	bb62      	cbnz	r2, 800690c <_malloc_r+0xdc>
 80068b2:	f8c8 7000 	str.w	r7, [r8]
 80068b6:	e00f      	b.n	80068d8 <_malloc_r+0xa8>
 80068b8:	6822      	ldr	r2, [r4, #0]
 80068ba:	1b52      	subs	r2, r2, r5
 80068bc:	d420      	bmi.n	8006900 <_malloc_r+0xd0>
 80068be:	2a0b      	cmp	r2, #11
 80068c0:	d917      	bls.n	80068f2 <_malloc_r+0xc2>
 80068c2:	1961      	adds	r1, r4, r5
 80068c4:	42a3      	cmp	r3, r4
 80068c6:	6025      	str	r5, [r4, #0]
 80068c8:	bf18      	it	ne
 80068ca:	6059      	strne	r1, [r3, #4]
 80068cc:	6863      	ldr	r3, [r4, #4]
 80068ce:	bf08      	it	eq
 80068d0:	f8c8 1000 	streq.w	r1, [r8]
 80068d4:	5162      	str	r2, [r4, r5]
 80068d6:	604b      	str	r3, [r1, #4]
 80068d8:	4630      	mov	r0, r6
 80068da:	f000 f82f 	bl	800693c <__malloc_unlock>
 80068de:	f104 000b 	add.w	r0, r4, #11
 80068e2:	1d23      	adds	r3, r4, #4
 80068e4:	f020 0007 	bic.w	r0, r0, #7
 80068e8:	1ac2      	subs	r2, r0, r3
 80068ea:	bf1c      	itt	ne
 80068ec:	1a1b      	subne	r3, r3, r0
 80068ee:	50a3      	strne	r3, [r4, r2]
 80068f0:	e7af      	b.n	8006852 <_malloc_r+0x22>
 80068f2:	6862      	ldr	r2, [r4, #4]
 80068f4:	42a3      	cmp	r3, r4
 80068f6:	bf0c      	ite	eq
 80068f8:	f8c8 2000 	streq.w	r2, [r8]
 80068fc:	605a      	strne	r2, [r3, #4]
 80068fe:	e7eb      	b.n	80068d8 <_malloc_r+0xa8>
 8006900:	4623      	mov	r3, r4
 8006902:	6864      	ldr	r4, [r4, #4]
 8006904:	e7ae      	b.n	8006864 <_malloc_r+0x34>
 8006906:	463c      	mov	r4, r7
 8006908:	687f      	ldr	r7, [r7, #4]
 800690a:	e7b6      	b.n	800687a <_malloc_r+0x4a>
 800690c:	461a      	mov	r2, r3
 800690e:	685b      	ldr	r3, [r3, #4]
 8006910:	42a3      	cmp	r3, r4
 8006912:	d1fb      	bne.n	800690c <_malloc_r+0xdc>
 8006914:	2300      	movs	r3, #0
 8006916:	6053      	str	r3, [r2, #4]
 8006918:	e7de      	b.n	80068d8 <_malloc_r+0xa8>
 800691a:	230c      	movs	r3, #12
 800691c:	6033      	str	r3, [r6, #0]
 800691e:	4630      	mov	r0, r6
 8006920:	f000 f80c 	bl	800693c <__malloc_unlock>
 8006924:	e794      	b.n	8006850 <_malloc_r+0x20>
 8006926:	6005      	str	r5, [r0, #0]
 8006928:	e7d6      	b.n	80068d8 <_malloc_r+0xa8>
 800692a:	bf00      	nop
 800692c:	2000025c 	.word	0x2000025c

08006930 <__malloc_lock>:
 8006930:	4801      	ldr	r0, [pc, #4]	@ (8006938 <__malloc_lock+0x8>)
 8006932:	f7ff bf00 	b.w	8006736 <__retarget_lock_acquire_recursive>
 8006936:	bf00      	nop
 8006938:	20000254 	.word	0x20000254

0800693c <__malloc_unlock>:
 800693c:	4801      	ldr	r0, [pc, #4]	@ (8006944 <__malloc_unlock+0x8>)
 800693e:	f7ff befb 	b.w	8006738 <__retarget_lock_release_recursive>
 8006942:	bf00      	nop
 8006944:	20000254 	.word	0x20000254

08006948 <__sfputc_r>:
 8006948:	6893      	ldr	r3, [r2, #8]
 800694a:	3b01      	subs	r3, #1
 800694c:	2b00      	cmp	r3, #0
 800694e:	b410      	push	{r4}
 8006950:	6093      	str	r3, [r2, #8]
 8006952:	da08      	bge.n	8006966 <__sfputc_r+0x1e>
 8006954:	6994      	ldr	r4, [r2, #24]
 8006956:	42a3      	cmp	r3, r4
 8006958:	db01      	blt.n	800695e <__sfputc_r+0x16>
 800695a:	290a      	cmp	r1, #10
 800695c:	d103      	bne.n	8006966 <__sfputc_r+0x1e>
 800695e:	f85d 4b04 	ldr.w	r4, [sp], #4
 8006962:	f7ff bddd 	b.w	8006520 <__swbuf_r>
 8006966:	6813      	ldr	r3, [r2, #0]
 8006968:	1c58      	adds	r0, r3, #1
 800696a:	6010      	str	r0, [r2, #0]
 800696c:	7019      	strb	r1, [r3, #0]
 800696e:	4608      	mov	r0, r1
 8006970:	f85d 4b04 	ldr.w	r4, [sp], #4
 8006974:	4770      	bx	lr

08006976 <__sfputs_r>:
 8006976:	b5f8      	push	{r3, r4, r5, r6, r7, lr}
 8006978:	4606      	mov	r6, r0
 800697a:	460f      	mov	r7, r1
 800697c:	4614      	mov	r4, r2
 800697e:	18d5      	adds	r5, r2, r3
 8006980:	42ac      	cmp	r4, r5
 8006982:	d101      	bne.n	8006988 <__sfputs_r+0x12>
 8006984:	2000      	movs	r0, #0
 8006986:	e007      	b.n	8006998 <__sfputs_r+0x22>
 8006988:	f814 1b01 	ldrb.w	r1, [r4], #1
 800698c:	463a      	mov	r2, r7
 800698e:	4630      	mov	r0, r6
 8006990:	f7ff ffda 	bl	8006948 <__sfputc_r>
 8006994:	1c43      	adds	r3, r0, #1
 8006996:	d1f3      	bne.n	8006980 <__sfputs_r+0xa>
 8006998:	bdf8      	pop	{r3, r4, r5, r6, r7, pc}
	...

0800699c <_vfiprintf_r>:
 800699c:	e92d 47f0 	stmdb	sp!, {r4, r5, r6, r7, r8, r9, sl, lr}
 80069a0:	460d      	mov	r5, r1
 80069a2:	b09c      	sub	sp, #112	@ 0x70
 80069a4:	4614      	mov	r4, r2
 80069a6:	461f      	mov	r7, r3
 80069a8:	4606      	mov	r6, r0
 80069aa:	b118      	cbz	r0, 80069b4 <_vfiprintf_r+0x18>
 80069ac:	6a03      	ldr	r3, [r0, #32]
 80069ae:	b90b      	cbnz	r3, 80069b4 <_vfiprintf_r+0x18>
 80069b0:	f7ff fccc 	bl	800634c <__sinit>
 80069b4:	6e6b      	ldr	r3, [r5, #100]	@ 0x64
 80069b6:	07d9      	lsls	r1, r3, #31
 80069b8:	d405      	bmi.n	80069c6 <_vfiprintf_r+0x2a>
 80069ba:	89ab      	ldrh	r3, [r5, #12]
 80069bc:	059a      	lsls	r2, r3, #22
 80069be:	d402      	bmi.n	80069c6 <_vfiprintf_r+0x2a>
 80069c0:	6da8      	ldr	r0, [r5, #88]	@ 0x58
 80069c2:	f7ff feb8 	bl	8006736 <__retarget_lock_acquire_recursive>
 80069c6:	89ab      	ldrh	r3, [r5, #12]
 80069c8:	071b      	lsls	r3, r3, #28
 80069ca:	d501      	bpl.n	80069d0 <_vfiprintf_r+0x34>
 80069cc:	692b      	ldr	r3, [r5, #16]
 80069ce:	b99b      	cbnz	r3, 80069f8 <_vfiprintf_r+0x5c>
 80069d0:	4629      	mov	r1, r5
 80069d2:	4630      	mov	r0, r6
 80069d4:	f7ff fde2 	bl	800659c <__swsetup_r>
 80069d8:	b170      	cbz	r0, 80069f8 <_vfiprintf_r+0x5c>
 80069da:	6e6b      	ldr	r3, [r5, #100]	@ 0x64
 80069dc:	07dc      	lsls	r4, r3, #31
 80069de:	d504      	bpl.n	80069ea <_vfiprintf_r+0x4e>
 80069e0:	f04f 30ff 	mov.w	r0, #4294967295
 80069e4:	b01c      	add	sp, #112	@ 0x70
 80069e6:	e8bd 87f0 	ldmia.w	sp!, {r4, r5, r6, r7, r8, r9, sl, pc}
 80069ea:	89ab      	ldrh	r3, [r5, #12]
 80069ec:	0598      	lsls	r0, r3, #22
 80069ee:	d4f7      	bmi.n	80069e0 <_vfiprintf_r+0x44>
 80069f0:	6da8      	ldr	r0, [r5, #88]	@ 0x58
 80069f2:	f7ff fea1 	bl	8006738 <__retarget_lock_release_recursive>
 80069f6:	e7f3      	b.n	80069e0 <_vfiprintf_r+0x44>
 80069f8:	2300      	movs	r3, #0
 80069fa:	9309      	str	r3, [sp, #36]	@ 0x24
 80069fc:	2320      	movs	r3, #32
 80069fe:	f88d 3029 	strb.w	r3, [sp, #41]	@ 0x29
 8006a02:	9703      	str	r7, [sp, #12]
 8006a04:	2330      	movs	r3, #48	@ 0x30
 8006a06:	4f6a      	ldr	r7, [pc, #424]	@ (8006bb0 <_vfiprintf_r+0x214>)
 8006a08:	f88d 302a 	strb.w	r3, [sp, #42]	@ 0x2a
 8006a0c:	f04f 0801 	mov.w	r8, #1
 8006a10:	4623      	mov	r3, r4
 8006a12:	4699      	mov	r9, r3
 8006a14:	f813 2b01 	ldrb.w	r2, [r3], #1
 8006a18:	b10a      	cbz	r2, 8006a1e <_vfiprintf_r+0x82>
 8006a1a:	2a25      	cmp	r2, #37	@ 0x25
 8006a1c:	d1f9      	bne.n	8006a12 <_vfiprintf_r+0x76>
 8006a1e:	ebb9 0a04 	subs.w	sl, r9, r4
 8006a22:	d00b      	beq.n	8006a3c <_vfiprintf_r+0xa0>
 8006a24:	4653      	mov	r3, sl
 8006a26:	4622      	mov	r2, r4
 8006a28:	4629      	mov	r1, r5
 8006a2a:	4630      	mov	r0, r6
 8006a2c:	f7ff ffa3 	bl	8006976 <__sfputs_r>
 8006a30:	3001      	adds	r0, #1
 8006a32:	f000 80a4 	beq.w	8006b7e <_vfiprintf_r+0x1e2>
 8006a36:	9a09      	ldr	r2, [sp, #36]	@ 0x24
 8006a38:	4452      	add	r2, sl
 8006a3a:	9209      	str	r2, [sp, #36]	@ 0x24
 8006a3c:	f899 3000 	ldrb.w	r3, [r9]
 8006a40:	2b00      	cmp	r3, #0
 8006a42:	f000 809c 	beq.w	8006b7e <_vfiprintf_r+0x1e2>
 8006a46:	2300      	movs	r3, #0
 8006a48:	f04f 32ff 	mov.w	r2, #4294967295
 8006a4c:	e9cd 2305 	strd	r2, r3, [sp, #20]
 8006a50:	f109 0901 	add.w	r9, r9, #1
 8006a54:	9304      	str	r3, [sp, #16]
 8006a56:	9307      	str	r3, [sp, #28]
 8006a58:	f88d 3053 	strb.w	r3, [sp, #83]	@ 0x53
 8006a5c:	931a      	str	r3, [sp, #104]	@ 0x68
 8006a5e:	464c      	mov	r4, r9
 8006a60:	4853      	ldr	r0, [pc, #332]	@ (8006bb0 <_vfiprintf_r+0x214>)
 8006a62:	f814 1b01 	ldrb.w	r1, [r4], #1
 8006a66:	2205      	movs	r2, #5
 8006a68:	f7f9 fbb2 	bl	80001d0 <memchr>
 8006a6c:	9b04      	ldr	r3, [sp, #16]
 8006a6e:	b9d0      	cbnz	r0, 8006aa6 <_vfiprintf_r+0x10a>
 8006a70:	06d9      	lsls	r1, r3, #27
 8006a72:	bf44      	itt	mi
 8006a74:	2220      	movmi	r2, #32
 8006a76:	f88d 2053 	strbmi.w	r2, [sp, #83]	@ 0x53
 8006a7a:	071a      	lsls	r2, r3, #28
 8006a7c:	bf44      	itt	mi
 8006a7e:	222b      	movmi	r2, #43	@ 0x2b
 8006a80:	f88d 2053 	strbmi.w	r2, [sp, #83]	@ 0x53
 8006a84:	f899 2000 	ldrb.w	r2, [r9]
 8006a88:	2a2a      	cmp	r2, #42	@ 0x2a
 8006a8a:	d013      	beq.n	8006ab4 <_vfiprintf_r+0x118>
 8006a8c:	9a07      	ldr	r2, [sp, #28]
 8006a8e:	464c      	mov	r4, r9
 8006a90:	2000      	movs	r0, #0
 8006a92:	f04f 0c0a 	mov.w	ip, #10
 8006a96:	4621      	mov	r1, r4
 8006a98:	f811 3b01 	ldrb.w	r3, [r1], #1
 8006a9c:	3b30      	subs	r3, #48	@ 0x30
 8006a9e:	2b09      	cmp	r3, #9
 8006aa0:	d949      	bls.n	8006b36 <_vfiprintf_r+0x19a>
 8006aa2:	b968      	cbnz	r0, 8006ac0 <_vfiprintf_r+0x124>
 8006aa4:	e013      	b.n	8006ace <_vfiprintf_r+0x132>
 8006aa6:	1bc0      	subs	r0, r0, r7
 8006aa8:	fa08 f000 	lsl.w	r0, r8, r0
 8006aac:	4318      	orrs	r0, r3
 8006aae:	9004      	str	r0, [sp, #16]
 8006ab0:	46a1      	mov	r9, r4
 8006ab2:	e7d4      	b.n	8006a5e <_vfiprintf_r+0xc2>
 8006ab4:	9a03      	ldr	r2, [sp, #12]
 8006ab6:	1d11      	adds	r1, r2, #4
 8006ab8:	6812      	ldr	r2, [r2, #0]
 8006aba:	9103      	str	r1, [sp, #12]
 8006abc:	2a00      	cmp	r2, #0
 8006abe:	db01      	blt.n	8006ac4 <_vfiprintf_r+0x128>
 8006ac0:	9207      	str	r2, [sp, #28]
 8006ac2:	e004      	b.n	8006ace <_vfiprintf_r+0x132>
 8006ac4:	4252      	negs	r2, r2
 8006ac6:	f043 0302 	orr.w	r3, r3, #2
 8006aca:	9207      	str	r2, [sp, #28]
 8006acc:	9304      	str	r3, [sp, #16]
 8006ace:	7823      	ldrb	r3, [r4, #0]
 8006ad0:	2b2e      	cmp	r3, #46	@ 0x2e
 8006ad2:	d10a      	bne.n	8006aea <_vfiprintf_r+0x14e>
 8006ad4:	7863      	ldrb	r3, [r4, #1]
 8006ad6:	2b2a      	cmp	r3, #42	@ 0x2a
 8006ad8:	d132      	bne.n	8006b40 <_vfiprintf_r+0x1a4>
 8006ada:	9b03      	ldr	r3, [sp, #12]
 8006adc:	1d1a      	adds	r2, r3, #4
 8006ade:	681b      	ldr	r3, [r3, #0]
 8006ae0:	9203      	str	r2, [sp, #12]
 8006ae2:	ea43 73e3 	orr.w	r3, r3, r3, asr #31
 8006ae6:	3402      	adds	r4, #2
 8006ae8:	9305      	str	r3, [sp, #20]
 8006aea:	f8df 90d4 	ldr.w	r9, [pc, #212]	@ 8006bc0 <_vfiprintf_r+0x224>
 8006aee:	7821      	ldrb	r1, [r4, #0]
 8006af0:	2203      	movs	r2, #3
 8006af2:	4648      	mov	r0, r9
 8006af4:	f7f9 fb6c 	bl	80001d0 <memchr>
 8006af8:	b138      	cbz	r0, 8006b0a <_vfiprintf_r+0x16e>
 8006afa:	9b04      	ldr	r3, [sp, #16]
 8006afc:	eba0 0009 	sub.w	r0, r0, r9
 8006b00:	2240      	movs	r2, #64	@ 0x40
 8006b02:	4082      	lsls	r2, r0
 8006b04:	4313      	orrs	r3, r2
 8006b06:	3401      	adds	r4, #1
 8006b08:	9304      	str	r3, [sp, #16]
 8006b0a:	f814 1b01 	ldrb.w	r1, [r4], #1
 8006b0e:	4829      	ldr	r0, [pc, #164]	@ (8006bb4 <_vfiprintf_r+0x218>)
 8006b10:	f88d 1028 	strb.w	r1, [sp, #40]	@ 0x28
 8006b14:	2206      	movs	r2, #6
 8006b16:	f7f9 fb5b 	bl	80001d0 <memchr>
 8006b1a:	2800      	cmp	r0, #0
 8006b1c:	d03e      	beq.n	8006b9c <_vfiprintf_r+0x200>
 8006b1e:	4826      	ldr	r0, [pc, #152]	@ (8006bb8 <_vfiprintf_r+0x21c>)
 8006b20:	bb18      	cbnz	r0, 8006b6a <_vfiprintf_r+0x1ce>
 8006b22:	9b03      	ldr	r3, [sp, #12]
 8006b24:	3307      	adds	r3, #7
 8006b26:	f023 0307 	bic.w	r3, r3, #7
 8006b2a:	3308      	adds	r3, #8
 8006b2c:	9303      	str	r3, [sp, #12]
 8006b2e:	9b09      	ldr	r3, [sp, #36]	@ 0x24
 8006b30:	4403      	add	r3, r0
 8006b32:	9309      	str	r3, [sp, #36]	@ 0x24
 8006b34:	e76c      	b.n	8006a10 <_vfiprintf_r+0x74>
 8006b36:	fb0c 3202 	mla	r2, ip, r2, r3
 8006b3a:	460c      	mov	r4, r1
 8006b3c:	2001      	movs	r0, #1
 8006b3e:	e7aa      	b.n	8006a96 <_vfiprintf_r+0xfa>
 8006b40:	2300      	movs	r3, #0
 8006b42:	3401      	adds	r4, #1
 8006b44:	9305      	str	r3, [sp, #20]
 8006b46:	4619      	mov	r1, r3
 8006b48:	f04f 0c0a 	mov.w	ip, #10
 8006b4c:	4620      	mov	r0, r4
 8006b4e:	f810 2b01 	ldrb.w	r2, [r0], #1
 8006b52:	3a30      	subs	r2, #48	@ 0x30
 8006b54:	2a09      	cmp	r2, #9
 8006b56:	d903      	bls.n	8006b60 <_vfiprintf_r+0x1c4>
 8006b58:	2b00      	cmp	r3, #0
 8006b5a:	d0c6      	beq.n	8006aea <_vfiprintf_r+0x14e>
 8006b5c:	9105      	str	r1, [sp, #20]
 8006b5e:	e7c4      	b.n	8006aea <_vfiprintf_r+0x14e>
 8006b60:	fb0c 2101 	mla	r1, ip, r1, r2
 8006b64:	4604      	mov	r4, r0
 8006b66:	2301      	movs	r3, #1
 8006b68:	e7f0      	b.n	8006b4c <_vfiprintf_r+0x1b0>
 8006b6a:	ab03      	add	r3, sp, #12
 8006b6c:	9300      	str	r3, [sp, #0]
 8006b6e:	462a      	mov	r2, r5
 8006b70:	4b12      	ldr	r3, [pc, #72]	@ (8006bbc <_vfiprintf_r+0x220>)
 8006b72:	a904      	add	r1, sp, #16
 8006b74:	4630      	mov	r0, r6
 8006b76:	f3af 8000 	nop.w
 8006b7a:	1c43      	adds	r3, r0, #1
 8006b7c:	d1d7      	bne.n	8006b2e <_vfiprintf_r+0x192>
 8006b7e:	6e6b      	ldr	r3, [r5, #100]	@ 0x64
 8006b80:	07d9      	lsls	r1, r3, #31
 8006b82:	d405      	bmi.n	8006b90 <_vfiprintf_r+0x1f4>
 8006b84:	89ab      	ldrh	r3, [r5, #12]
 8006b86:	059a      	lsls	r2, r3, #22
 8006b88:	d402      	bmi.n	8006b90 <_vfiprintf_r+0x1f4>
 8006b8a:	6da8      	ldr	r0, [r5, #88]	@ 0x58
 8006b8c:	f7ff fdd4 	bl	8006738 <__retarget_lock_release_recursive>
 8006b90:	89ab      	ldrh	r3, [r5, #12]
 8006b92:	065b      	lsls	r3, r3, #25
 8006b94:	f53f af24 	bmi.w	80069e0 <_vfiprintf_r+0x44>
 8006b98:	9809      	ldr	r0, [sp, #36]	@ 0x24
 8006b9a:	e723      	b.n	80069e4 <_vfiprintf_r+0x48>
 8006b9c:	ab03      	add	r3, sp, #12
 8006b9e:	9300      	str	r3, [sp, #0]
 8006ba0:	462a      	mov	r2, r5
 8006ba2:	4b06      	ldr	r3, [pc, #24]	@ (8006bbc <_vfiprintf_r+0x220>)
 8006ba4:	a904      	add	r1, sp, #16
 8006ba6:	4630      	mov	r0, r6
 8006ba8:	f000 f87a 	bl	8006ca0 <_printf_i>
 8006bac:	e7e5      	b.n	8006b7a <_vfiprintf_r+0x1de>
 8006bae:	bf00      	nop
 8006bb0:	080075dc 	.word	0x080075dc
 8006bb4:	080075e6 	.word	0x080075e6
 8006bb8:	00000000 	.word	0x00000000
 8006bbc:	08006977 	.word	0x08006977
 8006bc0:	080075e2 	.word	0x080075e2

08006bc4 <_printf_common>:
 8006bc4:	e92d 47f0 	stmdb	sp!, {r4, r5, r6, r7, r8, r9, sl, lr}
 8006bc8:	4616      	mov	r6, r2
 8006bca:	4698      	mov	r8, r3
 8006bcc:	688a      	ldr	r2, [r1, #8]
 8006bce:	690b      	ldr	r3, [r1, #16]
 8006bd0:	f8dd 9020 	ldr.w	r9, [sp, #32]
 8006bd4:	4293      	cmp	r3, r2
 8006bd6:	bfb8      	it	lt
 8006bd8:	4613      	movlt	r3, r2
 8006bda:	6033      	str	r3, [r6, #0]
 8006bdc:	f891 2043 	ldrb.w	r2, [r1, #67]	@ 0x43
 8006be0:	4607      	mov	r7, r0
 8006be2:	460c      	mov	r4, r1
 8006be4:	b10a      	cbz	r2, 8006bea <_printf_common+0x26>
 8006be6:	3301      	adds	r3, #1
 8006be8:	6033      	str	r3, [r6, #0]
 8006bea:	6823      	ldr	r3, [r4, #0]
 8006bec:	0699      	lsls	r1, r3, #26
 8006bee:	bf42      	ittt	mi
 8006bf0:	6833      	ldrmi	r3, [r6, #0]
 8006bf2:	3302      	addmi	r3, #2
 8006bf4:	6033      	strmi	r3, [r6, #0]
 8006bf6:	6825      	ldr	r5, [r4, #0]
 8006bf8:	f015 0506 	ands.w	r5, r5, #6
 8006bfc:	d106      	bne.n	8006c0c <_printf_common+0x48>
 8006bfe:	f104 0a19 	add.w	sl, r4, #25
 8006c02:	68e3      	ldr	r3, [r4, #12]
 8006c04:	6832      	ldr	r2, [r6, #0]
 8006c06:	1a9b      	subs	r3, r3, r2
 8006c08:	42ab      	cmp	r3, r5
 8006c0a:	dc26      	bgt.n	8006c5a <_printf_common+0x96>
 8006c0c:	f894 3043 	ldrb.w	r3, [r4, #67]	@ 0x43
 8006c10:	6822      	ldr	r2, [r4, #0]
 8006c12:	3b00      	subs	r3, #0
 8006c14:	bf18      	it	ne
 8006c16:	2301      	movne	r3, #1
 8006c18:	0692      	lsls	r2, r2, #26
 8006c1a:	d42b      	bmi.n	8006c74 <_printf_common+0xb0>
 8006c1c:	f104 0243 	add.w	r2, r4, #67	@ 0x43
 8006c20:	4641      	mov	r1, r8
 8006c22:	4638      	mov	r0, r7
 8006c24:	47c8      	blx	r9
 8006c26:	3001      	adds	r0, #1
 8006c28:	d01e      	beq.n	8006c68 <_printf_common+0xa4>
 8006c2a:	6823      	ldr	r3, [r4, #0]
 8006c2c:	6922      	ldr	r2, [r4, #16]
 8006c2e:	f003 0306 	and.w	r3, r3, #6
 8006c32:	2b04      	cmp	r3, #4
 8006c34:	bf02      	ittt	eq
 8006c36:	68e5      	ldreq	r5, [r4, #12]
 8006c38:	6833      	ldreq	r3, [r6, #0]
 8006c3a:	1aed      	subeq	r5, r5, r3
 8006c3c:	68a3      	ldr	r3, [r4, #8]
 8006c3e:	bf0c      	ite	eq
 8006c40:	ea25 75e5 	biceq.w	r5, r5, r5, asr #31
 8006c44:	2500      	movne	r5, #0
 8006c46:	4293      	cmp	r3, r2
 8006c48:	bfc4      	itt	gt
 8006c4a:	1a9b      	subgt	r3, r3, r2
 8006c4c:	18ed      	addgt	r5, r5, r3
 8006c4e:	2600      	movs	r6, #0
 8006c50:	341a      	adds	r4, #26
 8006c52:	42b5      	cmp	r5, r6
 8006c54:	d11a      	bne.n	8006c8c <_printf_common+0xc8>
 8006c56:	2000      	movs	r0, #0
 8006c58:	e008      	b.n	8006c6c <_printf_common+0xa8>
 8006c5a:	2301      	movs	r3, #1
 8006c5c:	4652      	mov	r2, sl
 8006c5e:	4641      	mov	r1, r8
 8006c60:	4638      	mov	r0, r7
 8006c62:	47c8      	blx	r9
 8006c64:	3001      	adds	r0, #1
 8006c66:	d103      	bne.n	8006c70 <_printf_common+0xac>
 8006c68:	f04f 30ff 	mov.w	r0, #4294967295
 8006c6c:	e8bd 87f0 	ldmia.w	sp!, {r4, r5, r6, r7, r8, r9, sl, pc}
 8006c70:	3501      	adds	r5, #1
 8006c72:	e7c6      	b.n	8006c02 <_printf_common+0x3e>
 8006c74:	18e1      	adds	r1, r4, r3
 8006c76:	1c5a      	adds	r2, r3, #1
 8006c78:	2030      	movs	r0, #48	@ 0x30
 8006c7a:	f881 0043 	strb.w	r0, [r1, #67]	@ 0x43
 8006c7e:	4422      	add	r2, r4
 8006c80:	f894 1045 	ldrb.w	r1, [r4, #69]	@ 0x45
 8006c84:	f882 1043 	strb.w	r1, [r2, #67]	@ 0x43
 8006c88:	3302      	adds	r3, #2
 8006c8a:	e7c7      	b.n	8006c1c <_printf_common+0x58>
 8006c8c:	2301      	movs	r3, #1
 8006c8e:	4622      	mov	r2, r4
 8006c90:	4641      	mov	r1, r8
 8006c92:	4638      	mov	r0, r7
 8006c94:	47c8      	blx	r9
 8006c96:	3001      	adds	r0, #1
 8006c98:	d0e6      	beq.n	8006c68 <_printf_common+0xa4>
 8006c9a:	3601      	adds	r6, #1
 8006c9c:	e7d9      	b.n	8006c52 <_printf_common+0x8e>
	...

08006ca0 <_printf_i>:
 8006ca0:	e92d 43f0 	stmdb	sp!, {r4, r5, r6, r7, r8, r9, lr}
 8006ca4:	7e0d      	ldrb	r5, [r1, #24]
 8006ca6:	b085      	sub	sp, #20
 8006ca8:	2d78      	cmp	r5, #120	@ 0x78
 8006caa:	4690      	mov	r8, r2
 8006cac:	9e0c      	ldr	r6, [sp, #48]	@ 0x30
 8006cae:	4607      	mov	r7, r0
 8006cb0:	460c      	mov	r4, r1
 8006cb2:	4699      	mov	r9, r3
 8006cb4:	f101 0243 	add.w	r2, r1, #67	@ 0x43
 8006cb8:	d807      	bhi.n	8006cca <_printf_i+0x2a>
 8006cba:	2d62      	cmp	r5, #98	@ 0x62
 8006cbc:	d80a      	bhi.n	8006cd4 <_printf_i+0x34>
 8006cbe:	2d00      	cmp	r5, #0
 8006cc0:	f000 80d7 	beq.w	8006e72 <_printf_i+0x1d2>
 8006cc4:	2d58      	cmp	r5, #88	@ 0x58
 8006cc6:	f000 80bc 	beq.w	8006e42 <_printf_i+0x1a2>
 8006cca:	f104 0642 	add.w	r6, r4, #66	@ 0x42
 8006cce:	f884 5042 	strb.w	r5, [r4, #66]	@ 0x42
 8006cd2:	e03b      	b.n	8006d4c <_printf_i+0xac>
 8006cd4:	f1a5 0363 	sub.w	r3, r5, #99	@ 0x63
 8006cd8:	2b15      	cmp	r3, #21
 8006cda:	d8f6      	bhi.n	8006cca <_printf_i+0x2a>
 8006cdc:	a101      	add	r1, pc, #4	@ (adr r1, 8006ce4 <_printf_i+0x44>)
 8006cde:	f851 f023 	ldr.w	pc, [r1, r3, lsl #2]
 8006ce2:	bf00      	nop
 8006ce4:	08006d3d 	.word	0x08006d3d
 8006ce8:	08006d51 	.word	0x08006d51
 8006cec:	08006ccb 	.word	0x08006ccb
 8006cf0:	08006ccb 	.word	0x08006ccb
 8006cf4:	08006ccb 	.word	0x08006ccb
 8006cf8:	08006ccb 	.word	0x08006ccb
 8006cfc:	08006d51 	.word	0x08006d51
 8006d00:	08006ccb 	.word	0x08006ccb
 8006d04:	08006ccb 	.word	0x08006ccb
 8006d08:	08006ccb 	.word	0x08006ccb
 8006d0c:	08006ccb 	.word	0x08006ccb
 8006d10:	08006e59 	.word	0x08006e59
 8006d14:	08006d7b 	.word	0x08006d7b
 8006d18:	08006e0b 	.word	0x08006e0b
 8006d1c:	08006ccb 	.word	0x08006ccb
 8006d20:	08006ccb 	.word	0x08006ccb
 8006d24:	08006e7b 	.word	0x08006e7b
 8006d28:	08006ccb 	.word	0x08006ccb
 8006d2c:	08006d7b 	.word	0x08006d7b
 8006d30:	08006ccb 	.word	0x08006ccb
 8006d34:	08006ccb 	.word	0x08006ccb
 8006d38:	08006e13 	.word	0x08006e13
 8006d3c:	6833      	ldr	r3, [r6, #0]
 8006d3e:	1d1a      	adds	r2, r3, #4
 8006d40:	681b      	ldr	r3, [r3, #0]
 8006d42:	6032      	str	r2, [r6, #0]
 8006d44:	f104 0642 	add.w	r6, r4, #66	@ 0x42
 8006d48:	f884 3042 	strb.w	r3, [r4, #66]	@ 0x42
 8006d4c:	2301      	movs	r3, #1
 8006d4e:	e0a1      	b.n	8006e94 <_printf_i+0x1f4>
 8006d50:	6833      	ldr	r3, [r6, #0]
 8006d52:	6820      	ldr	r0, [r4, #0]
 8006d54:	1d19      	adds	r1, r3, #4
 8006d56:	6031      	str	r1, [r6, #0]
 8006d58:	0606      	lsls	r6, r0, #24
 8006d5a:	d501      	bpl.n	8006d60 <_printf_i+0xc0>
 8006d5c:	681d      	ldr	r5, [r3, #0]
 8006d5e:	e003      	b.n	8006d68 <_printf_i+0xc8>
 8006d60:	0645      	lsls	r5, r0, #25
 8006d62:	d5fb      	bpl.n	8006d5c <_printf_i+0xbc>
 8006d64:	f9b3 5000 	ldrsh.w	r5, [r3]
 8006d68:	2d00      	cmp	r5, #0
 8006d6a:	da03      	bge.n	8006d74 <_printf_i+0xd4>
 8006d6c:	232d      	movs	r3, #45	@ 0x2d
 8006d6e:	426d      	negs	r5, r5
 8006d70:	f884 3043 	strb.w	r3, [r4, #67]	@ 0x43
 8006d74:	485b      	ldr	r0, [pc, #364]	@ (8006ee4 <_printf_i+0x244>)
 8006d76:	230a      	movs	r3, #10
 8006d78:	e011      	b.n	8006d9e <_printf_i+0xfe>
 8006d7a:	6821      	ldr	r1, [r4, #0]
 8006d7c:	6833      	ldr	r3, [r6, #0]
 8006d7e:	0608      	lsls	r0, r1, #24
 8006d80:	f853 5b04 	ldr.w	r5, [r3], #4
 8006d84:	d402      	bmi.n	8006d8c <_printf_i+0xec>
 8006d86:	0649      	lsls	r1, r1, #25
 8006d88:	bf48      	it	mi
 8006d8a:	b2ad      	uxthmi	r5, r5
 8006d8c:	6033      	str	r3, [r6, #0]
 8006d8e:	7e23      	ldrb	r3, [r4, #24]
 8006d90:	4854      	ldr	r0, [pc, #336]	@ (8006ee4 <_printf_i+0x244>)
 8006d92:	2b6f      	cmp	r3, #111	@ 0x6f
 8006d94:	d15c      	bne.n	8006e50 <_printf_i+0x1b0>
 8006d96:	2308      	movs	r3, #8
 8006d98:	2100      	movs	r1, #0
 8006d9a:	f884 1043 	strb.w	r1, [r4, #67]	@ 0x43
 8006d9e:	6866      	ldr	r6, [r4, #4]
 8006da0:	60a6      	str	r6, [r4, #8]
 8006da2:	2e00      	cmp	r6, #0
 8006da4:	db05      	blt.n	8006db2 <_printf_i+0x112>
 8006da6:	6821      	ldr	r1, [r4, #0]
 8006da8:	432e      	orrs	r6, r5
 8006daa:	f021 0104 	bic.w	r1, r1, #4
 8006dae:	6021      	str	r1, [r4, #0]
 8006db0:	d050      	beq.n	8006e54 <_printf_i+0x1b4>
 8006db2:	4616      	mov	r6, r2
 8006db4:	fbb5 f1f3 	udiv	r1, r5, r3
 8006db8:	fb03 5c11 	mls	ip, r3, r1, r5
 8006dbc:	f810 c00c 	ldrb.w	ip, [r0, ip]
 8006dc0:	f806 cd01 	strb.w	ip, [r6, #-1]!
 8006dc4:	46ac      	mov	ip, r5
 8006dc6:	4563      	cmp	r3, ip
 8006dc8:	460d      	mov	r5, r1
 8006dca:	d9f3      	bls.n	8006db4 <_printf_i+0x114>
 8006dcc:	2b08      	cmp	r3, #8
 8006dce:	d10b      	bne.n	8006de8 <_printf_i+0x148>
 8006dd0:	6823      	ldr	r3, [r4, #0]
 8006dd2:	07db      	lsls	r3, r3, #31
 8006dd4:	d508      	bpl.n	8006de8 <_printf_i+0x148>
 8006dd6:	6923      	ldr	r3, [r4, #16]
 8006dd8:	6861      	ldr	r1, [r4, #4]
 8006dda:	4299      	cmp	r1, r3
 8006ddc:	bfde      	ittt	le
 8006dde:	2330      	movle	r3, #48	@ 0x30
 8006de0:	f806 3c01 	strble.w	r3, [r6, #-1]
 8006de4:	f106 36ff 	addle.w	r6, r6, #4294967295
 8006de8:	1b92      	subs	r2, r2, r6
 8006dea:	6122      	str	r2, [r4, #16]
 8006dec:	f8cd 9000 	str.w	r9, [sp]
 8006df0:	4643      	mov	r3, r8
 8006df2:	aa03      	add	r2, sp, #12
 8006df4:	4621      	mov	r1, r4
 8006df6:	4638      	mov	r0, r7
 8006df8:	f7ff fee4 	bl	8006bc4 <_printf_common>
 8006dfc:	3001      	adds	r0, #1
 8006dfe:	d14e      	bne.n	8006e9e <_printf_i+0x1fe>
 8006e00:	f04f 30ff 	mov.w	r0, #4294967295
 8006e04:	b005      	add	sp, #20
 8006e06:	e8bd 83f0 	ldmia.w	sp!, {r4, r5, r6, r7, r8, r9, pc}
 8006e0a:	6823      	ldr	r3, [r4, #0]
 8006e0c:	f043 0320 	orr.w	r3, r3, #32
 8006e10:	6023      	str	r3, [r4, #0]
 8006e12:	4835      	ldr	r0, [pc, #212]	@ (8006ee8 <_printf_i+0x248>)
 8006e14:	2578      	movs	r5, #120	@ 0x78
 8006e16:	f884 5045 	strb.w	r5, [r4, #69]	@ 0x45
 8006e1a:	6823      	ldr	r3, [r4, #0]
 8006e1c:	6831      	ldr	r1, [r6, #0]
 8006e1e:	f013 0f80 	tst.w	r3, #128	@ 0x80
 8006e22:	f851 5b04 	ldr.w	r5, [r1], #4
 8006e26:	d103      	bne.n	8006e30 <_printf_i+0x190>
 8006e28:	f013 0f40 	tst.w	r3, #64	@ 0x40
 8006e2c:	bf18      	it	ne
 8006e2e:	b2ad      	uxthne	r5, r5
 8006e30:	6031      	str	r1, [r6, #0]
 8006e32:	07d9      	lsls	r1, r3, #31
 8006e34:	bf44      	itt	mi
 8006e36:	f043 0320 	orrmi.w	r3, r3, #32
 8006e3a:	6023      	strmi	r3, [r4, #0]
 8006e3c:	b11d      	cbz	r5, 8006e46 <_printf_i+0x1a6>
 8006e3e:	2310      	movs	r3, #16
 8006e40:	e7aa      	b.n	8006d98 <_printf_i+0xf8>
 8006e42:	4828      	ldr	r0, [pc, #160]	@ (8006ee4 <_printf_i+0x244>)
 8006e44:	e7e7      	b.n	8006e16 <_printf_i+0x176>
 8006e46:	6823      	ldr	r3, [r4, #0]
 8006e48:	f023 0320 	bic.w	r3, r3, #32
 8006e4c:	6023      	str	r3, [r4, #0]
 8006e4e:	e7f6      	b.n	8006e3e <_printf_i+0x19e>
 8006e50:	230a      	movs	r3, #10
 8006e52:	e7a1      	b.n	8006d98 <_printf_i+0xf8>
 8006e54:	4616      	mov	r6, r2
 8006e56:	e7b9      	b.n	8006dcc <_printf_i+0x12c>
 8006e58:	6833      	ldr	r3, [r6, #0]
 8006e5a:	6825      	ldr	r5, [r4, #0]
 8006e5c:	6961      	ldr	r1, [r4, #20]
 8006e5e:	1d18      	adds	r0, r3, #4
 8006e60:	6030      	str	r0, [r6, #0]
 8006e62:	062e      	lsls	r6, r5, #24
 8006e64:	681b      	ldr	r3, [r3, #0]
 8006e66:	d501      	bpl.n	8006e6c <_printf_i+0x1cc>
 8006e68:	6019      	str	r1, [r3, #0]
 8006e6a:	e002      	b.n	8006e72 <_printf_i+0x1d2>
 8006e6c:	0668      	lsls	r0, r5, #25
 8006e6e:	d5fb      	bpl.n	8006e68 <_printf_i+0x1c8>
 8006e70:	8019      	strh	r1, [r3, #0]
 8006e72:	2300      	movs	r3, #0
 8006e74:	6123      	str	r3, [r4, #16]
 8006e76:	4616      	mov	r6, r2
 8006e78:	e7b8      	b.n	8006dec <_printf_i+0x14c>
 8006e7a:	6833      	ldr	r3, [r6, #0]
 8006e7c:	1d1a      	adds	r2, r3, #4
 8006e7e:	6032      	str	r2, [r6, #0]
 8006e80:	681e      	ldr	r6, [r3, #0]
 8006e82:	6862      	ldr	r2, [r4, #4]
 8006e84:	2100      	movs	r1, #0
 8006e86:	4630      	mov	r0, r6
 8006e88:	f7f9 f9a2 	bl	80001d0 <memchr>
 8006e8c:	b108      	cbz	r0, 8006e92 <_printf_i+0x1f2>
 8006e8e:	1b80      	subs	r0, r0, r6
 8006e90:	6060      	str	r0, [r4, #4]
 8006e92:	6863      	ldr	r3, [r4, #4]
 8006e94:	6123      	str	r3, [r4, #16]
 8006e96:	2300      	movs	r3, #0
 8006e98:	f884 3043 	strb.w	r3, [r4, #67]	@ 0x43
 8006e9c:	e7a6      	b.n	8006dec <_printf_i+0x14c>
 8006e9e:	6923      	ldr	r3, [r4, #16]
 8006ea0:	4632      	mov	r2, r6
 8006ea2:	4641      	mov	r1, r8
 8006ea4:	4638      	mov	r0, r7
 8006ea6:	47c8      	blx	r9
 8006ea8:	3001      	adds	r0, #1
 8006eaa:	d0a9      	beq.n	8006e00 <_printf_i+0x160>
 8006eac:	6823      	ldr	r3, [r4, #0]
 8006eae:	079b      	lsls	r3, r3, #30
 8006eb0:	d413      	bmi.n	8006eda <_printf_i+0x23a>
 8006eb2:	68e0      	ldr	r0, [r4, #12]
 8006eb4:	9b03      	ldr	r3, [sp, #12]
 8006eb6:	4298      	cmp	r0, r3
 8006eb8:	bfb8      	it	lt
 8006eba:	4618      	movlt	r0, r3
 8006ebc:	e7a2      	b.n	8006e04 <_printf_i+0x164>
 8006ebe:	2301      	movs	r3, #1
 8006ec0:	4632      	mov	r2, r6
 8006ec2:	4641      	mov	r1, r8
 8006ec4:	4638      	mov	r0, r7
 8006ec6:	47c8      	blx	r9
 8006ec8:	3001      	adds	r0, #1
 8006eca:	d099      	beq.n	8006e00 <_printf_i+0x160>
 8006ecc:	3501      	adds	r5, #1
 8006ece:	68e3      	ldr	r3, [r4, #12]
 8006ed0:	9903      	ldr	r1, [sp, #12]
 8006ed2:	1a5b      	subs	r3, r3, r1
 8006ed4:	42ab      	cmp	r3, r5
 8006ed6:	dcf2      	bgt.n	8006ebe <_printf_i+0x21e>
 8006ed8:	e7eb      	b.n	8006eb2 <_printf_i+0x212>
 8006eda:	2500      	movs	r5, #0
 8006edc:	f104 0619 	add.w	r6, r4, #25
 8006ee0:	e7f5      	b.n	8006ece <_printf_i+0x22e>
 8006ee2:	bf00      	nop
 8006ee4:	080075ed 	.word	0x080075ed
 8006ee8:	080075fe 	.word	0x080075fe

08006eec <__sflush_r>:
 8006eec:	f9b1 200c 	ldrsh.w	r2, [r1, #12]
 8006ef0:	e92d 41f0 	stmdb	sp!, {r4, r5, r6, r7, r8, lr}
 8006ef4:	0716      	lsls	r6, r2, #28
 8006ef6:	4605      	mov	r5, r0
 8006ef8:	460c      	mov	r4, r1
 8006efa:	d451      	bmi.n	8006fa0 <__sflush_r+0xb4>
 8006efc:	684b      	ldr	r3, [r1, #4]
 8006efe:	2b00      	cmp	r3, #0
 8006f00:	dc02      	bgt.n	8006f08 <__sflush_r+0x1c>
 8006f02:	6c0b      	ldr	r3, [r1, #64]	@ 0x40
 8006f04:	2b00      	cmp	r3, #0
 8006f06:	dd49      	ble.n	8006f9c <__sflush_r+0xb0>
 8006f08:	6ae6      	ldr	r6, [r4, #44]	@ 0x2c
 8006f0a:	2e00      	cmp	r6, #0
 8006f0c:	d046      	beq.n	8006f9c <__sflush_r+0xb0>
 8006f0e:	2300      	movs	r3, #0
 8006f10:	f412 5280 	ands.w	r2, r2, #4096	@ 0x1000
 8006f14:	682f      	ldr	r7, [r5, #0]
 8006f16:	602b      	str	r3, [r5, #0]
 8006f18:	d031      	beq.n	8006f7e <__sflush_r+0x92>
 8006f1a:	6d62      	ldr	r2, [r4, #84]	@ 0x54
 8006f1c:	89a3      	ldrh	r3, [r4, #12]
 8006f1e:	0759      	lsls	r1, r3, #29
 8006f20:	d505      	bpl.n	8006f2e <__sflush_r+0x42>
 8006f22:	6863      	ldr	r3, [r4, #4]
 8006f24:	1ad2      	subs	r2, r2, r3
 8006f26:	6b63      	ldr	r3, [r4, #52]	@ 0x34
 8006f28:	b10b      	cbz	r3, 8006f2e <__sflush_r+0x42>
 8006f2a:	6c23      	ldr	r3, [r4, #64]	@ 0x40
 8006f2c:	1ad2      	subs	r2, r2, r3
 8006f2e:	2300      	movs	r3, #0
 8006f30:	6ae6      	ldr	r6, [r4, #44]	@ 0x2c
 8006f32:	6a21      	ldr	r1, [r4, #32]
 8006f34:	4628      	mov	r0, r5
 8006f36:	47b0      	blx	r6
 8006f38:	1c42      	adds	r2, r0, #1
 8006f3a:	f9b4 300c 	ldrsh.w	r3, [r4, #12]
 8006f3e:	d106      	bne.n	8006f4e <__sflush_r+0x62>
 8006f40:	6829      	ldr	r1, [r5, #0]
 8006f42:	291d      	cmp	r1, #29
 8006f44:	d846      	bhi.n	8006fd4 <__sflush_r+0xe8>
 8006f46:	4a29      	ldr	r2, [pc, #164]	@ (8006fec <__sflush_r+0x100>)
 8006f48:	40ca      	lsrs	r2, r1
 8006f4a:	07d6      	lsls	r6, r2, #31
 8006f4c:	d542      	bpl.n	8006fd4 <__sflush_r+0xe8>
 8006f4e:	2200      	movs	r2, #0
 8006f50:	6062      	str	r2, [r4, #4]
 8006f52:	04d9      	lsls	r1, r3, #19
 8006f54:	6922      	ldr	r2, [r4, #16]
 8006f56:	6022      	str	r2, [r4, #0]
 8006f58:	d504      	bpl.n	8006f64 <__sflush_r+0x78>
 8006f5a:	1c42      	adds	r2, r0, #1
 8006f5c:	d101      	bne.n	8006f62 <__sflush_r+0x76>
 8006f5e:	682b      	ldr	r3, [r5, #0]
 8006f60:	b903      	cbnz	r3, 8006f64 <__sflush_r+0x78>
 8006f62:	6560      	str	r0, [r4, #84]	@ 0x54
 8006f64:	6b61      	ldr	r1, [r4, #52]	@ 0x34
 8006f66:	602f      	str	r7, [r5, #0]
 8006f68:	b1c1      	cbz	r1, 8006f9c <__sflush_r+0xb0>
 8006f6a:	f104 0344 	add.w	r3, r4, #68	@ 0x44
 8006f6e:	4299      	cmp	r1, r3
 8006f70:	d002      	beq.n	8006f78 <__sflush_r+0x8c>
 8006f72:	4628      	mov	r0, r5
 8006f74:	f7ff fbf0 	bl	8006758 <_free_r>
 8006f78:	2300      	movs	r3, #0
 8006f7a:	6363      	str	r3, [r4, #52]	@ 0x34
 8006f7c:	e00e      	b.n	8006f9c <__sflush_r+0xb0>
 8006f7e:	6a21      	ldr	r1, [r4, #32]
 8006f80:	2301      	movs	r3, #1
 8006f82:	4628      	mov	r0, r5
 8006f84:	47b0      	blx	r6
 8006f86:	4602      	mov	r2, r0
 8006f88:	1c50      	adds	r0, r2, #1
 8006f8a:	d1c7      	bne.n	8006f1c <__sflush_r+0x30>
 8006f8c:	682b      	ldr	r3, [r5, #0]
 8006f8e:	2b00      	cmp	r3, #0
 8006f90:	d0c4      	beq.n	8006f1c <__sflush_r+0x30>
 8006f92:	2b1d      	cmp	r3, #29
 8006f94:	d001      	beq.n	8006f9a <__sflush_r+0xae>
 8006f96:	2b16      	cmp	r3, #22
 8006f98:	d11a      	bne.n	8006fd0 <__sflush_r+0xe4>
 8006f9a:	602f      	str	r7, [r5, #0]
 8006f9c:	2000      	movs	r0, #0
 8006f9e:	e01e      	b.n	8006fde <__sflush_r+0xf2>
 8006fa0:	690f      	ldr	r7, [r1, #16]
 8006fa2:	2f00      	cmp	r7, #0
 8006fa4:	d0fa      	beq.n	8006f9c <__sflush_r+0xb0>
 8006fa6:	0793      	lsls	r3, r2, #30
 8006fa8:	680e      	ldr	r6, [r1, #0]
 8006faa:	bf08      	it	eq
 8006fac:	694b      	ldreq	r3, [r1, #20]
 8006fae:	600f      	str	r7, [r1, #0]
 8006fb0:	bf18      	it	ne
 8006fb2:	2300      	movne	r3, #0
 8006fb4:	eba6 0807 	sub.w	r8, r6, r7
 8006fb8:	608b      	str	r3, [r1, #8]
 8006fba:	f1b8 0f00 	cmp.w	r8, #0
 8006fbe:	dded      	ble.n	8006f9c <__sflush_r+0xb0>
 8006fc0:	6a21      	ldr	r1, [r4, #32]
 8006fc2:	6aa6      	ldr	r6, [r4, #40]	@ 0x28
 8006fc4:	4643      	mov	r3, r8
 8006fc6:	463a      	mov	r2, r7
 8006fc8:	4628      	mov	r0, r5
 8006fca:	47b0      	blx	r6
 8006fcc:	2800      	cmp	r0, #0
 8006fce:	dc08      	bgt.n	8006fe2 <__sflush_r+0xf6>
 8006fd0:	f9b4 300c 	ldrsh.w	r3, [r4, #12]
 8006fd4:	f043 0340 	orr.w	r3, r3, #64	@ 0x40
 8006fd8:	81a3      	strh	r3, [r4, #12]
 8006fda:	f04f 30ff 	mov.w	r0, #4294967295
 8006fde:	e8bd 81f0 	ldmia.w	sp!, {r4, r5, r6, r7, r8, pc}
 8006fe2:	4407      	add	r7, r0
 8006fe4:	eba8 0800 	sub.w	r8, r8, r0
 8006fe8:	e7e7      	b.n	8006fba <__sflush_r+0xce>
 8006fea:	bf00      	nop
 8006fec:	20400001 	.word	0x20400001

08006ff0 <_fflush_r>:
 8006ff0:	b538      	push	{r3, r4, r5, lr}
 8006ff2:	690b      	ldr	r3, [r1, #16]
 8006ff4:	4605      	mov	r5, r0
 8006ff6:	460c      	mov	r4, r1
 8006ff8:	b913      	cbnz	r3, 8007000 <_fflush_r+0x10>
 8006ffa:	2500      	movs	r5, #0
 8006ffc:	4628      	mov	r0, r5
 8006ffe:	bd38      	pop	{r3, r4, r5, pc}
 8007000:	b118      	cbz	r0, 800700a <_fflush_r+0x1a>
 8007002:	6a03      	ldr	r3, [r0, #32]
 8007004:	b90b      	cbnz	r3, 800700a <_fflush_r+0x1a>
 8007006:	f7ff f9a1 	bl	800634c <__sinit>
 800700a:	f9b4 300c 	ldrsh.w	r3, [r4, #12]
 800700e:	2b00      	cmp	r3, #0
 8007010:	d0f3      	beq.n	8006ffa <_fflush_r+0xa>
 8007012:	6e62      	ldr	r2, [r4, #100]	@ 0x64
 8007014:	07d0      	lsls	r0, r2, #31
 8007016:	d404      	bmi.n	8007022 <_fflush_r+0x32>
 8007018:	0599      	lsls	r1, r3, #22
 800701a:	d402      	bmi.n	8007022 <_fflush_r+0x32>
 800701c:	6da0      	ldr	r0, [r4, #88]	@ 0x58
 800701e:	f7ff fb8a 	bl	8006736 <__retarget_lock_acquire_recursive>
 8007022:	4628      	mov	r0, r5
 8007024:	4621      	mov	r1, r4
 8007026:	f7ff ff61 	bl	8006eec <__sflush_r>
 800702a:	6e63      	ldr	r3, [r4, #100]	@ 0x64
 800702c:	07da      	lsls	r2, r3, #31
 800702e:	4605      	mov	r5, r0
 8007030:	d4e4      	bmi.n	8006ffc <_fflush_r+0xc>
 8007032:	89a3      	ldrh	r3, [r4, #12]
 8007034:	059b      	lsls	r3, r3, #22
 8007036:	d4e1      	bmi.n	8006ffc <_fflush_r+0xc>
 8007038:	6da0      	ldr	r0, [r4, #88]	@ 0x58
 800703a:	f7ff fb7d 	bl	8006738 <__retarget_lock_release_recursive>
 800703e:	e7dd      	b.n	8006ffc <_fflush_r+0xc>

08007040 <__swhatbuf_r>:
 8007040:	b570      	push	{r4, r5, r6, lr}
 8007042:	460c      	mov	r4, r1
 8007044:	f9b1 100e 	ldrsh.w	r1, [r1, #14]
 8007048:	2900      	cmp	r1, #0
 800704a:	b096      	sub	sp, #88	@ 0x58
 800704c:	4615      	mov	r5, r2
 800704e:	461e      	mov	r6, r3
 8007050:	da0a      	bge.n	8007068 <__swhatbuf_r+0x28>
 8007052:	89a1      	ldrh	r1, [r4, #12]
 8007054:	f011 0180 	ands.w	r1, r1, #128	@ 0x80
 8007058:	d113      	bne.n	8007082 <__swhatbuf_r+0x42>
 800705a:	f44f 6280 	mov.w	r2, #1024	@ 0x400
 800705e:	2000      	movs	r0, #0
 8007060:	6031      	str	r1, [r6, #0]
 8007062:	602a      	str	r2, [r5, #0]
 8007064:	b016      	add	sp, #88	@ 0x58
 8007066:	bd70      	pop	{r4, r5, r6, pc}
 8007068:	466a      	mov	r2, sp
 800706a:	f000 f847 	bl	80070fc <_fstat_r>
 800706e:	2800      	cmp	r0, #0
 8007070:	dbef      	blt.n	8007052 <__swhatbuf_r+0x12>
 8007072:	9901      	ldr	r1, [sp, #4]
 8007074:	f401 4170 	and.w	r1, r1, #61440	@ 0xf000
 8007078:	f5a1 5300 	sub.w	r3, r1, #8192	@ 0x2000
 800707c:	4259      	negs	r1, r3
 800707e:	4159      	adcs	r1, r3
 8007080:	e7eb      	b.n	800705a <__swhatbuf_r+0x1a>
 8007082:	2100      	movs	r1, #0
 8007084:	2240      	movs	r2, #64	@ 0x40
 8007086:	e7ea      	b.n	800705e <__swhatbuf_r+0x1e>

08007088 <__smakebuf_r>:
 8007088:	898b      	ldrh	r3, [r1, #12]
 800708a:	b573      	push	{r0, r1, r4, r5, r6, lr}
 800708c:	079e      	lsls	r6, r3, #30
 800708e:	4605      	mov	r5, r0
 8007090:	460c      	mov	r4, r1
 8007092:	d507      	bpl.n	80070a4 <__smakebuf_r+0x1c>
 8007094:	f104 0347 	add.w	r3, r4, #71	@ 0x47
 8007098:	6023      	str	r3, [r4, #0]
 800709a:	6123      	str	r3, [r4, #16]
 800709c:	2301      	movs	r3, #1
 800709e:	6163      	str	r3, [r4, #20]
 80070a0:	b002      	add	sp, #8
 80070a2:	bd70      	pop	{r4, r5, r6, pc}
 80070a4:	ab01      	add	r3, sp, #4
 80070a6:	466a      	mov	r2, sp
 80070a8:	f7ff ffca 	bl	8007040 <__swhatbuf_r>
 80070ac:	9e00      	ldr	r6, [sp, #0]
 80070ae:	4628      	mov	r0, r5
 80070b0:	4631      	mov	r1, r6
 80070b2:	f7ff fbbd 	bl	8006830 <_malloc_r>
 80070b6:	f9b4 300c 	ldrsh.w	r3, [r4, #12]
 80070ba:	b938      	cbnz	r0, 80070cc <__smakebuf_r+0x44>
 80070bc:	059a      	lsls	r2, r3, #22
 80070be:	d4ef      	bmi.n	80070a0 <__smakebuf_r+0x18>
 80070c0:	f023 0303 	bic.w	r3, r3, #3
 80070c4:	f043 0302 	orr.w	r3, r3, #2
 80070c8:	81a3      	strh	r3, [r4, #12]
 80070ca:	e7e3      	b.n	8007094 <__smakebuf_r+0xc>
 80070cc:	f043 0380 	orr.w	r3, r3, #128	@ 0x80
 80070d0:	81a3      	strh	r3, [r4, #12]
 80070d2:	9b01      	ldr	r3, [sp, #4]
 80070d4:	6020      	str	r0, [r4, #0]
 80070d6:	e9c4 0604 	strd	r0, r6, [r4, #16]
 80070da:	2b00      	cmp	r3, #0
 80070dc:	d0e0      	beq.n	80070a0 <__smakebuf_r+0x18>
 80070de:	f9b4 100e 	ldrsh.w	r1, [r4, #14]
 80070e2:	4628      	mov	r0, r5
 80070e4:	f000 f81c 	bl	8007120 <_isatty_r>
 80070e8:	2800      	cmp	r0, #0
 80070ea:	d0d9      	beq.n	80070a0 <__smakebuf_r+0x18>
 80070ec:	89a3      	ldrh	r3, [r4, #12]
 80070ee:	f023 0303 	bic.w	r3, r3, #3
 80070f2:	f043 0301 	orr.w	r3, r3, #1
 80070f6:	81a3      	strh	r3, [r4, #12]
 80070f8:	e7d2      	b.n	80070a0 <__smakebuf_r+0x18>
	...

080070fc <_fstat_r>:
 80070fc:	b538      	push	{r3, r4, r5, lr}
 80070fe:	4d07      	ldr	r5, [pc, #28]	@ (800711c <_fstat_r+0x20>)
 8007100:	2300      	movs	r3, #0
 8007102:	4604      	mov	r4, r0
 8007104:	4608      	mov	r0, r1
 8007106:	4611      	mov	r1, r2
 8007108:	602b      	str	r3, [r5, #0]
 800710a:	f7fe ff5d 	bl	8005fc8 <_fstat>
 800710e:	1c43      	adds	r3, r0, #1
 8007110:	d102      	bne.n	8007118 <_fstat_r+0x1c>
 8007112:	682b      	ldr	r3, [r5, #0]
 8007114:	b103      	cbz	r3, 8007118 <_fstat_r+0x1c>
 8007116:	6023      	str	r3, [r4, #0]
 8007118:	bd38      	pop	{r3, r4, r5, pc}
 800711a:	bf00      	nop
 800711c:	20000250 	.word	0x20000250

08007120 <_isatty_r>:
 8007120:	b538      	push	{r3, r4, r5, lr}
 8007122:	4d06      	ldr	r5, [pc, #24]	@ (800713c <_isatty_r+0x1c>)
 8007124:	2300      	movs	r3, #0
 8007126:	4604      	mov	r4, r0
 8007128:	4608      	mov	r0, r1
 800712a:	602b      	str	r3, [r5, #0]
 800712c:	f7fe ff5c 	bl	8005fe8 <_isatty>
 8007130:	1c43      	adds	r3, r0, #1
 8007132:	d102      	bne.n	800713a <_isatty_r+0x1a>
 8007134:	682b      	ldr	r3, [r5, #0]
 8007136:	b103      	cbz	r3, 800713a <_isatty_r+0x1a>
 8007138:	6023      	str	r3, [r4, #0]
 800713a:	bd38      	pop	{r3, r4, r5, pc}
 800713c:	20000250 	.word	0x20000250

08007140 <_sbrk_r>:
 8007140:	b538      	push	{r3, r4, r5, lr}
 8007142:	4d06      	ldr	r5, [pc, #24]	@ (800715c <_sbrk_r+0x1c>)
 8007144:	2300      	movs	r3, #0
 8007146:	4604      	mov	r4, r0
 8007148:	4608      	mov	r0, r1
 800714a:	602b      	str	r3, [r5, #0]
 800714c:	f7fe ff64 	bl	8006018 <_sbrk>
 8007150:	1c43      	adds	r3, r0, #1
 8007152:	d102      	bne.n	800715a <_sbrk_r+0x1a>
 8007154:	682b      	ldr	r3, [r5, #0]
 8007156:	b103      	cbz	r3, 800715a <_sbrk_r+0x1a>
 8007158:	6023      	str	r3, [r4, #0]
 800715a:	bd38      	pop	{r3, r4, r5, pc}
 800715c:	20000250 	.word	0x20000250

08007160 <_init>:
 8007160:	b5f8      	push	{r3, r4, r5, r6, r7, lr}
 8007162:	bf00      	nop
 8007164:	bcf8      	pop	{r3, r4, r5, r6, r7}
 8007166:	bc08      	pop	{r3}
 8007168:	469e      	mov	lr, r3
 800716a:	4770      	bx	lr

0800716c <_fini>:
 800716c:	b5f8      	push	{r3, r4, r5, r6, r7, lr}
 800716e:	bf00      	nop
 8007170:	bcf8      	pop	{r3, r4, r5, r6, r7}
 8007172:	bc08      	pop	{r3}
 8007174:	469e      	mov	lr, r3
 8007176:	4770      	bx	lr
